ARM GAS  C:\Users\ISAKVO~1\AppData\Local\Temp\ccR1W42h.s 			page 1


   1              		.syntax unified
   2              		.cpu cortex-m4
   3              		.eabi_attribute 27, 1
   4              		.fpu fpv4-sp-d16
   5              		.eabi_attribute 20, 1
   6              		.eabi_attribute 21, 1
   7              		.eabi_attribute 23, 3
   8              		.eabi_attribute 24, 1
   9              		.eabi_attribute 25, 1
  10              		.eabi_attribute 26, 1
  11              		.eabi_attribute 30, 1
  12              		.eabi_attribute 34, 1
  13              		.eabi_attribute 18, 4
  14              		.thumb
  15              		.syntax unified
  16              		.file	"main_cm4.c"
  17              		.text
  18              	.Ltext0:
  19              		.cfi_sections	.debug_frame
  20              		.section	.text.main,"ax",%progbits
  21              		.align	2
  22              		.global	main
  23              		.thumb
  24              		.thumb_func
  25              		.type	main, %function
  26              	main:
  27              	.LFB494:
  28              		.file 1 "main_cm4.c"
   1:main_cm4.c    **** #include "project.h"
   2:main_cm4.c    **** 
   3:main_cm4.c    **** #include "game.h"
   4:main_cm4.c    **** 
   5:main_cm4.c    **** 
   6:main_cm4.c    **** int main(void)
   7:main_cm4.c    **** {
  29              		.loc 1 7 0
  30              		.cfi_startproc
  31              		@ Volatile: function does not return.
  32              		@ args = 0, pretend = 0, frame = 0
  33              		@ frame_needed = 0, uses_anonymous_args = 0
  34 0000 08B5     		push	{r3, lr}
  35              		.cfi_def_cfa_offset 8
  36              		.cfi_offset 3, -8
  37              		.cfi_offset 14, -4
  38              	.LBB147:
  39              	.LBB148:
  40              		.file 2 "Generated_Source\\PSoC6\\pdl\\cmsis/include/cmsis_gcc.h"
   1:Generated_Source\PSoC6\pdl\cmsis/include/cmsis_gcc.h **** /**************************************************************************//**
   2:Generated_Source\PSoC6\pdl\cmsis/include/cmsis_gcc.h ****  * @file     cmsis_gcc.h
   3:Generated_Source\PSoC6\pdl\cmsis/include/cmsis_gcc.h ****  * @brief    CMSIS compiler GCC header file
   4:Generated_Source\PSoC6\pdl\cmsis/include/cmsis_gcc.h ****  * @version  V5.0.3
   5:Generated_Source\PSoC6\pdl\cmsis/include/cmsis_gcc.h ****  * @date     16. January 2018
   6:Generated_Source\PSoC6\pdl\cmsis/include/cmsis_gcc.h ****  ******************************************************************************/
   7:Generated_Source\PSoC6\pdl\cmsis/include/cmsis_gcc.h **** /*
   8:Generated_Source\PSoC6\pdl\cmsis/include/cmsis_gcc.h ****  * Copyright (c) 2009-2017 ARM Limited. All rights reserved.
   9:Generated_Source\PSoC6\pdl\cmsis/include/cmsis_gcc.h ****  *
  10:Generated_Source\PSoC6\pdl\cmsis/include/cmsis_gcc.h ****  * SPDX-License-Identifier: Apache-2.0
ARM GAS  C:\Users\ISAKVO~1\AppData\Local\Temp\ccR1W42h.s 			page 2


  11:Generated_Source\PSoC6\pdl\cmsis/include/cmsis_gcc.h ****  *
  12:Generated_Source\PSoC6\pdl\cmsis/include/cmsis_gcc.h ****  * Licensed under the Apache License, Version 2.0 (the License); you may
  13:Generated_Source\PSoC6\pdl\cmsis/include/cmsis_gcc.h ****  * not use this file except in compliance with the License.
  14:Generated_Source\PSoC6\pdl\cmsis/include/cmsis_gcc.h ****  * You may obtain a copy of the License at
  15:Generated_Source\PSoC6\pdl\cmsis/include/cmsis_gcc.h ****  *
  16:Generated_Source\PSoC6\pdl\cmsis/include/cmsis_gcc.h ****  * www.apache.org/licenses/LICENSE-2.0
  17:Generated_Source\PSoC6\pdl\cmsis/include/cmsis_gcc.h ****  *
  18:Generated_Source\PSoC6\pdl\cmsis/include/cmsis_gcc.h ****  * Unless required by applicable law or agreed to in writing, software
  19:Generated_Source\PSoC6\pdl\cmsis/include/cmsis_gcc.h ****  * distributed under the License is distributed on an AS IS BASIS, WITHOUT
  20:Generated_Source\PSoC6\pdl\cmsis/include/cmsis_gcc.h ****  * WARRANTIES OR CONDITIONS OF ANY KIND, either express or implied.
  21:Generated_Source\PSoC6\pdl\cmsis/include/cmsis_gcc.h ****  * See the License for the specific language governing permissions and
  22:Generated_Source\PSoC6\pdl\cmsis/include/cmsis_gcc.h ****  * limitations under the License.
  23:Generated_Source\PSoC6\pdl\cmsis/include/cmsis_gcc.h ****  */
  24:Generated_Source\PSoC6\pdl\cmsis/include/cmsis_gcc.h **** 
  25:Generated_Source\PSoC6\pdl\cmsis/include/cmsis_gcc.h **** #ifndef __CMSIS_GCC_H
  26:Generated_Source\PSoC6\pdl\cmsis/include/cmsis_gcc.h **** #define __CMSIS_GCC_H
  27:Generated_Source\PSoC6\pdl\cmsis/include/cmsis_gcc.h **** 
  28:Generated_Source\PSoC6\pdl\cmsis/include/cmsis_gcc.h **** /* ignore some GCC warnings */
  29:Generated_Source\PSoC6\pdl\cmsis/include/cmsis_gcc.h **** #pragma GCC diagnostic push
  30:Generated_Source\PSoC6\pdl\cmsis/include/cmsis_gcc.h **** #pragma GCC diagnostic ignored "-Wsign-conversion"
  31:Generated_Source\PSoC6\pdl\cmsis/include/cmsis_gcc.h **** #pragma GCC diagnostic ignored "-Wconversion"
  32:Generated_Source\PSoC6\pdl\cmsis/include/cmsis_gcc.h **** #pragma GCC diagnostic ignored "-Wunused-parameter"
  33:Generated_Source\PSoC6\pdl\cmsis/include/cmsis_gcc.h **** 
  34:Generated_Source\PSoC6\pdl\cmsis/include/cmsis_gcc.h **** /* Fallback for __has_builtin */
  35:Generated_Source\PSoC6\pdl\cmsis/include/cmsis_gcc.h **** #ifndef __has_builtin
  36:Generated_Source\PSoC6\pdl\cmsis/include/cmsis_gcc.h ****   #define __has_builtin(x) (0)
  37:Generated_Source\PSoC6\pdl\cmsis/include/cmsis_gcc.h **** #endif
  38:Generated_Source\PSoC6\pdl\cmsis/include/cmsis_gcc.h **** 
  39:Generated_Source\PSoC6\pdl\cmsis/include/cmsis_gcc.h **** /* CMSIS compiler specific defines */
  40:Generated_Source\PSoC6\pdl\cmsis/include/cmsis_gcc.h **** #ifndef   __ASM
  41:Generated_Source\PSoC6\pdl\cmsis/include/cmsis_gcc.h ****   #define __ASM                                  __asm
  42:Generated_Source\PSoC6\pdl\cmsis/include/cmsis_gcc.h **** #endif
  43:Generated_Source\PSoC6\pdl\cmsis/include/cmsis_gcc.h **** #ifndef   __INLINE
  44:Generated_Source\PSoC6\pdl\cmsis/include/cmsis_gcc.h ****   #define __INLINE                               inline
  45:Generated_Source\PSoC6\pdl\cmsis/include/cmsis_gcc.h **** #endif
  46:Generated_Source\PSoC6\pdl\cmsis/include/cmsis_gcc.h **** #ifndef   __STATIC_INLINE
  47:Generated_Source\PSoC6\pdl\cmsis/include/cmsis_gcc.h ****   #define __STATIC_INLINE                        static inline
  48:Generated_Source\PSoC6\pdl\cmsis/include/cmsis_gcc.h **** #endif
  49:Generated_Source\PSoC6\pdl\cmsis/include/cmsis_gcc.h **** #ifndef   __STATIC_FORCEINLINE                 
  50:Generated_Source\PSoC6\pdl\cmsis/include/cmsis_gcc.h ****   #define __STATIC_FORCEINLINE                   __attribute__((always_inline)) static inline
  51:Generated_Source\PSoC6\pdl\cmsis/include/cmsis_gcc.h **** #endif                                           
  52:Generated_Source\PSoC6\pdl\cmsis/include/cmsis_gcc.h **** #ifndef   __NO_RETURN
  53:Generated_Source\PSoC6\pdl\cmsis/include/cmsis_gcc.h ****   #define __NO_RETURN                            __attribute__((__noreturn__))
  54:Generated_Source\PSoC6\pdl\cmsis/include/cmsis_gcc.h **** #endif
  55:Generated_Source\PSoC6\pdl\cmsis/include/cmsis_gcc.h **** #ifndef   __USED
  56:Generated_Source\PSoC6\pdl\cmsis/include/cmsis_gcc.h ****   #define __USED                                 __attribute__((used))
  57:Generated_Source\PSoC6\pdl\cmsis/include/cmsis_gcc.h **** #endif
  58:Generated_Source\PSoC6\pdl\cmsis/include/cmsis_gcc.h **** #ifndef   __WEAK
  59:Generated_Source\PSoC6\pdl\cmsis/include/cmsis_gcc.h ****   #define __WEAK                                 __attribute__((weak))
  60:Generated_Source\PSoC6\pdl\cmsis/include/cmsis_gcc.h **** #endif
  61:Generated_Source\PSoC6\pdl\cmsis/include/cmsis_gcc.h **** #ifndef   __PACKED
  62:Generated_Source\PSoC6\pdl\cmsis/include/cmsis_gcc.h ****   #define __PACKED                               __attribute__((packed, aligned(1)))
  63:Generated_Source\PSoC6\pdl\cmsis/include/cmsis_gcc.h **** #endif
  64:Generated_Source\PSoC6\pdl\cmsis/include/cmsis_gcc.h **** #ifndef   __PACKED_STRUCT
  65:Generated_Source\PSoC6\pdl\cmsis/include/cmsis_gcc.h ****   #define __PACKED_STRUCT                        struct __attribute__((packed, aligned(1)))
  66:Generated_Source\PSoC6\pdl\cmsis/include/cmsis_gcc.h **** #endif
  67:Generated_Source\PSoC6\pdl\cmsis/include/cmsis_gcc.h **** #ifndef   __PACKED_UNION
ARM GAS  C:\Users\ISAKVO~1\AppData\Local\Temp\ccR1W42h.s 			page 3


  68:Generated_Source\PSoC6\pdl\cmsis/include/cmsis_gcc.h ****   #define __PACKED_UNION                         union __attribute__((packed, aligned(1)))
  69:Generated_Source\PSoC6\pdl\cmsis/include/cmsis_gcc.h **** #endif
  70:Generated_Source\PSoC6\pdl\cmsis/include/cmsis_gcc.h **** #ifndef   __UNALIGNED_UINT32        /* deprecated */
  71:Generated_Source\PSoC6\pdl\cmsis/include/cmsis_gcc.h ****   #pragma GCC diagnostic push
  72:Generated_Source\PSoC6\pdl\cmsis/include/cmsis_gcc.h ****   #pragma GCC diagnostic ignored "-Wpacked"
  73:Generated_Source\PSoC6\pdl\cmsis/include/cmsis_gcc.h ****   #pragma GCC diagnostic ignored "-Wattributes"
  74:Generated_Source\PSoC6\pdl\cmsis/include/cmsis_gcc.h ****   struct __attribute__((packed)) T_UINT32 { uint32_t v; };
  75:Generated_Source\PSoC6\pdl\cmsis/include/cmsis_gcc.h ****   #pragma GCC diagnostic pop
  76:Generated_Source\PSoC6\pdl\cmsis/include/cmsis_gcc.h ****   #define __UNALIGNED_UINT32(x)                  (((struct T_UINT32 *)(x))->v)
  77:Generated_Source\PSoC6\pdl\cmsis/include/cmsis_gcc.h **** #endif
  78:Generated_Source\PSoC6\pdl\cmsis/include/cmsis_gcc.h **** #ifndef   __UNALIGNED_UINT16_WRITE
  79:Generated_Source\PSoC6\pdl\cmsis/include/cmsis_gcc.h ****   #pragma GCC diagnostic push
  80:Generated_Source\PSoC6\pdl\cmsis/include/cmsis_gcc.h ****   #pragma GCC diagnostic ignored "-Wpacked"
  81:Generated_Source\PSoC6\pdl\cmsis/include/cmsis_gcc.h ****   #pragma GCC diagnostic ignored "-Wattributes"
  82:Generated_Source\PSoC6\pdl\cmsis/include/cmsis_gcc.h ****   __PACKED_STRUCT T_UINT16_WRITE { uint16_t v; };
  83:Generated_Source\PSoC6\pdl\cmsis/include/cmsis_gcc.h ****   #pragma GCC diagnostic pop
  84:Generated_Source\PSoC6\pdl\cmsis/include/cmsis_gcc.h ****   #define __UNALIGNED_UINT16_WRITE(addr, val)    (void)((((struct T_UINT16_WRITE *)(void *)(addr))-
  85:Generated_Source\PSoC6\pdl\cmsis/include/cmsis_gcc.h **** #endif
  86:Generated_Source\PSoC6\pdl\cmsis/include/cmsis_gcc.h **** #ifndef   __UNALIGNED_UINT16_READ
  87:Generated_Source\PSoC6\pdl\cmsis/include/cmsis_gcc.h ****   #pragma GCC diagnostic push
  88:Generated_Source\PSoC6\pdl\cmsis/include/cmsis_gcc.h ****   #pragma GCC diagnostic ignored "-Wpacked"
  89:Generated_Source\PSoC6\pdl\cmsis/include/cmsis_gcc.h ****   #pragma GCC diagnostic ignored "-Wattributes"
  90:Generated_Source\PSoC6\pdl\cmsis/include/cmsis_gcc.h ****   __PACKED_STRUCT T_UINT16_READ { uint16_t v; };
  91:Generated_Source\PSoC6\pdl\cmsis/include/cmsis_gcc.h ****   #pragma GCC diagnostic pop
  92:Generated_Source\PSoC6\pdl\cmsis/include/cmsis_gcc.h ****   #define __UNALIGNED_UINT16_READ(addr)          (((const struct T_UINT16_READ *)(const void *)(add
  93:Generated_Source\PSoC6\pdl\cmsis/include/cmsis_gcc.h **** #endif
  94:Generated_Source\PSoC6\pdl\cmsis/include/cmsis_gcc.h **** #ifndef   __UNALIGNED_UINT32_WRITE
  95:Generated_Source\PSoC6\pdl\cmsis/include/cmsis_gcc.h ****   #pragma GCC diagnostic push
  96:Generated_Source\PSoC6\pdl\cmsis/include/cmsis_gcc.h ****   #pragma GCC diagnostic ignored "-Wpacked"
  97:Generated_Source\PSoC6\pdl\cmsis/include/cmsis_gcc.h ****   #pragma GCC diagnostic ignored "-Wattributes"
  98:Generated_Source\PSoC6\pdl\cmsis/include/cmsis_gcc.h ****   __PACKED_STRUCT T_UINT32_WRITE { uint32_t v; };
  99:Generated_Source\PSoC6\pdl\cmsis/include/cmsis_gcc.h ****   #pragma GCC diagnostic pop
 100:Generated_Source\PSoC6\pdl\cmsis/include/cmsis_gcc.h ****   #define __UNALIGNED_UINT32_WRITE(addr, val)    (void)((((struct T_UINT32_WRITE *)(void *)(addr))-
 101:Generated_Source\PSoC6\pdl\cmsis/include/cmsis_gcc.h **** #endif
 102:Generated_Source\PSoC6\pdl\cmsis/include/cmsis_gcc.h **** #ifndef   __UNALIGNED_UINT32_READ
 103:Generated_Source\PSoC6\pdl\cmsis/include/cmsis_gcc.h ****   #pragma GCC diagnostic push
 104:Generated_Source\PSoC6\pdl\cmsis/include/cmsis_gcc.h ****   #pragma GCC diagnostic ignored "-Wpacked"
 105:Generated_Source\PSoC6\pdl\cmsis/include/cmsis_gcc.h ****   #pragma GCC diagnostic ignored "-Wattributes"
 106:Generated_Source\PSoC6\pdl\cmsis/include/cmsis_gcc.h ****   __PACKED_STRUCT T_UINT32_READ { uint32_t v; };
 107:Generated_Source\PSoC6\pdl\cmsis/include/cmsis_gcc.h ****   #pragma GCC diagnostic pop
 108:Generated_Source\PSoC6\pdl\cmsis/include/cmsis_gcc.h ****   #define __UNALIGNED_UINT32_READ(addr)          (((const struct T_UINT32_READ *)(const void *)(add
 109:Generated_Source\PSoC6\pdl\cmsis/include/cmsis_gcc.h **** #endif
 110:Generated_Source\PSoC6\pdl\cmsis/include/cmsis_gcc.h **** #ifndef   __ALIGNED
 111:Generated_Source\PSoC6\pdl\cmsis/include/cmsis_gcc.h ****   #define __ALIGNED(x)                           __attribute__((aligned(x)))
 112:Generated_Source\PSoC6\pdl\cmsis/include/cmsis_gcc.h **** #endif
 113:Generated_Source\PSoC6\pdl\cmsis/include/cmsis_gcc.h **** #ifndef   __RESTRICT
 114:Generated_Source\PSoC6\pdl\cmsis/include/cmsis_gcc.h ****   #define __RESTRICT                             __restrict
 115:Generated_Source\PSoC6\pdl\cmsis/include/cmsis_gcc.h **** #endif
 116:Generated_Source\PSoC6\pdl\cmsis/include/cmsis_gcc.h **** 
 117:Generated_Source\PSoC6\pdl\cmsis/include/cmsis_gcc.h **** 
 118:Generated_Source\PSoC6\pdl\cmsis/include/cmsis_gcc.h **** /* ###########################  Core Function Access  ########################### */
 119:Generated_Source\PSoC6\pdl\cmsis/include/cmsis_gcc.h **** /** \ingroup  CMSIS_Core_FunctionInterface
 120:Generated_Source\PSoC6\pdl\cmsis/include/cmsis_gcc.h ****     \defgroup CMSIS_Core_RegAccFunctions CMSIS Core Register Access Functions
 121:Generated_Source\PSoC6\pdl\cmsis/include/cmsis_gcc.h ****   @{
 122:Generated_Source\PSoC6\pdl\cmsis/include/cmsis_gcc.h ****  */
 123:Generated_Source\PSoC6\pdl\cmsis/include/cmsis_gcc.h **** 
 124:Generated_Source\PSoC6\pdl\cmsis/include/cmsis_gcc.h **** /**
ARM GAS  C:\Users\ISAKVO~1\AppData\Local\Temp\ccR1W42h.s 			page 4


 125:Generated_Source\PSoC6\pdl\cmsis/include/cmsis_gcc.h ****   \brief   Enable IRQ Interrupts
 126:Generated_Source\PSoC6\pdl\cmsis/include/cmsis_gcc.h ****   \details Enables IRQ interrupts by clearing the I-bit in the CPSR.
 127:Generated_Source\PSoC6\pdl\cmsis/include/cmsis_gcc.h ****            Can only be executed in Privileged modes.
 128:Generated_Source\PSoC6\pdl\cmsis/include/cmsis_gcc.h ****  */
 129:Generated_Source\PSoC6\pdl\cmsis/include/cmsis_gcc.h **** __STATIC_FORCEINLINE void __enable_irq(void)
 130:Generated_Source\PSoC6\pdl\cmsis/include/cmsis_gcc.h **** {
 131:Generated_Source\PSoC6\pdl\cmsis/include/cmsis_gcc.h ****   __ASM volatile ("cpsie i" : : : "memory");
  41              		.loc 2 131 0
  42              		.syntax unified
  43              	@ 131 "Generated_Source\PSoC6\pdl\cmsis/include/cmsis_gcc.h" 1
  44 0002 62B6     		cpsie i
  45              	@ 0 "" 2
  46              		.thumb
  47              		.syntax unified
  48              	.LBE148:
  49              	.LBE147:
  50              	.LBB149:
  51              	.LBB150:
  52              	.LBB151:
  53              		.file 3 "communication.h"
   1:communication.h **** #ifndef COMMUNICATION_H
   2:communication.h **** #define COMMUNICATION_H
   3:communication.h ****     
   4:communication.h **** #include <stdio.h>
   5:communication.h **** #include <string.h>
   6:communication.h ****     
   7:communication.h **** #include "project.h"
   8:communication.h **** #include "types.h"
   9:communication.h **** #include "constants.h"
  10:communication.h ****     
  11:communication.h **** static u8 communication_receive_buffer[RECEIVE_BUFFER_LENGTH];
  12:communication.h **** static u8 communication_send_buffer[SEND_BUFFER_LENGTH];
  13:communication.h **** 
  14:communication.h **** static inline void communication_start(void)
  15:communication.h **** {
  16:communication.h ****     UART_Start();
  54              		.loc 3 16 0
  55 0004 FFF7FEFF 		bl	UART_Start
  56              	.LVL0:
  17:communication.h ****     setvbuf(stdin, NULL, _IONBF, 0);
  57              		.loc 3 17 0
  58 0008 AD4B     		ldr	r3, .L81
  59 000a 1868     		ldr	r0, [r3]
  60 000c 0023     		movs	r3, #0
  61 000e 0222     		movs	r2, #2
  62 0010 1946     		mov	r1, r3
  63 0012 4068     		ldr	r0, [r0, #4]
  64 0014 FFF7FEFF 		bl	setvbuf
  65              	.LVL1:
  66              	.LBE151:
  67              	.LBE150:
  68              	.LBB152:
  69              	.LBB153:
  70              		.file 4 "game.h"
   1:game.h        **** #ifndef GAME_H
   2:game.h        **** #define GAME_H
   3:game.h        ****     
ARM GAS  C:\Users\ISAKVO~1\AppData\Local\Temp\ccR1W42h.s 			page 5


   4:game.h        **** #include <stdio.h>
   5:game.h        **** #include <stdlib.h>
   6:game.h        ****     
   7:game.h        **** #include "project.h"    
   8:game.h        **** 
   9:game.h        **** #include "types.h"
  10:game.h        **** #include "constants.h"
  11:game.h        **** #include "communication.h"
  12:game.h        **** 
  13:game.h        **** static u8 game_running = 1u;
  14:game.h        **** static u8 man_turn = 1u;
  15:game.h        ****     
  16:game.h        **** static u8 figures[CELLS_NUMBER * CELLS_NUMBER];
  17:game.h        **** static game_type type = UNKNOWN;
  18:game.h        **** 
  19:game.h        **** static u8 game_packet[GAME_TYPE_PACKET_LENGTH];
  20:game.h        **** static u8 man_vs_man_packet[GAME_TYPE_PACKET_LENGTH];
  21:game.h        **** static u8 man_vs_ai_packet[GAME_TYPE_PACKET_LENGTH];
  22:game.h        **** static u8 ai_vs_ai_packet[GAME_TYPE_PACKET_LENGTH];
  23:game.h        **** static u8 reset_packet[GAME_TYPE_PACKET_LENGTH];
  24:game.h        **** 
  25:game.h        **** static u8 win_packet[CELLS_NUMBER * CELLS_NUMBER];
  26:game.h        **** static u8 ack_packet[CELLS_NUMBER * CELLS_NUMBER];
  27:game.h        **** 
  28:game.h        **** 
  29:game.h        **** static inline void clear_board(void)
  30:game.h        **** {
  31:game.h        ****     for (u8 i = 0u; i < CELLS_NUMBER; i++)
  71              		.loc 4 31 0
  72 0018 0023     		movs	r3, #0
  73 001a 0DE0     		b	.L2
  74              	.LVL2:
  75              	.L3:
  76              	.LBB154:
  32:game.h        ****         for (u8 j = 0u; j < CELLS_NUMBER; j++)
  33:game.h        ****         {
  34:game.h        ****             figures[i * CELLS_NUMBER + j] = EMPTY;
  77              		.loc 4 34 0
  78 001c 03EB4301 		add	r1, r3, r3, lsl #1
  79 0020 1144     		add	r1, r1, r2
  80 0022 FF24     		movs	r4, #255
  81 0024 A748     		ldr	r0, .L81+4
  82 0026 4454     		strb	r4, [r0, r1]
  32:game.h        ****         for (u8 j = 0u; j < CELLS_NUMBER; j++)
  83              		.loc 4 32 0
  84 0028 0132     		adds	r2, r2, #1
  85              	.LVL3:
  86 002a D2B2     		uxtb	r2, r2
  87              	.LVL4:
  88 002c 00E0     		b	.L4
  89              	.LVL5:
  90              	.L70:
  91              	.LBE154:
  31:game.h        ****         for (u8 j = 0u; j < CELLS_NUMBER; j++)
  92              		.loc 4 31 0
  93 002e 0022     		movs	r2, #0
  94              	.L4:
ARM GAS  C:\Users\ISAKVO~1\AppData\Local\Temp\ccR1W42h.s 			page 6


  95              	.LVL6:
  96              	.LBB155:
  32:game.h        ****         for (u8 j = 0u; j < CELLS_NUMBER; j++)
  97              		.loc 4 32 0
  98 0030 022A     		cmp	r2, #2
  99 0032 F3D9     		bls	.L3
 100              	.LBE155:
  31:game.h        ****         for (u8 j = 0u; j < CELLS_NUMBER; j++)
 101              		.loc 4 31 0
 102 0034 0133     		adds	r3, r3, #1
 103              	.LVL7:
 104 0036 DBB2     		uxtb	r3, r3
 105              	.LVL8:
 106              	.L2:
 107 0038 022B     		cmp	r3, #2
 108 003a F8D9     		bls	.L70
 109 003c 0023     		movs	r3, #0
 110              	.LVL9:
 111 003e 05E0     		b	.L5
 112              	.LVL10:
 113              	.L6:
 114              	.LBE153:
 115              	.LBE152:
 116              	.LBB156:
 117              	.LBB157:
  35:game.h        ****         }
  36:game.h        **** }
  37:game.h        **** 
  38:game.h        **** static inline void set_figure(u8 x, u8 y)
  39:game.h        **** {
  40:game.h        ****     static u8 figure_index = 0u;
  41:game.h        ****     
  42:game.h        ****     if (figures[x * CELLS_NUMBER + y] == EMPTY)
  43:game.h        ****     {
  44:game.h        ****         figures[x * CELLS_NUMBER + y] = figure_index;
  45:game.h        ****         figure_index = !figure_index;
  46:game.h        ****     }
  47:game.h        **** }
  48:game.h        **** 
  49:game.h        **** static inline void init_packets(void)
  50:game.h        **** {
  51:game.h        ****     for (u8 index = 0u; index < CELLS_NUMBER * CELLS_NUMBER; index++)
  52:game.h        ****     {
  53:game.h        ****         ack_packet[index] = ACK_PACKET_VALUE;
  54:game.h        ****         win_packet[index] = NO_WINNER_PACKET_VALUE;
 118              		.loc 4 54 0
 119 0040 A04A     		ldr	r2, .L81+4
 120 0042 1A44     		add	r2, r2, r3
 121 0044 2221     		movs	r1, #34
 122 0046 1173     		strb	r1, [r2, #12]
  51:game.h        ****     {
 123              		.loc 4 51 0
 124 0048 0133     		adds	r3, r3, #1
 125              	.LVL11:
 126 004a DBB2     		uxtb	r3, r3
 127              	.LVL12:
 128              	.L5:
ARM GAS  C:\Users\ISAKVO~1\AppData\Local\Temp\ccR1W42h.s 			page 7


 129 004c 082B     		cmp	r3, #8
 130 004e F7D9     		bls	.L6
 131 0050 0022     		movs	r2, #0
 132 0052 10E0     		b	.L7
 133              	.LVL13:
 134              	.L8:
 135              	.LBE157:
 136              	.LBB158:
  55:game.h        ****     }
  56:game.h        ****     
  57:game.h        ****     for (u8 index = 0u; index < GAME_TYPE_PACKET_LENGTH; index++)
  58:game.h        ****     {
  59:game.h        ****         game_packet[index] = UNKNOWN_PACKET_VALUE;
 137              		.loc 4 59 0
 138 0054 9B4B     		ldr	r3, .L81+4
 139 0056 1344     		add	r3, r3, r2
 140 0058 AA21     		movs	r1, #170
 141 005a 1976     		strb	r1, [r3, #24]
  60:game.h        ****         man_vs_man_packet[index] = MAN_VS_MAN_PACKET_VALUE;
 142              		.loc 4 60 0
 143 005c BB21     		movs	r1, #187
 144 005e 1977     		strb	r1, [r3, #28]
  61:game.h        ****         man_vs_ai_packet[index] = MAN_VS_AI_PACKET_VALUE;
 145              		.loc 4 61 0
 146 0060 CC21     		movs	r1, #204
 147 0062 83F82010 		strb	r1, [r3, #32]
  62:game.h        ****         ai_vs_ai_packet[index] = AI_VS_AI_PACKET_VALUE;
 148              		.loc 4 62 0
 149 0066 DD21     		movs	r1, #221
 150 0068 83F82410 		strb	r1, [r3, #36]
  63:game.h        ****         reset_packet[index] = RESET_PACKET_VALUE;
 151              		.loc 4 63 0
 152 006c 9921     		movs	r1, #153
 153 006e 83F82810 		strb	r1, [r3, #40]
  57:game.h        ****     {
 154              		.loc 4 57 0
 155 0072 0132     		adds	r2, r2, #1
 156              	.LVL14:
 157 0074 D2B2     		uxtb	r2, r2
 158              	.LVL15:
 159              	.L7:
 160 0076 012A     		cmp	r2, #1
 161 0078 ECD9     		bls	.L8
 162              	.LBE158:
 163              	.LBE156:
 164              	.LBB159:
 165              	.LBB160:
  64:game.h        ****     }
  65:game.h        **** }
  66:game.h        **** 
  67:game.h        **** static inline void send_ack(u8 *packet)
  68:game.h        **** {   
  69:game.h        ****     return;
  70:game.h        ****     
  71:game.h        ****     send_message(ack_packet, CELLS_NUMBER * CELLS_NUMBER);
  72:game.h        ****     receive_message(game_packet, GAME_TYPE_PACKET_LENGTH);
  73:game.h        ****     
ARM GAS  C:\Users\ISAKVO~1\AppData\Local\Temp\ccR1W42h.s 			page 8


  74:game.h        ****     while (memcmp(game_packet, packet, GAME_TYPE_PACKET_LENGTH) == 0)
  75:game.h        ****     {
  76:game.h        ****         send_message(ack_packet, CELLS_NUMBER * CELLS_NUMBER);
  77:game.h        ****         receive_message(game_packet, GAME_TYPE_PACKET_LENGTH);
  78:game.h        ****     }
  79:game.h        **** }
  80:game.h        **** 
  81:game.h        **** static inline void recieve_game_type(void)
  82:game.h        **** {
  83:game.h        ****     u8 recieved = FALSE;
 166              		.loc 4 83 0
 167 007a 0024     		movs	r4, #0
 168 007c 47E0     		b	.L9
 169              	.LVL16:
 170              	.L16:
 171              	.LBB161:
 172              	.LBB162:
 173              	.LBB163:
 174              	.LBB164:
 175              	.LBB165:
 176              		.file 5 "Generated_Source\\PSoC6\\pdl\\drivers/peripheral/scb/cy_scb_uart.h"
   1:Generated_Source\PSoC6\pdl\drivers/peripheral/scb/cy_scb_uart.h **** /***************************************************************************//**
   2:Generated_Source\PSoC6\pdl\drivers/peripheral/scb/cy_scb_uart.h **** * \file cy_scb_uart.h
   3:Generated_Source\PSoC6\pdl\drivers/peripheral/scb/cy_scb_uart.h **** * \version 2.20
   4:Generated_Source\PSoC6\pdl\drivers/peripheral/scb/cy_scb_uart.h **** *
   5:Generated_Source\PSoC6\pdl\drivers/peripheral/scb/cy_scb_uart.h **** * Provides UART API declarations of the SCB driver.
   6:Generated_Source\PSoC6\pdl\drivers/peripheral/scb/cy_scb_uart.h **** *
   7:Generated_Source\PSoC6\pdl\drivers/peripheral/scb/cy_scb_uart.h **** ********************************************************************************
   8:Generated_Source\PSoC6\pdl\drivers/peripheral/scb/cy_scb_uart.h **** * \copyright
   9:Generated_Source\PSoC6\pdl\drivers/peripheral/scb/cy_scb_uart.h **** * Copyright 2016-2018, Cypress Semiconductor Corporation.  All rights reserved.
  10:Generated_Source\PSoC6\pdl\drivers/peripheral/scb/cy_scb_uart.h **** * You may use this file only in accordance with the license, terms, conditions,
  11:Generated_Source\PSoC6\pdl\drivers/peripheral/scb/cy_scb_uart.h **** * disclaimers, and limitations in the end user license agreement accompanying
  12:Generated_Source\PSoC6\pdl\drivers/peripheral/scb/cy_scb_uart.h **** * the software package with which this file was provided.
  13:Generated_Source\PSoC6\pdl\drivers/peripheral/scb/cy_scb_uart.h **** *******************************************************************************/
  14:Generated_Source\PSoC6\pdl\drivers/peripheral/scb/cy_scb_uart.h **** 
  15:Generated_Source\PSoC6\pdl\drivers/peripheral/scb/cy_scb_uart.h **** /**
  16:Generated_Source\PSoC6\pdl\drivers/peripheral/scb/cy_scb_uart.h **** * \addtogroup group_scb_uart
  17:Generated_Source\PSoC6\pdl\drivers/peripheral/scb/cy_scb_uart.h **** * \{
  18:Generated_Source\PSoC6\pdl\drivers/peripheral/scb/cy_scb_uart.h **** * Driver API for UART
  19:Generated_Source\PSoC6\pdl\drivers/peripheral/scb/cy_scb_uart.h **** *
  20:Generated_Source\PSoC6\pdl\drivers/peripheral/scb/cy_scb_uart.h **** * The functions and other declarations used in this part of the driver are in 
  21:Generated_Source\PSoC6\pdl\drivers/peripheral/scb/cy_scb_uart.h **** * cy_scb_uart.h. You can also include cy_pdl.h (ModusToolbox only) to get access 
  22:Generated_Source\PSoC6\pdl\drivers/peripheral/scb/cy_scb_uart.h **** * to all functions and declarations in the PDL.
  23:Generated_Source\PSoC6\pdl\drivers/peripheral/scb/cy_scb_uart.h **** *
  24:Generated_Source\PSoC6\pdl\drivers/peripheral/scb/cy_scb_uart.h **** * The Universal Asynchronous Receiver/Transmitter (UART) protocol is an 
  25:Generated_Source\PSoC6\pdl\drivers/peripheral/scb/cy_scb_uart.h **** * asynchronous serial interface protocol. UART communication is typically 
  26:Generated_Source\PSoC6\pdl\drivers/peripheral/scb/cy_scb_uart.h **** * point-to-point. The UART interface consists of two signals:
  27:Generated_Source\PSoC6\pdl\drivers/peripheral/scb/cy_scb_uart.h **** * * TX: Transmitter output
  28:Generated_Source\PSoC6\pdl\drivers/peripheral/scb/cy_scb_uart.h **** * * RX: Receiver input
  29:Generated_Source\PSoC6\pdl\drivers/peripheral/scb/cy_scb_uart.h **** *
  30:Generated_Source\PSoC6\pdl\drivers/peripheral/scb/cy_scb_uart.h **** * Additionally, two side-band signals are used to implement flow control in 
  31:Generated_Source\PSoC6\pdl\drivers/peripheral/scb/cy_scb_uart.h **** * UART. Note that the flow control applies only to TX functionality.
  32:Generated_Source\PSoC6\pdl\drivers/peripheral/scb/cy_scb_uart.h **** * * Clear to Send (CTS): This is an input signal to the transmitter. 
  33:Generated_Source\PSoC6\pdl\drivers/peripheral/scb/cy_scb_uart.h **** *   When active, it indicates that the slave is ready for the master to 
  34:Generated_Source\PSoC6\pdl\drivers/peripheral/scb/cy_scb_uart.h **** *   transmit data.
  35:Generated_Source\PSoC6\pdl\drivers/peripheral/scb/cy_scb_uart.h **** * * Ready to Send (RTS): This is an output signal from the receiver. When 
  36:Generated_Source\PSoC6\pdl\drivers/peripheral/scb/cy_scb_uart.h **** *   active, it indicates that the receiver is ready to receive data
ARM GAS  C:\Users\ISAKVO~1\AppData\Local\Temp\ccR1W42h.s 			page 9


  37:Generated_Source\PSoC6\pdl\drivers/peripheral/scb/cy_scb_uart.h **** *
  38:Generated_Source\PSoC6\pdl\drivers/peripheral/scb/cy_scb_uart.h **** * Features:
  39:Generated_Source\PSoC6\pdl\drivers/peripheral/scb/cy_scb_uart.h **** * * Supports UART protocol
  40:Generated_Source\PSoC6\pdl\drivers/peripheral/scb/cy_scb_uart.h **** *   * Standard UART
  41:Generated_Source\PSoC6\pdl\drivers/peripheral/scb/cy_scb_uart.h **** *   * Multi-processor mode
  42:Generated_Source\PSoC6\pdl\drivers/peripheral/scb/cy_scb_uart.h **** * * SmartCard (ISO7816) reader
  43:Generated_Source\PSoC6\pdl\drivers/peripheral/scb/cy_scb_uart.h **** * * IrDA
  44:Generated_Source\PSoC6\pdl\drivers/peripheral/scb/cy_scb_uart.h **** * * Data frame size programmable from 4 to 16 bits
  45:Generated_Source\PSoC6\pdl\drivers/peripheral/scb/cy_scb_uart.h **** * * Programmable number of STOP bits, which can be set in terms of half bit 
  46:Generated_Source\PSoC6\pdl\drivers/peripheral/scb/cy_scb_uart.h **** *   periods between 1 and 4
  47:Generated_Source\PSoC6\pdl\drivers/peripheral/scb/cy_scb_uart.h **** * * Parity support (odd and even parity)
  48:Generated_Source\PSoC6\pdl\drivers/peripheral/scb/cy_scb_uart.h **** * * Median filter on Rx input
  49:Generated_Source\PSoC6\pdl\drivers/peripheral/scb/cy_scb_uart.h **** * * Programmable oversampling
  50:Generated_Source\PSoC6\pdl\drivers/peripheral/scb/cy_scb_uart.h **** * * Start skipping
  51:Generated_Source\PSoC6\pdl\drivers/peripheral/scb/cy_scb_uart.h **** *
  52:Generated_Source\PSoC6\pdl\drivers/peripheral/scb/cy_scb_uart.h **** ********************************************************************************
  53:Generated_Source\PSoC6\pdl\drivers/peripheral/scb/cy_scb_uart.h **** * \section group_scb_uart_configuration Configuration Considerations
  54:Generated_Source\PSoC6\pdl\drivers/peripheral/scb/cy_scb_uart.h **** ********************************************************************************
  55:Generated_Source\PSoC6\pdl\drivers/peripheral/scb/cy_scb_uart.h **** * The UART driver configuration can be divided to number of sequential
  56:Generated_Source\PSoC6\pdl\drivers/peripheral/scb/cy_scb_uart.h **** * steps listed below:
  57:Generated_Source\PSoC6\pdl\drivers/peripheral/scb/cy_scb_uart.h **** * * \ref group_scb_uart_config
  58:Generated_Source\PSoC6\pdl\drivers/peripheral/scb/cy_scb_uart.h **** * * \ref group_scb_uart_pins
  59:Generated_Source\PSoC6\pdl\drivers/peripheral/scb/cy_scb_uart.h **** * * \ref group_scb_uart_clock
  60:Generated_Source\PSoC6\pdl\drivers/peripheral/scb/cy_scb_uart.h **** * * \ref group_scb_uart_data_rate
  61:Generated_Source\PSoC6\pdl\drivers/peripheral/scb/cy_scb_uart.h **** * * \ref group_scb_uart_intr
  62:Generated_Source\PSoC6\pdl\drivers/peripheral/scb/cy_scb_uart.h **** * * \ref group_scb_uart_enable
  63:Generated_Source\PSoC6\pdl\drivers/peripheral/scb/cy_scb_uart.h **** *
  64:Generated_Source\PSoC6\pdl\drivers/peripheral/scb/cy_scb_uart.h **** * \note
  65:Generated_Source\PSoC6\pdl\drivers/peripheral/scb/cy_scb_uart.h **** * UART driver is built on top of the SCB hardware block. The SCB5 instance is
  66:Generated_Source\PSoC6\pdl\drivers/peripheral/scb/cy_scb_uart.h **** * used as an example for all code snippets. Modify the code to match your
  67:Generated_Source\PSoC6\pdl\drivers/peripheral/scb/cy_scb_uart.h **** * design.
  68:Generated_Source\PSoC6\pdl\drivers/peripheral/scb/cy_scb_uart.h **** *
  69:Generated_Source\PSoC6\pdl\drivers/peripheral/scb/cy_scb_uart.h **** ********************************************************************************
  70:Generated_Source\PSoC6\pdl\drivers/peripheral/scb/cy_scb_uart.h **** * \subsection group_scb_uart_config Configure UART
  71:Generated_Source\PSoC6\pdl\drivers/peripheral/scb/cy_scb_uart.h **** ********************************************************************************
  72:Generated_Source\PSoC6\pdl\drivers/peripheral/scb/cy_scb_uart.h **** * To set up the UART driver, provide the configuration parameters in the
  73:Generated_Source\PSoC6\pdl\drivers/peripheral/scb/cy_scb_uart.h **** * \ref cy_stc_scb_uart_config_t structure. For example: provide uartMode,
  74:Generated_Source\PSoC6\pdl\drivers/peripheral/scb/cy_scb_uart.h **** * oversample, dataWidth, enableMsbFirst, parity, and stopBits. The other
  75:Generated_Source\PSoC6\pdl\drivers/peripheral/scb/cy_scb_uart.h **** * parameters are optional. To initialize the driver, call \ref Cy_SCB_UART_Init 
  76:Generated_Source\PSoC6\pdl\drivers/peripheral/scb/cy_scb_uart.h **** * function providing a pointer to the populated \ref cy_stc_scb_uart_config_t 
  77:Generated_Source\PSoC6\pdl\drivers/peripheral/scb/cy_scb_uart.h **** * structure and the allocated \ref cy_stc_scb_uart_context_t structure.
  78:Generated_Source\PSoC6\pdl\drivers/peripheral/scb/cy_scb_uart.h **** *
  79:Generated_Source\PSoC6\pdl\drivers/peripheral/scb/cy_scb_uart.h **** * \snippet SCB_CompDatasheet_sut_01_revA.cydsn\uart_snippets.c UART_CFG
  80:Generated_Source\PSoC6\pdl\drivers/peripheral/scb/cy_scb_uart.h **** *
  81:Generated_Source\PSoC6\pdl\drivers/peripheral/scb/cy_scb_uart.h **** ********************************************************************************
  82:Generated_Source\PSoC6\pdl\drivers/peripheral/scb/cy_scb_uart.h **** * \subsection group_scb_uart_pins Assign and Configure Pins
  83:Generated_Source\PSoC6\pdl\drivers/peripheral/scb/cy_scb_uart.h **** ********************************************************************************
  84:Generated_Source\PSoC6\pdl\drivers/peripheral/scb/cy_scb_uart.h **** * Only dedicated SCB pins can be used for UART operation. The HSIOM
  85:Generated_Source\PSoC6\pdl\drivers/peripheral/scb/cy_scb_uart.h **** * register must be configured to connect dedicated SCB UART pins to the 
  86:Generated_Source\PSoC6\pdl\drivers/peripheral/scb/cy_scb_uart.h **** * SCB block. Also, the UART output pins must be configured in Strong Drive 
  87:Generated_Source\PSoC6\pdl\drivers/peripheral/scb/cy_scb_uart.h **** * Input Off mode and UART input pins in Digital High-Z:
  88:Generated_Source\PSoC6\pdl\drivers/peripheral/scb/cy_scb_uart.h **** *
  89:Generated_Source\PSoC6\pdl\drivers/peripheral/scb/cy_scb_uart.h **** * \snippet SCB_CompDatasheet_sut_01_revA.cydsn\uart_snippets.c UART_CFG_PINS
  90:Generated_Source\PSoC6\pdl\drivers/peripheral/scb/cy_scb_uart.h **** *
  91:Generated_Source\PSoC6\pdl\drivers/peripheral/scb/cy_scb_uart.h **** ********************************************************************************
  92:Generated_Source\PSoC6\pdl\drivers/peripheral/scb/cy_scb_uart.h **** * \subsection group_scb_uart_clock Assign Clock Divider
  93:Generated_Source\PSoC6\pdl\drivers/peripheral/scb/cy_scb_uart.h **** ********************************************************************************
ARM GAS  C:\Users\ISAKVO~1\AppData\Local\Temp\ccR1W42h.s 			page 10


  94:Generated_Source\PSoC6\pdl\drivers/peripheral/scb/cy_scb_uart.h **** * A clock source must be connected to the SCB block to oversample input and
  95:Generated_Source\PSoC6\pdl\drivers/peripheral/scb/cy_scb_uart.h **** * output signals, in this document this clock will be referred as clk_scb.
  96:Generated_Source\PSoC6\pdl\drivers/peripheral/scb/cy_scb_uart.h **** * You must use one of available integer or fractional dividers. Use the 
  97:Generated_Source\PSoC6\pdl\drivers/peripheral/scb/cy_scb_uart.h **** * \ref group_sysclk driver API to do this.
  98:Generated_Source\PSoC6\pdl\drivers/peripheral/scb/cy_scb_uart.h **** *
  99:Generated_Source\PSoC6\pdl\drivers/peripheral/scb/cy_scb_uart.h **** * \snippet SCB_CompDatasheet_sut_01_revA.cydsn\uart_snippets.c UART_CFG_ASSIGN_CLOCK
 100:Generated_Source\PSoC6\pdl\drivers/peripheral/scb/cy_scb_uart.h **** *
 101:Generated_Source\PSoC6\pdl\drivers/peripheral/scb/cy_scb_uart.h **** ********************************************************************************
 102:Generated_Source\PSoC6\pdl\drivers/peripheral/scb/cy_scb_uart.h **** * \subsection group_scb_uart_data_rate Configure Baud Rate
 103:Generated_Source\PSoC6\pdl\drivers/peripheral/scb/cy_scb_uart.h **** ********************************************************************************
 104:Generated_Source\PSoC6\pdl\drivers/peripheral/scb/cy_scb_uart.h **** * To get the UART to operate with the desired baud rate, the clk_scb frequency
 105:Generated_Source\PSoC6\pdl\drivers/peripheral/scb/cy_scb_uart.h **** * and the oversample must be configured. Use the \ref group_sysclk driver API
 106:Generated_Source\PSoC6\pdl\drivers/peripheral/scb/cy_scb_uart.h **** * to configure clk_scb frequency. Set the <em><b>oversample parameter
 107:Generated_Source\PSoC6\pdl\drivers/peripheral/scb/cy_scb_uart.h **** * in configuration structure</b></em> to define the number of the SCB clocks
 108:Generated_Source\PSoC6\pdl\drivers/peripheral/scb/cy_scb_uart.h **** * within one UART bit-time.
 109:Generated_Source\PSoC6\pdl\drivers/peripheral/scb/cy_scb_uart.h **** *
 110:Generated_Source\PSoC6\pdl\drivers/peripheral/scb/cy_scb_uart.h **** * \snippet SCB_CompDatasheet_sut_01_revA.cydsn\uart_snippets.c UART_CFG_DATA_RATE
 111:Generated_Source\PSoC6\pdl\drivers/peripheral/scb/cy_scb_uart.h **** *
 112:Generated_Source\PSoC6\pdl\drivers/peripheral/scb/cy_scb_uart.h **** * <b>Refer to the technical reference manual (TRM) section UART sub-section
 113:Generated_Source\PSoC6\pdl\drivers/peripheral/scb/cy_scb_uart.h **** * Clocking and Oversampling to get information about how to configure the UART to run with
 114:Generated_Source\PSoC6\pdl\drivers/peripheral/scb/cy_scb_uart.h **** * desired baud rate.</b>
 115:Generated_Source\PSoC6\pdl\drivers/peripheral/scb/cy_scb_uart.h **** *
 116:Generated_Source\PSoC6\pdl\drivers/peripheral/scb/cy_scb_uart.h **** ********************************************************************************
 117:Generated_Source\PSoC6\pdl\drivers/peripheral/scb/cy_scb_uart.h **** * \subsection group_scb_uart_intr Configure Interrupt
 118:Generated_Source\PSoC6\pdl\drivers/peripheral/scb/cy_scb_uart.h **** ********************************************************************************
 119:Generated_Source\PSoC6\pdl\drivers/peripheral/scb/cy_scb_uart.h **** * The interrupt is optional for the UART operation. To configure interrupt
 120:Generated_Source\PSoC6\pdl\drivers/peripheral/scb/cy_scb_uart.h **** * the \ref Cy_SCB_UART_Interrupt function must be called in the interrupt
 121:Generated_Source\PSoC6\pdl\drivers/peripheral/scb/cy_scb_uart.h **** * handler for the selected SCB instance. Also, this interrupt must be enabled
 122:Generated_Source\PSoC6\pdl\drivers/peripheral/scb/cy_scb_uart.h **** * in the NVIC.
 123:Generated_Source\PSoC6\pdl\drivers/peripheral/scb/cy_scb_uart.h **** * The interrupt must be configured when \ref group_scb_uart_hl will be used.
 124:Generated_Source\PSoC6\pdl\drivers/peripheral/scb/cy_scb_uart.h **** *
 125:Generated_Source\PSoC6\pdl\drivers/peripheral/scb/cy_scb_uart.h **** * \snippet SCB_CompDatasheet_sut_01_revA.cydsn\uart_snippets.c UART_INTR_A
 126:Generated_Source\PSoC6\pdl\drivers/peripheral/scb/cy_scb_uart.h **** * \snippet SCB_CompDatasheet_sut_01_revA.cydsn\uart_snippets.c UART_INTR_B
 127:Generated_Source\PSoC6\pdl\drivers/peripheral/scb/cy_scb_uart.h **** *
 128:Generated_Source\PSoC6\pdl\drivers/peripheral/scb/cy_scb_uart.h **** ********************************************************************************
 129:Generated_Source\PSoC6\pdl\drivers/peripheral/scb/cy_scb_uart.h **** * \subsection group_scb_uart_enable Enable UART
 130:Generated_Source\PSoC6\pdl\drivers/peripheral/scb/cy_scb_uart.h **** ********************************************************************************
 131:Generated_Source\PSoC6\pdl\drivers/peripheral/scb/cy_scb_uart.h **** * Finally, enable the UART operation by calling \ref Cy_SCB_UART_Enable.
 132:Generated_Source\PSoC6\pdl\drivers/peripheral/scb/cy_scb_uart.h **** *
 133:Generated_Source\PSoC6\pdl\drivers/peripheral/scb/cy_scb_uart.h **** * \snippet SCB_CompDatasheet_sut_01_revA.cydsn\uart_snippets.c UART_ENABLE
 134:Generated_Source\PSoC6\pdl\drivers/peripheral/scb/cy_scb_uart.h **** *
 135:Generated_Source\PSoC6\pdl\drivers/peripheral/scb/cy_scb_uart.h **** ********************************************************************************
 136:Generated_Source\PSoC6\pdl\drivers/peripheral/scb/cy_scb_uart.h **** * \section group_scb_uart_use_cases Common Use Cases
 137:Generated_Source\PSoC6\pdl\drivers/peripheral/scb/cy_scb_uart.h **** ********************************************************************************
 138:Generated_Source\PSoC6\pdl\drivers/peripheral/scb/cy_scb_uart.h **** * The UART API is divided into two categories: \ref group_scb_uart_low_level_functions
 139:Generated_Source\PSoC6\pdl\drivers/peripheral/scb/cy_scb_uart.h **** * and \ref group_scb_uart_high_level_functions. \n
 140:Generated_Source\PSoC6\pdl\drivers/peripheral/scb/cy_scb_uart.h **** * <em>Do not mix <b>High-Level</b> and <b>Low-Level</b> API because a Low-Level
 141:Generated_Source\PSoC6\pdl\drivers/peripheral/scb/cy_scb_uart.h **** * API can adversely affect the operation of a High-Level API.</em>
 142:Generated_Source\PSoC6\pdl\drivers/peripheral/scb/cy_scb_uart.h **** *
 143:Generated_Source\PSoC6\pdl\drivers/peripheral/scb/cy_scb_uart.h **** ********************************************************************************
 144:Generated_Source\PSoC6\pdl\drivers/peripheral/scb/cy_scb_uart.h **** * \subsection group_scb_uart_ll Low-Level API
 145:Generated_Source\PSoC6\pdl\drivers/peripheral/scb/cy_scb_uart.h **** ********************************************************************************
 146:Generated_Source\PSoC6\pdl\drivers/peripheral/scb/cy_scb_uart.h **** * The \ref group_scb_uart_low_level_functions functions allow
 147:Generated_Source\PSoC6\pdl\drivers/peripheral/scb/cy_scb_uart.h **** * interacting directly with the hardware and do not use \ref Cy_SCB_UART_Interrupt.
 148:Generated_Source\PSoC6\pdl\drivers/peripheral/scb/cy_scb_uart.h **** * These functions do not require context for operation. Thus, NULL can be
 149:Generated_Source\PSoC6\pdl\drivers/peripheral/scb/cy_scb_uart.h **** * passed for context parameter in \ref Cy_SCB_UART_Init and \ref Cy_SCB_UART_Disable 
 150:Generated_Source\PSoC6\pdl\drivers/peripheral/scb/cy_scb_uart.h **** * instead of a pointer to the context structure.
ARM GAS  C:\Users\ISAKVO~1\AppData\Local\Temp\ccR1W42h.s 			page 11


 151:Generated_Source\PSoC6\pdl\drivers/peripheral/scb/cy_scb_uart.h **** *
 152:Generated_Source\PSoC6\pdl\drivers/peripheral/scb/cy_scb_uart.h **** * * To write data into the TX FIFO, use one of the provided functions:
 153:Generated_Source\PSoC6\pdl\drivers/peripheral/scb/cy_scb_uart.h **** *   \ref Cy_SCB_UART_Put, \ref Cy_SCB_UART_PutArray,
 154:Generated_Source\PSoC6\pdl\drivers/peripheral/scb/cy_scb_uart.h **** *   \ref Cy_SCB_UART_PutArrayBlocking or \ref Cy_SCB_UART_PutString.
 155:Generated_Source\PSoC6\pdl\drivers/peripheral/scb/cy_scb_uart.h **** *   Note that putting data into the TX FIFO starts data transfer.
 156:Generated_Source\PSoC6\pdl\drivers/peripheral/scb/cy_scb_uart.h **** *
 157:Generated_Source\PSoC6\pdl\drivers/peripheral/scb/cy_scb_uart.h **** * * To read data from the RX FIFO, use one of the provided functions:
 158:Generated_Source\PSoC6\pdl\drivers/peripheral/scb/cy_scb_uart.h **** *   \ref Cy_SCB_UART_Get, \ref Cy_SCB_UART_GetArray or
 159:Generated_Source\PSoC6\pdl\drivers/peripheral/scb/cy_scb_uart.h **** *   \ref Cy_SCB_UART_GetArrayBlocking.
 160:Generated_Source\PSoC6\pdl\drivers/peripheral/scb/cy_scb_uart.h **** *
 161:Generated_Source\PSoC6\pdl\drivers/peripheral/scb/cy_scb_uart.h **** * * The statuses can be polled using: \ref Cy_SCB_UART_GetRxFifoStatus and
 162:Generated_Source\PSoC6\pdl\drivers/peripheral/scb/cy_scb_uart.h **** *   \ref Cy_SCB_UART_GetTxFifoStatus.
 163:Generated_Source\PSoC6\pdl\drivers/peripheral/scb/cy_scb_uart.h **** *   <em>The statuses are <b>W1C (Write 1 to Clear)</b> and after a status
 164:Generated_Source\PSoC6\pdl\drivers/peripheral/scb/cy_scb_uart.h **** *   is set, it must be cleared.</em> Note that there are statuses evaluated as level.
 165:Generated_Source\PSoC6\pdl\drivers/peripheral/scb/cy_scb_uart.h **** *   These statuses remain set until an event is true. Therefore, after the clear
 166:Generated_Source\PSoC6\pdl\drivers/peripheral/scb/cy_scb_uart.h **** *   operation, the status is cleared but then it is restored (if event is still
 167:Generated_Source\PSoC6\pdl\drivers/peripheral/scb/cy_scb_uart.h **** *   true).
 168:Generated_Source\PSoC6\pdl\drivers/peripheral/scb/cy_scb_uart.h **** *   Also, the following functions can be used for polling as well
 169:Generated_Source\PSoC6\pdl\drivers/peripheral/scb/cy_scb_uart.h **** *   \ref Cy_SCB_UART_IsTxComplete, \ref Cy_SCB_UART_GetNumInRxFifo and
 170:Generated_Source\PSoC6\pdl\drivers/peripheral/scb/cy_scb_uart.h **** *   \ref Cy_SCB_UART_GetNumInTxFifo.
 171:Generated_Source\PSoC6\pdl\drivers/peripheral/scb/cy_scb_uart.h **** *
 172:Generated_Source\PSoC6\pdl\drivers/peripheral/scb/cy_scb_uart.h **** * \snippet SCB_CompDatasheet_sut_01_revA.cydsn\uart_snippets.c UART_TRANSMIT_DATA_LL
 173:Generated_Source\PSoC6\pdl\drivers/peripheral/scb/cy_scb_uart.h **** *
 174:Generated_Source\PSoC6\pdl\drivers/peripheral/scb/cy_scb_uart.h **** ********************************************************************************
 175:Generated_Source\PSoC6\pdl\drivers/peripheral/scb/cy_scb_uart.h **** * \subsection group_scb_uart_hl High-Level API
 176:Generated_Source\PSoC6\pdl\drivers/peripheral/scb/cy_scb_uart.h **** ********************************************************************************
 177:Generated_Source\PSoC6\pdl\drivers/peripheral/scb/cy_scb_uart.h **** * The \ref group_scb_uart_high_level_functions API use \ref Cy_SCB_UART_Interrupt
 178:Generated_Source\PSoC6\pdl\drivers/peripheral/scb/cy_scb_uart.h **** * to execute the transfer. Call \ref Cy_SCB_UART_Transmit to start transmission.
 179:Generated_Source\PSoC6\pdl\drivers/peripheral/scb/cy_scb_uart.h **** * Call \ref Cy_SCB_UART_Receive to start receive operation. After the
 180:Generated_Source\PSoC6\pdl\drivers/peripheral/scb/cy_scb_uart.h **** * operation is started the \ref Cy_SCB_UART_Interrupt handles the data
 181:Generated_Source\PSoC6\pdl\drivers/peripheral/scb/cy_scb_uart.h **** * transfer until its completion.
 182:Generated_Source\PSoC6\pdl\drivers/peripheral/scb/cy_scb_uart.h **** * Therefore \ref Cy_SCB_UART_Interrupt must be called inside the user 
 183:Generated_Source\PSoC6\pdl\drivers/peripheral/scb/cy_scb_uart.h **** * interrupt handler to make the High-Level API work. To monitor status
 184:Generated_Source\PSoC6\pdl\drivers/peripheral/scb/cy_scb_uart.h **** * of transmit operation, use \ref Cy_SCB_UART_GetTransmitStatus and
 185:Generated_Source\PSoC6\pdl\drivers/peripheral/scb/cy_scb_uart.h **** * \ref Cy_SCB_UART_GetReceiveStatus to monitor receive status appropriately.
 186:Generated_Source\PSoC6\pdl\drivers/peripheral/scb/cy_scb_uart.h **** * Alternatively use \ref Cy_SCB_UART_RegisterCallback to register callback
 187:Generated_Source\PSoC6\pdl\drivers/peripheral/scb/cy_scb_uart.h **** * function to be notified about \ref group_scb_uart_macros_callback_events.
 188:Generated_Source\PSoC6\pdl\drivers/peripheral/scb/cy_scb_uart.h **** *
 189:Generated_Source\PSoC6\pdl\drivers/peripheral/scb/cy_scb_uart.h **** * <b>Receive Operation</b>
 190:Generated_Source\PSoC6\pdl\drivers/peripheral/scb/cy_scb_uart.h **** * \snippet SCB_CompDatasheet_sut_01_revA.cydsn\uart_snippets.c UART_RECEIVE_DATA_HL
 191:Generated_Source\PSoC6\pdl\drivers/peripheral/scb/cy_scb_uart.h **** *
 192:Generated_Source\PSoC6\pdl\drivers/peripheral/scb/cy_scb_uart.h **** * <b>Transmit Operation</b>
 193:Generated_Source\PSoC6\pdl\drivers/peripheral/scb/cy_scb_uart.h **** * \snippet SCB_CompDatasheet_sut_01_revA.cydsn\uart_snippets.c UART_TRANSMIT_DATA_HL
 194:Generated_Source\PSoC6\pdl\drivers/peripheral/scb/cy_scb_uart.h **** *
 195:Generated_Source\PSoC6\pdl\drivers/peripheral/scb/cy_scb_uart.h **** * There is also capability to insert a receive ring buffer that operates between
 196:Generated_Source\PSoC6\pdl\drivers/peripheral/scb/cy_scb_uart.h **** * the RX FIFO and the user buffer. The received data is copied into the ring
 197:Generated_Source\PSoC6\pdl\drivers/peripheral/scb/cy_scb_uart.h **** * buffer from the RX FIFO. This process runs in the background after the ring
 198:Generated_Source\PSoC6\pdl\drivers/peripheral/scb/cy_scb_uart.h **** * buffer operation is started by \ref Cy_SCB_UART_StartRingBuffer.
 199:Generated_Source\PSoC6\pdl\drivers/peripheral/scb/cy_scb_uart.h **** * When \ref Cy_SCB_UART_Receive is called, it first reads data from the ring
 200:Generated_Source\PSoC6\pdl\drivers/peripheral/scb/cy_scb_uart.h **** * buffer and then sets up an interrupt to receive more data if the required
 201:Generated_Source\PSoC6\pdl\drivers/peripheral/scb/cy_scb_uart.h **** * amount has not yet been read.
 202:Generated_Source\PSoC6\pdl\drivers/peripheral/scb/cy_scb_uart.h **** *
 203:Generated_Source\PSoC6\pdl\drivers/peripheral/scb/cy_scb_uart.h **** ********************************************************************************
 204:Generated_Source\PSoC6\pdl\drivers/peripheral/scb/cy_scb_uart.h **** * \section group_scb_uart_dma_trig DMA Trigger
 205:Generated_Source\PSoC6\pdl\drivers/peripheral/scb/cy_scb_uart.h **** ********************************************************************************
 206:Generated_Source\PSoC6\pdl\drivers/peripheral/scb/cy_scb_uart.h **** * The SCB provides TX and RX output trigger signals that can be routed to the
 207:Generated_Source\PSoC6\pdl\drivers/peripheral/scb/cy_scb_uart.h **** * DMA controller inputs. These signals are assigned based on the data availability
ARM GAS  C:\Users\ISAKVO~1\AppData\Local\Temp\ccR1W42h.s 			page 12


 208:Generated_Source\PSoC6\pdl\drivers/peripheral/scb/cy_scb_uart.h **** * in the TX and RX FIFOs appropriately.
 209:Generated_Source\PSoC6\pdl\drivers/peripheral/scb/cy_scb_uart.h **** *
 210:Generated_Source\PSoC6\pdl\drivers/peripheral/scb/cy_scb_uart.h **** * * The RX trigger signal is active while the number of data
 211:Generated_Source\PSoC6\pdl\drivers/peripheral/scb/cy_scb_uart.h **** *   elements in the RX FIFO is greater than the value of RX FIFO level. Use
 212:Generated_Source\PSoC6\pdl\drivers/peripheral/scb/cy_scb_uart.h **** *   function \ref Cy_SCB_SetRxFifoLevel or set configuration structure
 213:Generated_Source\PSoC6\pdl\drivers/peripheral/scb/cy_scb_uart.h **** *   rxFifoTriggerLevel parameter to configure RX FIFO level value. \n
 214:Generated_Source\PSoC6\pdl\drivers/peripheral/scb/cy_scb_uart.h **** *   <em>For example, the RX FIFO has 8 data elements and the RX FIFO level is 0.
 215:Generated_Source\PSoC6\pdl\drivers/peripheral/scb/cy_scb_uart.h **** *   The RX trigger signal is active until DMA reads all data from
 216:Generated_Source\PSoC6\pdl\drivers/peripheral/scb/cy_scb_uart.h **** *   the RX FIFO.</em>
 217:Generated_Source\PSoC6\pdl\drivers/peripheral/scb/cy_scb_uart.h **** *
 218:Generated_Source\PSoC6\pdl\drivers/peripheral/scb/cy_scb_uart.h **** * * The TX trigger signal is active while the number of data elements
 219:Generated_Source\PSoC6\pdl\drivers/peripheral/scb/cy_scb_uart.h **** *   in the TX FIFO is less than the value of TX FIFO level. Use function
 220:Generated_Source\PSoC6\pdl\drivers/peripheral/scb/cy_scb_uart.h **** *   \ref Cy_SCB_SetTxFifoLevel or set configuration structure txFifoTriggerLevel
 221:Generated_Source\PSoC6\pdl\drivers/peripheral/scb/cy_scb_uart.h **** *   parameter to configure TX FIFO level value. \n
 222:Generated_Source\PSoC6\pdl\drivers/peripheral/scb/cy_scb_uart.h **** *   <em>For example, the TX FIFO has 0 data elements (empty) and the TX FIFO level
 223:Generated_Source\PSoC6\pdl\drivers/peripheral/scb/cy_scb_uart.h **** *   is 7. The TX trigger signal is active until DMA loads TX FIFO
 224:Generated_Source\PSoC6\pdl\drivers/peripheral/scb/cy_scb_uart.h **** *   with 8 data elements (note that after the first TX load operation, the data 
 225:Generated_Source\PSoC6\pdl\drivers/peripheral/scb/cy_scb_uart.h **** *   element goes to the shift register and TX FIFO is empty).</em>
 226:Generated_Source\PSoC6\pdl\drivers/peripheral/scb/cy_scb_uart.h **** *
 227:Generated_Source\PSoC6\pdl\drivers/peripheral/scb/cy_scb_uart.h **** * To route SCB TX or RX trigger signals to DMA controller use \ref group_trigmux
 228:Generated_Source\PSoC6\pdl\drivers/peripheral/scb/cy_scb_uart.h **** * driver API.
 229:Generated_Source\PSoC6\pdl\drivers/peripheral/scb/cy_scb_uart.h **** *
 230:Generated_Source\PSoC6\pdl\drivers/peripheral/scb/cy_scb_uart.h **** * \note
 231:Generated_Source\PSoC6\pdl\drivers/peripheral/scb/cy_scb_uart.h **** * To properly handle DMA level request signal activation and de-activation from the SCB
 232:Generated_Source\PSoC6\pdl\drivers/peripheral/scb/cy_scb_uart.h **** * peripheral block the DMA Descriptor typically must be configured to re-trigger
 233:Generated_Source\PSoC6\pdl\drivers/peripheral/scb/cy_scb_uart.h **** * after 16 Clk_Slow cycles.
 234:Generated_Source\PSoC6\pdl\drivers/peripheral/scb/cy_scb_uart.h **** *
 235:Generated_Source\PSoC6\pdl\drivers/peripheral/scb/cy_scb_uart.h **** ********************************************************************************
 236:Generated_Source\PSoC6\pdl\drivers/peripheral/scb/cy_scb_uart.h **** * \section group_scb_uart_lp Low Power Support
 237:Generated_Source\PSoC6\pdl\drivers/peripheral/scb/cy_scb_uart.h **** ********************************************************************************
 238:Generated_Source\PSoC6\pdl\drivers/peripheral/scb/cy_scb_uart.h **** * The UART driver provides callback functions to handle power mode
 239:Generated_Source\PSoC6\pdl\drivers/peripheral/scb/cy_scb_uart.h **** * transition. The callback \ref Cy_SCB_UART_DeepSleepCallback must be called
 240:Generated_Source\PSoC6\pdl\drivers/peripheral/scb/cy_scb_uart.h **** * during execution of \ref Cy_SysPm_CpuEnterDeepSleep \ref Cy_SCB_UART_HibernateCallback
 241:Generated_Source\PSoC6\pdl\drivers/peripheral/scb/cy_scb_uart.h **** * must be called during execution of \ref Cy_SysPm_SystemEnterHibernate. To trigger the
 242:Generated_Source\PSoC6\pdl\drivers/peripheral/scb/cy_scb_uart.h **** * callback execution, the callback must be registered before calling the
 243:Generated_Source\PSoC6\pdl\drivers/peripheral/scb/cy_scb_uart.h **** * power mode transition function. Refer to \ref group_syspm driver for more
 244:Generated_Source\PSoC6\pdl\drivers/peripheral/scb/cy_scb_uart.h **** * information about power mode transitions and callback registration.
 245:Generated_Source\PSoC6\pdl\drivers/peripheral/scb/cy_scb_uart.h **** *
 246:Generated_Source\PSoC6\pdl\drivers/peripheral/scb/cy_scb_uart.h **** * The UART is disabled during Deep Sleep and Hibernate and stops driving 
 247:Generated_Source\PSoC6\pdl\drivers/peripheral/scb/cy_scb_uart.h **** * the output pins. The state of the UART output pins TX and RTS is High-Z, 
 248:Generated_Source\PSoC6\pdl\drivers/peripheral/scb/cy_scb_uart.h **** * which can cause unexpected behavior of the UART receiver due to possible
 249:Generated_Source\PSoC6\pdl\drivers/peripheral/scb/cy_scb_uart.h **** * glitches on these lines. These pins must be set to the inactive state before 
 250:Generated_Source\PSoC6\pdl\drivers/peripheral/scb/cy_scb_uart.h **** * entering Deep Sleep or Hibernate mode.
 251:Generated_Source\PSoC6\pdl\drivers/peripheral/scb/cy_scb_uart.h **** * These pins must keep the inactive level (the same state 
 252:Generated_Source\PSoC6\pdl\drivers/peripheral/scb/cy_scb_uart.h **** * when UART TX is enabled and does not transfer data) before entering Deep 
 253:Generated_Source\PSoC6\pdl\drivers/peripheral/scb/cy_scb_uart.h **** * Sleep or Hibernate mode. To do that, write the GPIO data register of each pin 
 254:Generated_Source\PSoC6\pdl\drivers/peripheral/scb/cy_scb_uart.h **** * to the inactive level for each output pin. Then configure High-Speed Input 
 255:Generated_Source\PSoC6\pdl\drivers/peripheral/scb/cy_scb_uart.h **** * Output Multiplexer (HSIOM) of each pin to be controlled by the GPIO (use 
 256:Generated_Source\PSoC6\pdl\drivers/peripheral/scb/cy_scb_uart.h **** * \ref group_gpio driver API). After exiting Deep Sleep mode the UART 
 257:Generated_Source\PSoC6\pdl\drivers/peripheral/scb/cy_scb_uart.h **** * must be enabled and the pins configuration restored to return the 
 258:Generated_Source\PSoC6\pdl\drivers/peripheral/scb/cy_scb_uart.h **** * UART control of the pins (after exiting Hibernate mode, the 
 259:Generated_Source\PSoC6\pdl\drivers/peripheral/scb/cy_scb_uart.h **** * system initialization code does the same). Copy either or 
 260:Generated_Source\PSoC6\pdl\drivers/peripheral/scb/cy_scb_uart.h **** * both \ref Cy_SCB_UART_DeepSleepCallback and \ref Cy_SCB_UART_HibernateCallback 
 261:Generated_Source\PSoC6\pdl\drivers/peripheral/scb/cy_scb_uart.h **** * as appropriate, and make the changes described above inside the function.
 262:Generated_Source\PSoC6\pdl\drivers/peripheral/scb/cy_scb_uart.h **** * Alternately, external pull-up or pull-down resistors can be connected 
 263:Generated_Source\PSoC6\pdl\drivers/peripheral/scb/cy_scb_uart.h **** * to the appropriate UART lines to keep them inactive during Deep-Sleep or 
 264:Generated_Source\PSoC6\pdl\drivers/peripheral/scb/cy_scb_uart.h **** * Hibernate.
ARM GAS  C:\Users\ISAKVO~1\AppData\Local\Temp\ccR1W42h.s 			page 13


 265:Generated_Source\PSoC6\pdl\drivers/peripheral/scb/cy_scb_uart.h **** *
 266:Generated_Source\PSoC6\pdl\drivers/peripheral/scb/cy_scb_uart.h **** ********************************************************************************
 267:Generated_Source\PSoC6\pdl\drivers/peripheral/scb/cy_scb_uart.h **** * \section group_scb_uart_more_information More Information
 268:Generated_Source\PSoC6\pdl\drivers/peripheral/scb/cy_scb_uart.h **** ********************************************************************************
 269:Generated_Source\PSoC6\pdl\drivers/peripheral/scb/cy_scb_uart.h **** * For more information on the SCB peripheral, refer to the technical reference
 270:Generated_Source\PSoC6\pdl\drivers/peripheral/scb/cy_scb_uart.h **** * manual (TRM).
 271:Generated_Source\PSoC6\pdl\drivers/peripheral/scb/cy_scb_uart.h **** *
 272:Generated_Source\PSoC6\pdl\drivers/peripheral/scb/cy_scb_uart.h **** ********************************************************************************
 273:Generated_Source\PSoC6\pdl\drivers/peripheral/scb/cy_scb_uart.h **** * \section group_scb_uart_MISRA MISRA-C Compliance
 274:Generated_Source\PSoC6\pdl\drivers/peripheral/scb/cy_scb_uart.h **** ********************************************************************************
 275:Generated_Source\PSoC6\pdl\drivers/peripheral/scb/cy_scb_uart.h **** * <table class="doxtable">
 276:Generated_Source\PSoC6\pdl\drivers/peripheral/scb/cy_scb_uart.h **** *   <tr>
 277:Generated_Source\PSoC6\pdl\drivers/peripheral/scb/cy_scb_uart.h **** *     <th>MISRA Rule</th>
 278:Generated_Source\PSoC6\pdl\drivers/peripheral/scb/cy_scb_uart.h **** *     <th>Rule Class (Required/Advisory)</th>
 279:Generated_Source\PSoC6\pdl\drivers/peripheral/scb/cy_scb_uart.h **** *     <th>Rule Description</th>
 280:Generated_Source\PSoC6\pdl\drivers/peripheral/scb/cy_scb_uart.h **** *     <th>Description of Deviation(s)</th>
 281:Generated_Source\PSoC6\pdl\drivers/peripheral/scb/cy_scb_uart.h **** *   </tr>
 282:Generated_Source\PSoC6\pdl\drivers/peripheral/scb/cy_scb_uart.h **** *   <tr>
 283:Generated_Source\PSoC6\pdl\drivers/peripheral/scb/cy_scb_uart.h **** *     <td>11.4</td>
 284:Generated_Source\PSoC6\pdl\drivers/peripheral/scb/cy_scb_uart.h **** *     <td>A</td>
 285:Generated_Source\PSoC6\pdl\drivers/peripheral/scb/cy_scb_uart.h **** *     <td>A cast should not be performed between a pointer to object type and
 286:Generated_Source\PSoC6\pdl\drivers/peripheral/scb/cy_scb_uart.h **** *         a different pointer to object type.</td>
 287:Generated_Source\PSoC6\pdl\drivers/peripheral/scb/cy_scb_uart.h **** *     <td>
 288:Generated_Source\PSoC6\pdl\drivers/peripheral/scb/cy_scb_uart.h **** *         * The pointer to the buffer memory is void to allow handling different
 289:Generated_Source\PSoC6\pdl\drivers/peripheral/scb/cy_scb_uart.h **** *         different data types: uint8_t (4-8 bits) or uint16_t (9-16 bits).
 290:Generated_Source\PSoC6\pdl\drivers/peripheral/scb/cy_scb_uart.h **** *         The cast operation is safe because the configuration is verified
 291:Generated_Source\PSoC6\pdl\drivers/peripheral/scb/cy_scb_uart.h **** *         before operation is performed.
 292:Generated_Source\PSoC6\pdl\drivers/peripheral/scb/cy_scb_uart.h **** *         * The functions \ref Cy_SCB_UART_DeepSleepCallback and
 293:Generated_Source\PSoC6\pdl\drivers/peripheral/scb/cy_scb_uart.h **** *         \ref Cy_SCB_UART_HibernateCallback are callback of
 294:Generated_Source\PSoC6\pdl\drivers/peripheral/scb/cy_scb_uart.h **** *         \ref cy_en_syspm_status_t type. The cast operation safety in these
 295:Generated_Source\PSoC6\pdl\drivers/peripheral/scb/cy_scb_uart.h **** *         functions becomes the user's responsibility because pointers are
 296:Generated_Source\PSoC6\pdl\drivers/peripheral/scb/cy_scb_uart.h **** *         initialized when callback is registered in SysPm driver.</td>
 297:Generated_Source\PSoC6\pdl\drivers/peripheral/scb/cy_scb_uart.h **** *   </tr>
 298:Generated_Source\PSoC6\pdl\drivers/peripheral/scb/cy_scb_uart.h **** *   <tr>
 299:Generated_Source\PSoC6\pdl\drivers/peripheral/scb/cy_scb_uart.h **** *     <td>14.2</td>
 300:Generated_Source\PSoC6\pdl\drivers/peripheral/scb/cy_scb_uart.h **** *     <td>R</td>
 301:Generated_Source\PSoC6\pdl\drivers/peripheral/scb/cy_scb_uart.h **** *     <td>All non-null statements shall either: a) have at least one side-effect
 302:Generated_Source\PSoC6\pdl\drivers/peripheral/scb/cy_scb_uart.h **** *         however executed, or b) cause control flow to change.</td>
 303:Generated_Source\PSoC6\pdl\drivers/peripheral/scb/cy_scb_uart.h **** *     <td>The unused function parameters are cast to void. This statement
 304:Generated_Source\PSoC6\pdl\drivers/peripheral/scb/cy_scb_uart.h **** *         has no side-effect and is used to suppress a compiler warning.</td>
 305:Generated_Source\PSoC6\pdl\drivers/peripheral/scb/cy_scb_uart.h **** *   </tr>
 306:Generated_Source\PSoC6\pdl\drivers/peripheral/scb/cy_scb_uart.h **** *   <tr>
 307:Generated_Source\PSoC6\pdl\drivers/peripheral/scb/cy_scb_uart.h **** *     <td>14.7</td>
 308:Generated_Source\PSoC6\pdl\drivers/peripheral/scb/cy_scb_uart.h **** *     <td>R</td>
 309:Generated_Source\PSoC6\pdl\drivers/peripheral/scb/cy_scb_uart.h **** *     <td>A function shall have a single point of exit at the end of the
 310:Generated_Source\PSoC6\pdl\drivers/peripheral/scb/cy_scb_uart.h **** *         function.</td>
 311:Generated_Source\PSoC6\pdl\drivers/peripheral/scb/cy_scb_uart.h **** *     <td>The functions can return from several points. This is done to improve
 312:Generated_Source\PSoC6\pdl\drivers/peripheral/scb/cy_scb_uart.h **** *         code clarity when returning error status code if input parameters
 313:Generated_Source\PSoC6\pdl\drivers/peripheral/scb/cy_scb_uart.h **** *         validation fails.</td>
 314:Generated_Source\PSoC6\pdl\drivers/peripheral/scb/cy_scb_uart.h **** *   </tr>
 315:Generated_Source\PSoC6\pdl\drivers/peripheral/scb/cy_scb_uart.h **** * </table>
 316:Generated_Source\PSoC6\pdl\drivers/peripheral/scb/cy_scb_uart.h **** *
 317:Generated_Source\PSoC6\pdl\drivers/peripheral/scb/cy_scb_uart.h **** * \section group_scb_uart_changelog Changelog
 318:Generated_Source\PSoC6\pdl\drivers/peripheral/scb/cy_scb_uart.h **** * <table class="doxtable">
 319:Generated_Source\PSoC6\pdl\drivers/peripheral/scb/cy_scb_uart.h **** *   <tr><th>Version</th><th>Changes</th><th>Reason for Change</th></tr>
 320:Generated_Source\PSoC6\pdl\drivers/peripheral/scb/cy_scb_uart.h **** *   <tr>
 321:Generated_Source\PSoC6\pdl\drivers/peripheral/scb/cy_scb_uart.h **** *     <td rowspan="2">2.20</td>
ARM GAS  C:\Users\ISAKVO~1\AppData\Local\Temp\ccR1W42h.s 			page 14


 322:Generated_Source\PSoC6\pdl\drivers/peripheral/scb/cy_scb_uart.h **** *     <td>Flattened the organization of the driver source code into the single 
 323:Generated_Source\PSoC6\pdl\drivers/peripheral/scb/cy_scb_uart.h **** *         source directory and the single include directory.
 324:Generated_Source\PSoC6\pdl\drivers/peripheral/scb/cy_scb_uart.h **** *     </td>
 325:Generated_Source\PSoC6\pdl\drivers/peripheral/scb/cy_scb_uart.h **** *     <td>Driver library directory-structure simplification.</td>
 326:Generated_Source\PSoC6\pdl\drivers/peripheral/scb/cy_scb_uart.h **** *   </tr>
 327:Generated_Source\PSoC6\pdl\drivers/peripheral/scb/cy_scb_uart.h **** *   <tr>
 328:Generated_Source\PSoC6\pdl\drivers/peripheral/scb/cy_scb_uart.h **** *     <td>Added register access layer. Use register access macros instead
 329:Generated_Source\PSoC6\pdl\drivers/peripheral/scb/cy_scb_uart.h **** *         of direct register access using dereferenced pointers.</td>
 330:Generated_Source\PSoC6\pdl\drivers/peripheral/scb/cy_scb_uart.h **** *     <td>Makes register access device-independent, so that the PDL does 
 331:Generated_Source\PSoC6\pdl\drivers/peripheral/scb/cy_scb_uart.h **** *         not need to be recompiled for each supported part number.</td>
 332:Generated_Source\PSoC6\pdl\drivers/peripheral/scb/cy_scb_uart.h **** *   </tr>
 333:Generated_Source\PSoC6\pdl\drivers/peripheral/scb/cy_scb_uart.h **** *   <tr>
 334:Generated_Source\PSoC6\pdl\drivers/peripheral/scb/cy_scb_uart.h **** *     <td>2.10</td>
 335:Generated_Source\PSoC6\pdl\drivers/peripheral/scb/cy_scb_uart.h **** *     <td>None.</td>
 336:Generated_Source\PSoC6\pdl\drivers/peripheral/scb/cy_scb_uart.h **** *     <td>SCB I2C driver updated.</td>
 337:Generated_Source\PSoC6\pdl\drivers/peripheral/scb/cy_scb_uart.h **** *   </tr>
 338:Generated_Source\PSoC6\pdl\drivers/peripheral/scb/cy_scb_uart.h **** *   <tr>
 339:Generated_Source\PSoC6\pdl\drivers/peripheral/scb/cy_scb_uart.h **** *     <td rowspan="5">2.0</td>
 340:Generated_Source\PSoC6\pdl\drivers/peripheral/scb/cy_scb_uart.h **** *     <td>Added parameters validation for public API.</td>
 341:Generated_Source\PSoC6\pdl\drivers/peripheral/scb/cy_scb_uart.h **** *     <td></td>
 342:Generated_Source\PSoC6\pdl\drivers/peripheral/scb/cy_scb_uart.h **** *   </tr>
 343:Generated_Source\PSoC6\pdl\drivers/peripheral/scb/cy_scb_uart.h **** *   <tr>
 344:Generated_Source\PSoC6\pdl\drivers/peripheral/scb/cy_scb_uart.h **** *     <td>Replaced variables that have limited range of values with enumerated
 345:Generated_Source\PSoC6\pdl\drivers/peripheral/scb/cy_scb_uart.h **** *         types.</td>
 346:Generated_Source\PSoC6\pdl\drivers/peripheral/scb/cy_scb_uart.h **** *     <td></td>
 347:Generated_Source\PSoC6\pdl\drivers/peripheral/scb/cy_scb_uart.h **** *   </tr>
 348:Generated_Source\PSoC6\pdl\drivers/peripheral/scb/cy_scb_uart.h **** *   <tr>
 349:Generated_Source\PSoC6\pdl\drivers/peripheral/scb/cy_scb_uart.h **** *     <td>Added missing "cy_cb_" to the callback function type names.</td>
 350:Generated_Source\PSoC6\pdl\drivers/peripheral/scb/cy_scb_uart.h **** *     <td></td>
 351:Generated_Source\PSoC6\pdl\drivers/peripheral/scb/cy_scb_uart.h **** *   </tr>
 352:Generated_Source\PSoC6\pdl\drivers/peripheral/scb/cy_scb_uart.h **** *   <tr>
 353:Generated_Source\PSoC6\pdl\drivers/peripheral/scb/cy_scb_uart.h **** *     <td>Added function \ref Cy_SCB_UART_SendBreakBlocking for break condition
 354:Generated_Source\PSoC6\pdl\drivers/peripheral/scb/cy_scb_uart.h **** *         generation.</td>
 355:Generated_Source\PSoC6\pdl\drivers/peripheral/scb/cy_scb_uart.h **** *     <td></td>
 356:Generated_Source\PSoC6\pdl\drivers/peripheral/scb/cy_scb_uart.h **** *   </tr>
 357:Generated_Source\PSoC6\pdl\drivers/peripheral/scb/cy_scb_uart.h **** *   <tr>
 358:Generated_Source\PSoC6\pdl\drivers/peripheral/scb/cy_scb_uart.h **** *     <td>Fixed low power callbacks \ref Cy_SCB_UART_DeepSleepCallback and
 359:Generated_Source\PSoC6\pdl\drivers/peripheral/scb/cy_scb_uart.h **** *         \ref Cy_SCB_UART_HibernateCallback to prevent the device from entering
 360:Generated_Source\PSoC6\pdl\drivers/peripheral/scb/cy_scb_uart.h **** *         low power mode when RX FIFO is not empty.</td>
 361:Generated_Source\PSoC6\pdl\drivers/peripheral/scb/cy_scb_uart.h **** *     <td>The callbacks allowed entering device into low power mode when RX FIFO
 362:Generated_Source\PSoC6\pdl\drivers/peripheral/scb/cy_scb_uart.h **** *         had data.</td>
 363:Generated_Source\PSoC6\pdl\drivers/peripheral/scb/cy_scb_uart.h **** *   </tr>
 364:Generated_Source\PSoC6\pdl\drivers/peripheral/scb/cy_scb_uart.h **** *   <tr>
 365:Generated_Source\PSoC6\pdl\drivers/peripheral/scb/cy_scb_uart.h **** *     <td>1.0</td>
 366:Generated_Source\PSoC6\pdl\drivers/peripheral/scb/cy_scb_uart.h **** *     <td>Initial version.</td>
 367:Generated_Source\PSoC6\pdl\drivers/peripheral/scb/cy_scb_uart.h **** *     <td></td>
 368:Generated_Source\PSoC6\pdl\drivers/peripheral/scb/cy_scb_uart.h **** *   </tr>
 369:Generated_Source\PSoC6\pdl\drivers/peripheral/scb/cy_scb_uart.h **** * </table>
 370:Generated_Source\PSoC6\pdl\drivers/peripheral/scb/cy_scb_uart.h **** *
 371:Generated_Source\PSoC6\pdl\drivers/peripheral/scb/cy_scb_uart.h **** * \defgroup group_scb_uart_macros Macros
 372:Generated_Source\PSoC6\pdl\drivers/peripheral/scb/cy_scb_uart.h **** * \defgroup group_scb_uart_functions Functions
 373:Generated_Source\PSoC6\pdl\drivers/peripheral/scb/cy_scb_uart.h **** * \{
 374:Generated_Source\PSoC6\pdl\drivers/peripheral/scb/cy_scb_uart.h **** * \defgroup group_scb_uart_general_functions General
 375:Generated_Source\PSoC6\pdl\drivers/peripheral/scb/cy_scb_uart.h **** * \defgroup group_scb_uart_high_level_functions High-Level
 376:Generated_Source\PSoC6\pdl\drivers/peripheral/scb/cy_scb_uart.h **** * \defgroup group_scb_uart_low_level_functions Low-Level
 377:Generated_Source\PSoC6\pdl\drivers/peripheral/scb/cy_scb_uart.h **** * \defgroup group_scb_uart_interrupt_functions Interrupt
 378:Generated_Source\PSoC6\pdl\drivers/peripheral/scb/cy_scb_uart.h **** * \defgroup group_scb_uart_low_power_functions Low Power Callbacks
ARM GAS  C:\Users\ISAKVO~1\AppData\Local\Temp\ccR1W42h.s 			page 15


 379:Generated_Source\PSoC6\pdl\drivers/peripheral/scb/cy_scb_uart.h **** * \}
 380:Generated_Source\PSoC6\pdl\drivers/peripheral/scb/cy_scb_uart.h **** * \defgroup group_scb_uart_data_structures Data Structures
 381:Generated_Source\PSoC6\pdl\drivers/peripheral/scb/cy_scb_uart.h **** * \defgroup group_scb_uart_enums Enumerated Types
 382:Generated_Source\PSoC6\pdl\drivers/peripheral/scb/cy_scb_uart.h **** */
 383:Generated_Source\PSoC6\pdl\drivers/peripheral/scb/cy_scb_uart.h **** 
 384:Generated_Source\PSoC6\pdl\drivers/peripheral/scb/cy_scb_uart.h **** #if !defined(CY_SCB_UART_H)
 385:Generated_Source\PSoC6\pdl\drivers/peripheral/scb/cy_scb_uart.h **** #define CY_SCB_UART_H
 386:Generated_Source\PSoC6\pdl\drivers/peripheral/scb/cy_scb_uart.h **** 
 387:Generated_Source\PSoC6\pdl\drivers/peripheral/scb/cy_scb_uart.h **** #include "cy_scb_common.h"
 388:Generated_Source\PSoC6\pdl\drivers/peripheral/scb/cy_scb_uart.h **** 
 389:Generated_Source\PSoC6\pdl\drivers/peripheral/scb/cy_scb_uart.h **** #if defined(__cplusplus)
 390:Generated_Source\PSoC6\pdl\drivers/peripheral/scb/cy_scb_uart.h **** extern "C" {
 391:Generated_Source\PSoC6\pdl\drivers/peripheral/scb/cy_scb_uart.h **** #endif
 392:Generated_Source\PSoC6\pdl\drivers/peripheral/scb/cy_scb_uart.h **** 
 393:Generated_Source\PSoC6\pdl\drivers/peripheral/scb/cy_scb_uart.h **** /***************************************
 394:Generated_Source\PSoC6\pdl\drivers/peripheral/scb/cy_scb_uart.h **** *          Enumerated Types
 395:Generated_Source\PSoC6\pdl\drivers/peripheral/scb/cy_scb_uart.h **** ***************************************/
 396:Generated_Source\PSoC6\pdl\drivers/peripheral/scb/cy_scb_uart.h **** 
 397:Generated_Source\PSoC6\pdl\drivers/peripheral/scb/cy_scb_uart.h **** /**
 398:Generated_Source\PSoC6\pdl\drivers/peripheral/scb/cy_scb_uart.h **** * \addtogroup group_scb_uart_enums
 399:Generated_Source\PSoC6\pdl\drivers/peripheral/scb/cy_scb_uart.h **** * \{
 400:Generated_Source\PSoC6\pdl\drivers/peripheral/scb/cy_scb_uart.h **** */
 401:Generated_Source\PSoC6\pdl\drivers/peripheral/scb/cy_scb_uart.h **** 
 402:Generated_Source\PSoC6\pdl\drivers/peripheral/scb/cy_scb_uart.h **** /** UART status codes */
 403:Generated_Source\PSoC6\pdl\drivers/peripheral/scb/cy_scb_uart.h **** typedef enum
 404:Generated_Source\PSoC6\pdl\drivers/peripheral/scb/cy_scb_uart.h **** {
 405:Generated_Source\PSoC6\pdl\drivers/peripheral/scb/cy_scb_uart.h ****     /** Operation completed successfully */
 406:Generated_Source\PSoC6\pdl\drivers/peripheral/scb/cy_scb_uart.h ****     CY_SCB_UART_SUCCESS = 0U,
 407:Generated_Source\PSoC6\pdl\drivers/peripheral/scb/cy_scb_uart.h **** 
 408:Generated_Source\PSoC6\pdl\drivers/peripheral/scb/cy_scb_uart.h ****     /** One or more of input parameters are invalid */
 409:Generated_Source\PSoC6\pdl\drivers/peripheral/scb/cy_scb_uart.h ****     CY_SCB_UART_BAD_PARAM = (CY_SCB_ID | CY_PDL_STATUS_ERROR | CY_SCB_UART_ID | 1U),
 410:Generated_Source\PSoC6\pdl\drivers/peripheral/scb/cy_scb_uart.h **** 
 411:Generated_Source\PSoC6\pdl\drivers/peripheral/scb/cy_scb_uart.h ****     /**
 412:Generated_Source\PSoC6\pdl\drivers/peripheral/scb/cy_scb_uart.h ****     * The UART is busy processing a receive operation.
 413:Generated_Source\PSoC6\pdl\drivers/peripheral/scb/cy_scb_uart.h ****     */
 414:Generated_Source\PSoC6\pdl\drivers/peripheral/scb/cy_scb_uart.h ****     CY_SCB_UART_RECEIVE_BUSY = (CY_SCB_ID | CY_PDL_STATUS_ERROR | CY_SCB_UART_ID | 2U),
 415:Generated_Source\PSoC6\pdl\drivers/peripheral/scb/cy_scb_uart.h **** 
 416:Generated_Source\PSoC6\pdl\drivers/peripheral/scb/cy_scb_uart.h ****     /**
 417:Generated_Source\PSoC6\pdl\drivers/peripheral/scb/cy_scb_uart.h ****     * The UART is busy processing a transmit operation.
 418:Generated_Source\PSoC6\pdl\drivers/peripheral/scb/cy_scb_uart.h ****     */
 419:Generated_Source\PSoC6\pdl\drivers/peripheral/scb/cy_scb_uart.h ****     CY_SCB_UART_TRANSMIT_BUSY = (CY_SCB_ID | CY_PDL_STATUS_ERROR | CY_SCB_UART_ID | 3U)
 420:Generated_Source\PSoC6\pdl\drivers/peripheral/scb/cy_scb_uart.h **** } cy_en_scb_uart_status_t;
 421:Generated_Source\PSoC6\pdl\drivers/peripheral/scb/cy_scb_uart.h **** 
 422:Generated_Source\PSoC6\pdl\drivers/peripheral/scb/cy_scb_uart.h **** /** UART Mode */
 423:Generated_Source\PSoC6\pdl\drivers/peripheral/scb/cy_scb_uart.h **** typedef enum
 424:Generated_Source\PSoC6\pdl\drivers/peripheral/scb/cy_scb_uart.h **** {
 425:Generated_Source\PSoC6\pdl\drivers/peripheral/scb/cy_scb_uart.h ****     CY_SCB_UART_STANDARD  = 0U, /**< Configures the SCB for Standard UART operation */
 426:Generated_Source\PSoC6\pdl\drivers/peripheral/scb/cy_scb_uart.h ****     CY_SCB_UART_SMARTCARD = 1U, /**< Configures the SCB for SmartCard operation */
 427:Generated_Source\PSoC6\pdl\drivers/peripheral/scb/cy_scb_uart.h ****     CY_SCB_UART_IRDA      = 2U, /**< Configures the SCB for IrDA operation */
 428:Generated_Source\PSoC6\pdl\drivers/peripheral/scb/cy_scb_uart.h **** } cy_en_scb_uart_mode_t;
 429:Generated_Source\PSoC6\pdl\drivers/peripheral/scb/cy_scb_uart.h **** 
 430:Generated_Source\PSoC6\pdl\drivers/peripheral/scb/cy_scb_uart.h **** /** UART Stop Bits */
 431:Generated_Source\PSoC6\pdl\drivers/peripheral/scb/cy_scb_uart.h **** typedef enum
 432:Generated_Source\PSoC6\pdl\drivers/peripheral/scb/cy_scb_uart.h **** {
 433:Generated_Source\PSoC6\pdl\drivers/peripheral/scb/cy_scb_uart.h ****     CY_SCB_UART_STOP_BITS_1   = 2U,  /**< UART looks for 1 Stop Bit    */
 434:Generated_Source\PSoC6\pdl\drivers/peripheral/scb/cy_scb_uart.h ****     CY_SCB_UART_STOP_BITS_1_5 = 3U,  /**< UART looks for 1.5 Stop Bits */
 435:Generated_Source\PSoC6\pdl\drivers/peripheral/scb/cy_scb_uart.h ****     CY_SCB_UART_STOP_BITS_2   = 4U,  /**< UART looks for 2 Stop Bits   */
ARM GAS  C:\Users\ISAKVO~1\AppData\Local\Temp\ccR1W42h.s 			page 16


 436:Generated_Source\PSoC6\pdl\drivers/peripheral/scb/cy_scb_uart.h ****     CY_SCB_UART_STOP_BITS_2_5 = 5U,  /**< UART looks for 2.5 Stop Bits */
 437:Generated_Source\PSoC6\pdl\drivers/peripheral/scb/cy_scb_uart.h ****     CY_SCB_UART_STOP_BITS_3   = 6U,  /**< UART looks for 3 Stop Bits   */
 438:Generated_Source\PSoC6\pdl\drivers/peripheral/scb/cy_scb_uart.h ****     CY_SCB_UART_STOP_BITS_3_5 = 7U,  /**< UART looks for 3.5 Stop Bits */
 439:Generated_Source\PSoC6\pdl\drivers/peripheral/scb/cy_scb_uart.h ****     CY_SCB_UART_STOP_BITS_4   = 8U,  /**< UART looks for 4 Stop Bits   */
 440:Generated_Source\PSoC6\pdl\drivers/peripheral/scb/cy_scb_uart.h **** } cy_en_scb_uart_stop_bits_t;
 441:Generated_Source\PSoC6\pdl\drivers/peripheral/scb/cy_scb_uart.h **** 
 442:Generated_Source\PSoC6\pdl\drivers/peripheral/scb/cy_scb_uart.h **** /** UART Parity */
 443:Generated_Source\PSoC6\pdl\drivers/peripheral/scb/cy_scb_uart.h **** typedef enum
 444:Generated_Source\PSoC6\pdl\drivers/peripheral/scb/cy_scb_uart.h **** {
 445:Generated_Source\PSoC6\pdl\drivers/peripheral/scb/cy_scb_uart.h ****     CY_SCB_UART_PARITY_NONE = 0U,    /**< UART has no parity check   */
 446:Generated_Source\PSoC6\pdl\drivers/peripheral/scb/cy_scb_uart.h ****     CY_SCB_UART_PARITY_EVEN = 2U,    /**< UART has even parity check */
 447:Generated_Source\PSoC6\pdl\drivers/peripheral/scb/cy_scb_uart.h ****     CY_SCB_UART_PARITY_ODD  = 3U,    /**< UART has odd parity check  */
 448:Generated_Source\PSoC6\pdl\drivers/peripheral/scb/cy_scb_uart.h **** } cy_en_scb_uart_parity_t;
 449:Generated_Source\PSoC6\pdl\drivers/peripheral/scb/cy_scb_uart.h **** 
 450:Generated_Source\PSoC6\pdl\drivers/peripheral/scb/cy_scb_uart.h **** /** UART Polarity */
 451:Generated_Source\PSoC6\pdl\drivers/peripheral/scb/cy_scb_uart.h **** typedef enum
 452:Generated_Source\PSoC6\pdl\drivers/peripheral/scb/cy_scb_uart.h **** {
 453:Generated_Source\PSoC6\pdl\drivers/peripheral/scb/cy_scb_uart.h ****     CY_SCB_UART_ACTIVE_LOW  = 0U,   /**< Signal is active low */
 454:Generated_Source\PSoC6\pdl\drivers/peripheral/scb/cy_scb_uart.h ****     CY_SCB_UART_ACTIVE_HIGH = 1U,   /**< Signal is active high */
 455:Generated_Source\PSoC6\pdl\drivers/peripheral/scb/cy_scb_uart.h **** } cy_en_scb_uart_polarity_t;
 456:Generated_Source\PSoC6\pdl\drivers/peripheral/scb/cy_scb_uart.h **** /** \} group_scb_uart_enums */
 457:Generated_Source\PSoC6\pdl\drivers/peripheral/scb/cy_scb_uart.h **** 
 458:Generated_Source\PSoC6\pdl\drivers/peripheral/scb/cy_scb_uart.h **** 
 459:Generated_Source\PSoC6\pdl\drivers/peripheral/scb/cy_scb_uart.h **** /*******************************************************************************
 460:Generated_Source\PSoC6\pdl\drivers/peripheral/scb/cy_scb_uart.h **** *                           Type Definitions
 461:Generated_Source\PSoC6\pdl\drivers/peripheral/scb/cy_scb_uart.h **** *******************************************************************************/
 462:Generated_Source\PSoC6\pdl\drivers/peripheral/scb/cy_scb_uart.h **** 
 463:Generated_Source\PSoC6\pdl\drivers/peripheral/scb/cy_scb_uart.h **** /**
 464:Generated_Source\PSoC6\pdl\drivers/peripheral/scb/cy_scb_uart.h **** * \addtogroup group_scb_uart_data_structures
 465:Generated_Source\PSoC6\pdl\drivers/peripheral/scb/cy_scb_uart.h **** * \{
 466:Generated_Source\PSoC6\pdl\drivers/peripheral/scb/cy_scb_uart.h **** */
 467:Generated_Source\PSoC6\pdl\drivers/peripheral/scb/cy_scb_uart.h **** 
 468:Generated_Source\PSoC6\pdl\drivers/peripheral/scb/cy_scb_uart.h **** /**
 469:Generated_Source\PSoC6\pdl\drivers/peripheral/scb/cy_scb_uart.h **** * Provides the typedef for the callback function called in the
 470:Generated_Source\PSoC6\pdl\drivers/peripheral/scb/cy_scb_uart.h **** * \ref Cy_SCB_UART_Interrupt to notify the user about occurrences of
 471:Generated_Source\PSoC6\pdl\drivers/peripheral/scb/cy_scb_uart.h **** * \ref group_scb_uart_macros_callback_events.
 472:Generated_Source\PSoC6\pdl\drivers/peripheral/scb/cy_scb_uart.h **** */
 473:Generated_Source\PSoC6\pdl\drivers/peripheral/scb/cy_scb_uart.h **** typedef void (* cy_cb_scb_uart_handle_events_t)(uint32_t event);
 474:Generated_Source\PSoC6\pdl\drivers/peripheral/scb/cy_scb_uart.h **** 
 475:Generated_Source\PSoC6\pdl\drivers/peripheral/scb/cy_scb_uart.h **** /** UART configuration structure */
 476:Generated_Source\PSoC6\pdl\drivers/peripheral/scb/cy_scb_uart.h **** typedef struct stc_scb_uart_config
 477:Generated_Source\PSoC6\pdl\drivers/peripheral/scb/cy_scb_uart.h **** {
 478:Generated_Source\PSoC6\pdl\drivers/peripheral/scb/cy_scb_uart.h ****     /** Specifies the UART's mode of operation */
 479:Generated_Source\PSoC6\pdl\drivers/peripheral/scb/cy_scb_uart.h ****     cy_en_scb_uart_mode_t    uartMode;
 480:Generated_Source\PSoC6\pdl\drivers/peripheral/scb/cy_scb_uart.h **** 
 481:Generated_Source\PSoC6\pdl\drivers/peripheral/scb/cy_scb_uart.h ****     /**
 482:Generated_Source\PSoC6\pdl\drivers/peripheral/scb/cy_scb_uart.h ****     * Oversample factor for UART.
 483:Generated_Source\PSoC6\pdl\drivers/peripheral/scb/cy_scb_uart.h ****     * * The UART baud rate is the SCB Clock frequency / oversample
 484:Generated_Source\PSoC6\pdl\drivers/peripheral/scb/cy_scb_uart.h ****     *  (valid range is 8-16).
 485:Generated_Source\PSoC6\pdl\drivers/peripheral/scb/cy_scb_uart.h ****     * * For IrDA, the oversample is always 16, unless
 486:Generated_Source\PSoC6\pdl\drivers/peripheral/scb/cy_scb_uart.h ****     * \ref irdaEnableLowPowerReceiver is enabled. Then the oversample is
 487:Generated_Source\PSoC6\pdl\drivers/peripheral/scb/cy_scb_uart.h ****     * reduced to the \ref group_scb_uart_macros_irda_lp_ovs set.
 488:Generated_Source\PSoC6\pdl\drivers/peripheral/scb/cy_scb_uart.h ****     */
 489:Generated_Source\PSoC6\pdl\drivers/peripheral/scb/cy_scb_uart.h ****     uint32_t    oversample;
 490:Generated_Source\PSoC6\pdl\drivers/peripheral/scb/cy_scb_uart.h **** 
 491:Generated_Source\PSoC6\pdl\drivers/peripheral/scb/cy_scb_uart.h ****     /** The width of UART data (valid range is 5 to 9) */
 492:Generated_Source\PSoC6\pdl\drivers/peripheral/scb/cy_scb_uart.h ****     uint32_t    dataWidth;
ARM GAS  C:\Users\ISAKVO~1\AppData\Local\Temp\ccR1W42h.s 			page 17


 493:Generated_Source\PSoC6\pdl\drivers/peripheral/scb/cy_scb_uart.h **** 
 494:Generated_Source\PSoC6\pdl\drivers/peripheral/scb/cy_scb_uart.h ****     /**
 495:Generated_Source\PSoC6\pdl\drivers/peripheral/scb/cy_scb_uart.h ****     * Enables the hardware to shift out data element MSB first; otherwise,
 496:Generated_Source\PSoC6\pdl\drivers/peripheral/scb/cy_scb_uart.h ****     * LSB first
 497:Generated_Source\PSoC6\pdl\drivers/peripheral/scb/cy_scb_uart.h ****     */
 498:Generated_Source\PSoC6\pdl\drivers/peripheral/scb/cy_scb_uart.h ****     bool        enableMsbFirst;
 499:Generated_Source\PSoC6\pdl\drivers/peripheral/scb/cy_scb_uart.h **** 
 500:Generated_Source\PSoC6\pdl\drivers/peripheral/scb/cy_scb_uart.h ****     /**
 501:Generated_Source\PSoC6\pdl\drivers/peripheral/scb/cy_scb_uart.h ****     * Specifies the number of stop bits in the UART transaction, in half-bit
 502:Generated_Source\PSoC6\pdl\drivers/peripheral/scb/cy_scb_uart.h ****     * increments
 503:Generated_Source\PSoC6\pdl\drivers/peripheral/scb/cy_scb_uart.h ****     */
 504:Generated_Source\PSoC6\pdl\drivers/peripheral/scb/cy_scb_uart.h ****     cy_en_scb_uart_stop_bits_t    stopBits;
 505:Generated_Source\PSoC6\pdl\drivers/peripheral/scb/cy_scb_uart.h **** 
 506:Generated_Source\PSoC6\pdl\drivers/peripheral/scb/cy_scb_uart.h ****     /** Configures the UART parity */
 507:Generated_Source\PSoC6\pdl\drivers/peripheral/scb/cy_scb_uart.h ****     cy_en_scb_uart_parity_t    parity;
 508:Generated_Source\PSoC6\pdl\drivers/peripheral/scb/cy_scb_uart.h **** 
 509:Generated_Source\PSoC6\pdl\drivers/peripheral/scb/cy_scb_uart.h ****     /**
 510:Generated_Source\PSoC6\pdl\drivers/peripheral/scb/cy_scb_uart.h ****     * Enables a digital 3-tap median filter (2 out of 3 voting) to be applied 
 511:Generated_Source\PSoC6\pdl\drivers/peripheral/scb/cy_scb_uart.h ****     * to the input of the RX FIFO to filter glitches on the line (for IrDA, 
 512:Generated_Source\PSoC6\pdl\drivers/peripheral/scb/cy_scb_uart.h ****     * this parameter is ignored)
 513:Generated_Source\PSoC6\pdl\drivers/peripheral/scb/cy_scb_uart.h ****     *
 514:Generated_Source\PSoC6\pdl\drivers/peripheral/scb/cy_scb_uart.h ****     */
 515:Generated_Source\PSoC6\pdl\drivers/peripheral/scb/cy_scb_uart.h ****     bool        enableInputFilter;
 516:Generated_Source\PSoC6\pdl\drivers/peripheral/scb/cy_scb_uart.h **** 
 517:Generated_Source\PSoC6\pdl\drivers/peripheral/scb/cy_scb_uart.h ****     /**
 518:Generated_Source\PSoC6\pdl\drivers/peripheral/scb/cy_scb_uart.h ****     * Enables the hardware to drop data in the RX FIFO when a parity error is
 519:Generated_Source\PSoC6\pdl\drivers/peripheral/scb/cy_scb_uart.h ****     * detected
 520:Generated_Source\PSoC6\pdl\drivers/peripheral/scb/cy_scb_uart.h ****     */
 521:Generated_Source\PSoC6\pdl\drivers/peripheral/scb/cy_scb_uart.h ****     bool        dropOnParityError;
 522:Generated_Source\PSoC6\pdl\drivers/peripheral/scb/cy_scb_uart.h **** 
 523:Generated_Source\PSoC6\pdl\drivers/peripheral/scb/cy_scb_uart.h ****     /**
 524:Generated_Source\PSoC6\pdl\drivers/peripheral/scb/cy_scb_uart.h ****     * Enables the hardware to drop data in the RX FIFO when a frame error is
 525:Generated_Source\PSoC6\pdl\drivers/peripheral/scb/cy_scb_uart.h ****     * detected
 526:Generated_Source\PSoC6\pdl\drivers/peripheral/scb/cy_scb_uart.h ****     */
 527:Generated_Source\PSoC6\pdl\drivers/peripheral/scb/cy_scb_uart.h ****     bool        dropOnFrameError;
 528:Generated_Source\PSoC6\pdl\drivers/peripheral/scb/cy_scb_uart.h **** 
 529:Generated_Source\PSoC6\pdl\drivers/peripheral/scb/cy_scb_uart.h ****     /**
 530:Generated_Source\PSoC6\pdl\drivers/peripheral/scb/cy_scb_uart.h ****     * Enables the UART operation in Multi-Processor mode which requires
 531:Generated_Source\PSoC6\pdl\drivers/peripheral/scb/cy_scb_uart.h ****     * dataWidth to be 9 bits (the 9th bit is used to indicate address byte)
 532:Generated_Source\PSoC6\pdl\drivers/peripheral/scb/cy_scb_uart.h ****     */
 533:Generated_Source\PSoC6\pdl\drivers/peripheral/scb/cy_scb_uart.h ****     bool        enableMutliProcessorMode;
 534:Generated_Source\PSoC6\pdl\drivers/peripheral/scb/cy_scb_uart.h **** 
 535:Generated_Source\PSoC6\pdl\drivers/peripheral/scb/cy_scb_uart.h ****     /**
 536:Generated_Source\PSoC6\pdl\drivers/peripheral/scb/cy_scb_uart.h ****     * If Multi Processor mode is enabled, this is the address of the RX
 537:Generated_Source\PSoC6\pdl\drivers/peripheral/scb/cy_scb_uart.h ****     * FIFO. If the address matches, data is accepted into the FIFO. If
 538:Generated_Source\PSoC6\pdl\drivers/peripheral/scb/cy_scb_uart.h ****     * it does not match, the data is ignored.
 539:Generated_Source\PSoC6\pdl\drivers/peripheral/scb/cy_scb_uart.h ****     */
 540:Generated_Source\PSoC6\pdl\drivers/peripheral/scb/cy_scb_uart.h ****     uint32_t    receiverAddress;
 541:Generated_Source\PSoC6\pdl\drivers/peripheral/scb/cy_scb_uart.h **** 
 542:Generated_Source\PSoC6\pdl\drivers/peripheral/scb/cy_scb_uart.h ****     /**
 543:Generated_Source\PSoC6\pdl\drivers/peripheral/scb/cy_scb_uart.h ****     * This is the address mask for the Multi Processor address. 1 indicates
 544:Generated_Source\PSoC6\pdl\drivers/peripheral/scb/cy_scb_uart.h ****     * that the incoming address must match the corresponding bit in the slave
 545:Generated_Source\PSoC6\pdl\drivers/peripheral/scb/cy_scb_uart.h ****     * address. A 0 in the mask indicates that the incoming address does
 546:Generated_Source\PSoC6\pdl\drivers/peripheral/scb/cy_scb_uart.h ****     * not need to match.
 547:Generated_Source\PSoC6\pdl\drivers/peripheral/scb/cy_scb_uart.h ****     */
 548:Generated_Source\PSoC6\pdl\drivers/peripheral/scb/cy_scb_uart.h ****     uint32_t    receiverAddressMask;
 549:Generated_Source\PSoC6\pdl\drivers/peripheral/scb/cy_scb_uart.h **** 
ARM GAS  C:\Users\ISAKVO~1\AppData\Local\Temp\ccR1W42h.s 			page 18


 550:Generated_Source\PSoC6\pdl\drivers/peripheral/scb/cy_scb_uart.h ****     /**
 551:Generated_Source\PSoC6\pdl\drivers/peripheral/scb/cy_scb_uart.h ****     * Enables the hardware to accept the matching address in the RX FIFO.
 552:Generated_Source\PSoC6\pdl\drivers/peripheral/scb/cy_scb_uart.h ****     * This is useful when the device supports more than one address.
 553:Generated_Source\PSoC6\pdl\drivers/peripheral/scb/cy_scb_uart.h ****     */
 554:Generated_Source\PSoC6\pdl\drivers/peripheral/scb/cy_scb_uart.h ****     bool        acceptAddrInFifo;
 555:Generated_Source\PSoC6\pdl\drivers/peripheral/scb/cy_scb_uart.h **** 
 556:Generated_Source\PSoC6\pdl\drivers/peripheral/scb/cy_scb_uart.h ****     /** Inverts the IrDA RX input */
 557:Generated_Source\PSoC6\pdl\drivers/peripheral/scb/cy_scb_uart.h ****     bool        irdaInvertRx;
 558:Generated_Source\PSoC6\pdl\drivers/peripheral/scb/cy_scb_uart.h **** 
 559:Generated_Source\PSoC6\pdl\drivers/peripheral/scb/cy_scb_uart.h ****     /**
 560:Generated_Source\PSoC6\pdl\drivers/peripheral/scb/cy_scb_uart.h ****     * Enables the low-power receive for IrDA mode.
 561:Generated_Source\PSoC6\pdl\drivers/peripheral/scb/cy_scb_uart.h ****     * Note that the transmission must be disabled if this mode is enabled.
 562:Generated_Source\PSoC6\pdl\drivers/peripheral/scb/cy_scb_uart.h ****     */
 563:Generated_Source\PSoC6\pdl\drivers/peripheral/scb/cy_scb_uart.h ****     bool        irdaEnableLowPowerReceiver;
 564:Generated_Source\PSoC6\pdl\drivers/peripheral/scb/cy_scb_uart.h **** 
 565:Generated_Source\PSoC6\pdl\drivers/peripheral/scb/cy_scb_uart.h ****     /**
 566:Generated_Source\PSoC6\pdl\drivers/peripheral/scb/cy_scb_uart.h ****     * Enables retransmission of the frame placed in the TX FIFO when
 567:Generated_Source\PSoC6\pdl\drivers/peripheral/scb/cy_scb_uart.h ****     * NACK is received in SmartCard mode (for Standard and IrDA , this parameter
 568:Generated_Source\PSoC6\pdl\drivers/peripheral/scb/cy_scb_uart.h ****     * is ignored)
 569:Generated_Source\PSoC6\pdl\drivers/peripheral/scb/cy_scb_uart.h ****     */
 570:Generated_Source\PSoC6\pdl\drivers/peripheral/scb/cy_scb_uart.h ****     bool        smartCardRetryOnNack;
 571:Generated_Source\PSoC6\pdl\drivers/peripheral/scb/cy_scb_uart.h **** 
 572:Generated_Source\PSoC6\pdl\drivers/peripheral/scb/cy_scb_uart.h ****     /**
 573:Generated_Source\PSoC6\pdl\drivers/peripheral/scb/cy_scb_uart.h ****     * Enables the usage of the CTS input signal for the transmitter. The
 574:Generated_Source\PSoC6\pdl\drivers/peripheral/scb/cy_scb_uart.h ****     * transmitter waits for CTS to be active before sending data
 575:Generated_Source\PSoC6\pdl\drivers/peripheral/scb/cy_scb_uart.h ****     */
 576:Generated_Source\PSoC6\pdl\drivers/peripheral/scb/cy_scb_uart.h ****     bool        enableCts;
 577:Generated_Source\PSoC6\pdl\drivers/peripheral/scb/cy_scb_uart.h **** 
 578:Generated_Source\PSoC6\pdl\drivers/peripheral/scb/cy_scb_uart.h ****     /** Sets the CTS Polarity */
 579:Generated_Source\PSoC6\pdl\drivers/peripheral/scb/cy_scb_uart.h ****     cy_en_scb_uart_polarity_t    ctsPolarity;
 580:Generated_Source\PSoC6\pdl\drivers/peripheral/scb/cy_scb_uart.h **** 
 581:Generated_Source\PSoC6\pdl\drivers/peripheral/scb/cy_scb_uart.h ****     /**
 582:Generated_Source\PSoC6\pdl\drivers/peripheral/scb/cy_scb_uart.h ****     * When the RX FIFO has fewer entries than rtsRxFifoLevel, the
 583:Generated_Source\PSoC6\pdl\drivers/peripheral/scb/cy_scb_uart.h ****     * RTS signal is active (note to disable RTS, set this field to zero)
 584:Generated_Source\PSoC6\pdl\drivers/peripheral/scb/cy_scb_uart.h ****     */
 585:Generated_Source\PSoC6\pdl\drivers/peripheral/scb/cy_scb_uart.h ****     uint32_t    rtsRxFifoLevel;
 586:Generated_Source\PSoC6\pdl\drivers/peripheral/scb/cy_scb_uart.h **** 
 587:Generated_Source\PSoC6\pdl\drivers/peripheral/scb/cy_scb_uart.h ****     /** Sets the RTS Polarity */
 588:Generated_Source\PSoC6\pdl\drivers/peripheral/scb/cy_scb_uart.h ****     cy_en_scb_uart_polarity_t    rtsPolarity;
 589:Generated_Source\PSoC6\pdl\drivers/peripheral/scb/cy_scb_uart.h **** 
 590:Generated_Source\PSoC6\pdl\drivers/peripheral/scb/cy_scb_uart.h ****     /** Specifies the number of bits to detect a break condition */
 591:Generated_Source\PSoC6\pdl\drivers/peripheral/scb/cy_scb_uart.h ****     uint32_t    breakWidth;
 592:Generated_Source\PSoC6\pdl\drivers/peripheral/scb/cy_scb_uart.h **** 
 593:Generated_Source\PSoC6\pdl\drivers/peripheral/scb/cy_scb_uart.h ****     /**
 594:Generated_Source\PSoC6\pdl\drivers/peripheral/scb/cy_scb_uart.h ****     * When there are more entries in the RX FIFO than this level
 595:Generated_Source\PSoC6\pdl\drivers/peripheral/scb/cy_scb_uart.h ****     * the RX trigger output goes high. This output can be connected
 596:Generated_Source\PSoC6\pdl\drivers/peripheral/scb/cy_scb_uart.h ****     * to a DMA channel through a trigger mux.
 597:Generated_Source\PSoC6\pdl\drivers/peripheral/scb/cy_scb_uart.h ****     * Also, it controls the \ref CY_SCB_UART_RX_TRIGGER interrupt source.
 598:Generated_Source\PSoC6\pdl\drivers/peripheral/scb/cy_scb_uart.h ****     */
 599:Generated_Source\PSoC6\pdl\drivers/peripheral/scb/cy_scb_uart.h ****     uint32_t    rxFifoTriggerLevel;
 600:Generated_Source\PSoC6\pdl\drivers/peripheral/scb/cy_scb_uart.h **** 
 601:Generated_Source\PSoC6\pdl\drivers/peripheral/scb/cy_scb_uart.h ****     /**
 602:Generated_Source\PSoC6\pdl\drivers/peripheral/scb/cy_scb_uart.h ****     * The bits set in this mask allow the event to cause an interrupt
 603:Generated_Source\PSoC6\pdl\drivers/peripheral/scb/cy_scb_uart.h ****     * (See \ref group_scb_uart_macros_rx_fifo_status for the set of constants)
 604:Generated_Source\PSoC6\pdl\drivers/peripheral/scb/cy_scb_uart.h ****     */
 605:Generated_Source\PSoC6\pdl\drivers/peripheral/scb/cy_scb_uart.h ****     uint32_t    rxFifoIntEnableMask;
 606:Generated_Source\PSoC6\pdl\drivers/peripheral/scb/cy_scb_uart.h **** 
ARM GAS  C:\Users\ISAKVO~1\AppData\Local\Temp\ccR1W42h.s 			page 19


 607:Generated_Source\PSoC6\pdl\drivers/peripheral/scb/cy_scb_uart.h ****     /**
 608:Generated_Source\PSoC6\pdl\drivers/peripheral/scb/cy_scb_uart.h ****     * When there are fewer entries in the TX FIFO then this level
 609:Generated_Source\PSoC6\pdl\drivers/peripheral/scb/cy_scb_uart.h ****     * the TX trigger output goes high. This output can be connected
 610:Generated_Source\PSoC6\pdl\drivers/peripheral/scb/cy_scb_uart.h ****     * to a DMA channel through a trigger mux.
 611:Generated_Source\PSoC6\pdl\drivers/peripheral/scb/cy_scb_uart.h ****     * Also, it controls \ref CY_SCB_UART_TX_TRIGGER interrupt source.
 612:Generated_Source\PSoC6\pdl\drivers/peripheral/scb/cy_scb_uart.h ****     */
 613:Generated_Source\PSoC6\pdl\drivers/peripheral/scb/cy_scb_uart.h ****     uint32_t    txFifoTriggerLevel;
 614:Generated_Source\PSoC6\pdl\drivers/peripheral/scb/cy_scb_uart.h **** 
 615:Generated_Source\PSoC6\pdl\drivers/peripheral/scb/cy_scb_uart.h ****     /**
 616:Generated_Source\PSoC6\pdl\drivers/peripheral/scb/cy_scb_uart.h ****     * Bits set in this mask allows the event to cause an interrupt
 617:Generated_Source\PSoC6\pdl\drivers/peripheral/scb/cy_scb_uart.h ****     * (See \ref group_scb_uart_macros_tx_fifo_status for the set of constants)
 618:Generated_Source\PSoC6\pdl\drivers/peripheral/scb/cy_scb_uart.h ****     */
 619:Generated_Source\PSoC6\pdl\drivers/peripheral/scb/cy_scb_uart.h ****     uint32_t    txFifoIntEnableMask;
 620:Generated_Source\PSoC6\pdl\drivers/peripheral/scb/cy_scb_uart.h **** } cy_stc_scb_uart_config_t;
 621:Generated_Source\PSoC6\pdl\drivers/peripheral/scb/cy_scb_uart.h **** 
 622:Generated_Source\PSoC6\pdl\drivers/peripheral/scb/cy_scb_uart.h **** /** UART context structure.
 623:Generated_Source\PSoC6\pdl\drivers/peripheral/scb/cy_scb_uart.h **** * All fields for the context structure are internal. Firmware never reads or
 624:Generated_Source\PSoC6\pdl\drivers/peripheral/scb/cy_scb_uart.h **** * writes these values. Firmware allocates the structure and provides the
 625:Generated_Source\PSoC6\pdl\drivers/peripheral/scb/cy_scb_uart.h **** * address of the structure to the driver in function calls. Firmware must
 626:Generated_Source\PSoC6\pdl\drivers/peripheral/scb/cy_scb_uart.h **** * ensure that the defined instance of this structure remains in scope
 627:Generated_Source\PSoC6\pdl\drivers/peripheral/scb/cy_scb_uart.h **** * while the drive is in use.
 628:Generated_Source\PSoC6\pdl\drivers/peripheral/scb/cy_scb_uart.h **** */
 629:Generated_Source\PSoC6\pdl\drivers/peripheral/scb/cy_scb_uart.h **** typedef struct cy_stc_scb_uart_context
 630:Generated_Source\PSoC6\pdl\drivers/peripheral/scb/cy_scb_uart.h **** {
 631:Generated_Source\PSoC6\pdl\drivers/peripheral/scb/cy_scb_uart.h ****     /** \cond INTERNAL */
 632:Generated_Source\PSoC6\pdl\drivers/peripheral/scb/cy_scb_uart.h ****     uint32_t volatile txStatus;         /**< The transmit status */
 633:Generated_Source\PSoC6\pdl\drivers/peripheral/scb/cy_scb_uart.h ****     uint32_t volatile rxStatus;         /**< The receive status */
 634:Generated_Source\PSoC6\pdl\drivers/peripheral/scb/cy_scb_uart.h **** 
 635:Generated_Source\PSoC6\pdl\drivers/peripheral/scb/cy_scb_uart.h ****     void     *rxRingBuf;                /**< The pointer to the ring buffer */
 636:Generated_Source\PSoC6\pdl\drivers/peripheral/scb/cy_scb_uart.h ****     uint32_t  rxRingBufSize;            /**< The ring buffer size */
 637:Generated_Source\PSoC6\pdl\drivers/peripheral/scb/cy_scb_uart.h ****     uint32_t volatile rxRingBufHead;    /**< The ring buffer head index */
 638:Generated_Source\PSoC6\pdl\drivers/peripheral/scb/cy_scb_uart.h ****     uint32_t volatile rxRingBufTail;    /**< The ring buffer tail index */
 639:Generated_Source\PSoC6\pdl\drivers/peripheral/scb/cy_scb_uart.h **** 
 640:Generated_Source\PSoC6\pdl\drivers/peripheral/scb/cy_scb_uart.h ****     void     *rxBuf;                    /**< The pointer to the receive buffer */
 641:Generated_Source\PSoC6\pdl\drivers/peripheral/scb/cy_scb_uart.h ****     uint32_t  rxBufSize;                /**< The receive buffer size */
 642:Generated_Source\PSoC6\pdl\drivers/peripheral/scb/cy_scb_uart.h ****     uint32_t volatile rxBufIdx;         /**< The current location in the receive buffer */
 643:Generated_Source\PSoC6\pdl\drivers/peripheral/scb/cy_scb_uart.h **** 
 644:Generated_Source\PSoC6\pdl\drivers/peripheral/scb/cy_scb_uart.h ****     void     *txBuf;                    /**< The pointer to the transmit buffer */
 645:Generated_Source\PSoC6\pdl\drivers/peripheral/scb/cy_scb_uart.h ****     uint32_t  txBufSize;                /**< The transmit buffer size */
 646:Generated_Source\PSoC6\pdl\drivers/peripheral/scb/cy_scb_uart.h ****     uint32_t volatile txLeftToTransmit; /**< The number of data elements left to be transmitted */
 647:Generated_Source\PSoC6\pdl\drivers/peripheral/scb/cy_scb_uart.h **** 
 648:Generated_Source\PSoC6\pdl\drivers/peripheral/scb/cy_scb_uart.h ****     /** The pointer to an event callback that is called when any of
 649:Generated_Source\PSoC6\pdl\drivers/peripheral/scb/cy_scb_uart.h ****     * \ref group_scb_uart_macros_callback_events occurs
 650:Generated_Source\PSoC6\pdl\drivers/peripheral/scb/cy_scb_uart.h ****     */
 651:Generated_Source\PSoC6\pdl\drivers/peripheral/scb/cy_scb_uart.h ****     cy_cb_scb_uart_handle_events_t cbEvents;
 652:Generated_Source\PSoC6\pdl\drivers/peripheral/scb/cy_scb_uart.h **** 
 653:Generated_Source\PSoC6\pdl\drivers/peripheral/scb/cy_scb_uart.h **** #if !defined(NDEBUG)
 654:Generated_Source\PSoC6\pdl\drivers/peripheral/scb/cy_scb_uart.h ****     uint32_t initKey;               /**< Tracks the context initialization */
 655:Generated_Source\PSoC6\pdl\drivers/peripheral/scb/cy_scb_uart.h **** #endif /* !(NDEBUG) */
 656:Generated_Source\PSoC6\pdl\drivers/peripheral/scb/cy_scb_uart.h ****     /** \endcond */
 657:Generated_Source\PSoC6\pdl\drivers/peripheral/scb/cy_scb_uart.h **** } cy_stc_scb_uart_context_t;
 658:Generated_Source\PSoC6\pdl\drivers/peripheral/scb/cy_scb_uart.h **** /** \} group_scb_uart_data_structures */
 659:Generated_Source\PSoC6\pdl\drivers/peripheral/scb/cy_scb_uart.h **** 
 660:Generated_Source\PSoC6\pdl\drivers/peripheral/scb/cy_scb_uart.h **** 
 661:Generated_Source\PSoC6\pdl\drivers/peripheral/scb/cy_scb_uart.h **** /*******************************************************************************
 662:Generated_Source\PSoC6\pdl\drivers/peripheral/scb/cy_scb_uart.h **** *                           Function Prototypes
 663:Generated_Source\PSoC6\pdl\drivers/peripheral/scb/cy_scb_uart.h **** *******************************************************************************/
ARM GAS  C:\Users\ISAKVO~1\AppData\Local\Temp\ccR1W42h.s 			page 20


 664:Generated_Source\PSoC6\pdl\drivers/peripheral/scb/cy_scb_uart.h **** 
 665:Generated_Source\PSoC6\pdl\drivers/peripheral/scb/cy_scb_uart.h **** /**
 666:Generated_Source\PSoC6\pdl\drivers/peripheral/scb/cy_scb_uart.h **** * \addtogroup group_scb_uart_general_functions
 667:Generated_Source\PSoC6\pdl\drivers/peripheral/scb/cy_scb_uart.h **** * \{
 668:Generated_Source\PSoC6\pdl\drivers/peripheral/scb/cy_scb_uart.h **** */
 669:Generated_Source\PSoC6\pdl\drivers/peripheral/scb/cy_scb_uart.h **** cy_en_scb_uart_status_t Cy_SCB_UART_Init(CySCB_Type *base, cy_stc_scb_uart_config_t const *config,
 670:Generated_Source\PSoC6\pdl\drivers/peripheral/scb/cy_scb_uart.h ****                                          cy_stc_scb_uart_context_t *context);
 671:Generated_Source\PSoC6\pdl\drivers/peripheral/scb/cy_scb_uart.h **** void Cy_SCB_UART_DeInit (CySCB_Type *base);
 672:Generated_Source\PSoC6\pdl\drivers/peripheral/scb/cy_scb_uart.h **** __STATIC_INLINE void Cy_SCB_UART_Enable(CySCB_Type *base);
 673:Generated_Source\PSoC6\pdl\drivers/peripheral/scb/cy_scb_uart.h **** void Cy_SCB_UART_Disable(CySCB_Type *base, cy_stc_scb_uart_context_t *context);
 674:Generated_Source\PSoC6\pdl\drivers/peripheral/scb/cy_scb_uart.h **** 
 675:Generated_Source\PSoC6\pdl\drivers/peripheral/scb/cy_scb_uart.h **** __STATIC_INLINE void     Cy_SCB_UART_EnableCts      (CySCB_Type *base);
 676:Generated_Source\PSoC6\pdl\drivers/peripheral/scb/cy_scb_uart.h **** __STATIC_INLINE void     Cy_SCB_UART_DisableCts     (CySCB_Type *base);
 677:Generated_Source\PSoC6\pdl\drivers/peripheral/scb/cy_scb_uart.h **** __STATIC_INLINE void     Cy_SCB_UART_SetRtsFifoLevel(CySCB_Type *base, uint32_t level);
 678:Generated_Source\PSoC6\pdl\drivers/peripheral/scb/cy_scb_uart.h **** __STATIC_INLINE uint32_t Cy_SCB_UART_GetRtsFifoLevel(CySCB_Type const *base);
 679:Generated_Source\PSoC6\pdl\drivers/peripheral/scb/cy_scb_uart.h **** 
 680:Generated_Source\PSoC6\pdl\drivers/peripheral/scb/cy_scb_uart.h **** __STATIC_INLINE void Cy_SCB_UART_EnableSkipStart (CySCB_Type *base);
 681:Generated_Source\PSoC6\pdl\drivers/peripheral/scb/cy_scb_uart.h **** __STATIC_INLINE void Cy_SCB_UART_DisableSkipStart(CySCB_Type *base);
 682:Generated_Source\PSoC6\pdl\drivers/peripheral/scb/cy_scb_uart.h **** /** \} group_scb_uart_general_functions */
 683:Generated_Source\PSoC6\pdl\drivers/peripheral/scb/cy_scb_uart.h **** 
 684:Generated_Source\PSoC6\pdl\drivers/peripheral/scb/cy_scb_uart.h **** /**
 685:Generated_Source\PSoC6\pdl\drivers/peripheral/scb/cy_scb_uart.h **** * \addtogroup group_scb_uart_high_level_functions
 686:Generated_Source\PSoC6\pdl\drivers/peripheral/scb/cy_scb_uart.h **** * \{
 687:Generated_Source\PSoC6\pdl\drivers/peripheral/scb/cy_scb_uart.h **** */
 688:Generated_Source\PSoC6\pdl\drivers/peripheral/scb/cy_scb_uart.h **** void     Cy_SCB_UART_StartRingBuffer   (CySCB_Type *base, void *buffer, uint32_t size,
 689:Generated_Source\PSoC6\pdl\drivers/peripheral/scb/cy_scb_uart.h ****                                         cy_stc_scb_uart_context_t *context);
 690:Generated_Source\PSoC6\pdl\drivers/peripheral/scb/cy_scb_uart.h **** void     Cy_SCB_UART_StopRingBuffer    (CySCB_Type *base, cy_stc_scb_uart_context_t *context);
 691:Generated_Source\PSoC6\pdl\drivers/peripheral/scb/cy_scb_uart.h **** uint32_t Cy_SCB_UART_GetNumInRingBuffer(CySCB_Type const *base, cy_stc_scb_uart_context_t const *co
 692:Generated_Source\PSoC6\pdl\drivers/peripheral/scb/cy_scb_uart.h **** void     Cy_SCB_UART_ClearRingBuffer   (CySCB_Type const *base, cy_stc_scb_uart_context_t *context)
 693:Generated_Source\PSoC6\pdl\drivers/peripheral/scb/cy_scb_uart.h **** 
 694:Generated_Source\PSoC6\pdl\drivers/peripheral/scb/cy_scb_uart.h **** cy_en_scb_uart_status_t Cy_SCB_UART_Receive(CySCB_Type *base, void *buffer, uint32_t size,
 695:Generated_Source\PSoC6\pdl\drivers/peripheral/scb/cy_scb_uart.h ****                                             cy_stc_scb_uart_context_t *context);
 696:Generated_Source\PSoC6\pdl\drivers/peripheral/scb/cy_scb_uart.h **** void     Cy_SCB_UART_AbortReceive    (CySCB_Type *base, cy_stc_scb_uart_context_t *context);
 697:Generated_Source\PSoC6\pdl\drivers/peripheral/scb/cy_scb_uart.h **** uint32_t Cy_SCB_UART_GetReceiveStatus(CySCB_Type const *base, cy_stc_scb_uart_context_t const *cont
 698:Generated_Source\PSoC6\pdl\drivers/peripheral/scb/cy_scb_uart.h **** uint32_t Cy_SCB_UART_GetNumReceived  (CySCB_Type const *base, cy_stc_scb_uart_context_t const *cont
 699:Generated_Source\PSoC6\pdl\drivers/peripheral/scb/cy_scb_uart.h **** 
 700:Generated_Source\PSoC6\pdl\drivers/peripheral/scb/cy_scb_uart.h **** cy_en_scb_uart_status_t Cy_SCB_UART_Transmit(CySCB_Type *base, void *buffer, uint32_t size,
 701:Generated_Source\PSoC6\pdl\drivers/peripheral/scb/cy_scb_uart.h ****                                              cy_stc_scb_uart_context_t *context);
 702:Generated_Source\PSoC6\pdl\drivers/peripheral/scb/cy_scb_uart.h **** void     Cy_SCB_UART_AbortTransmit       (CySCB_Type *base, cy_stc_scb_uart_context_t *context);
 703:Generated_Source\PSoC6\pdl\drivers/peripheral/scb/cy_scb_uart.h **** uint32_t Cy_SCB_UART_GetTransmitStatus   (CySCB_Type const *base, cy_stc_scb_uart_context_t const *
 704:Generated_Source\PSoC6\pdl\drivers/peripheral/scb/cy_scb_uart.h **** uint32_t Cy_SCB_UART_GetNumLeftToTransmit(CySCB_Type const *base, cy_stc_scb_uart_context_t const *
 705:Generated_Source\PSoC6\pdl\drivers/peripheral/scb/cy_scb_uart.h **** /** \} group_scb_uart_high_level_functions */
 706:Generated_Source\PSoC6\pdl\drivers/peripheral/scb/cy_scb_uart.h **** 
 707:Generated_Source\PSoC6\pdl\drivers/peripheral/scb/cy_scb_uart.h **** /**
 708:Generated_Source\PSoC6\pdl\drivers/peripheral/scb/cy_scb_uart.h **** * \addtogroup group_scb_uart_low_level_functions
 709:Generated_Source\PSoC6\pdl\drivers/peripheral/scb/cy_scb_uart.h **** * \{
 710:Generated_Source\PSoC6\pdl\drivers/peripheral/scb/cy_scb_uart.h **** */
 711:Generated_Source\PSoC6\pdl\drivers/peripheral/scb/cy_scb_uart.h **** __STATIC_INLINE uint32_t Cy_SCB_UART_Put             (CySCB_Type *base, uint32_t data);
 712:Generated_Source\PSoC6\pdl\drivers/peripheral/scb/cy_scb_uart.h **** __STATIC_INLINE uint32_t Cy_SCB_UART_PutArray        (CySCB_Type *base, void *buffer, uint32_t size
 713:Generated_Source\PSoC6\pdl\drivers/peripheral/scb/cy_scb_uart.h **** __STATIC_INLINE void     Cy_SCB_UART_PutArrayBlocking(CySCB_Type *base, void *buffer, uint32_t size
 714:Generated_Source\PSoC6\pdl\drivers/peripheral/scb/cy_scb_uart.h **** __STATIC_INLINE void     Cy_SCB_UART_PutString       (CySCB_Type *base, char_t const string[]);
 715:Generated_Source\PSoC6\pdl\drivers/peripheral/scb/cy_scb_uart.h **** void Cy_SCB_UART_SendBreakBlocking(CySCB_Type *base, uint32_t breakWidth);
 716:Generated_Source\PSoC6\pdl\drivers/peripheral/scb/cy_scb_uart.h **** 
 717:Generated_Source\PSoC6\pdl\drivers/peripheral/scb/cy_scb_uart.h **** __STATIC_INLINE uint32_t Cy_SCB_UART_Get             (CySCB_Type const *base);
 718:Generated_Source\PSoC6\pdl\drivers/peripheral/scb/cy_scb_uart.h **** __STATIC_INLINE uint32_t Cy_SCB_UART_GetArray        (CySCB_Type const *base, void *buffer, uint32_
 719:Generated_Source\PSoC6\pdl\drivers/peripheral/scb/cy_scb_uart.h **** __STATIC_INLINE void     Cy_SCB_UART_GetArrayBlocking(CySCB_Type const *base, void *buffer, uint32_
 720:Generated_Source\PSoC6\pdl\drivers/peripheral/scb/cy_scb_uart.h **** 
ARM GAS  C:\Users\ISAKVO~1\AppData\Local\Temp\ccR1W42h.s 			page 21


 721:Generated_Source\PSoC6\pdl\drivers/peripheral/scb/cy_scb_uart.h **** __STATIC_INLINE uint32_t Cy_SCB_UART_GetTxFifoStatus  (CySCB_Type const *base);
 722:Generated_Source\PSoC6\pdl\drivers/peripheral/scb/cy_scb_uart.h **** __STATIC_INLINE void     Cy_SCB_UART_ClearTxFifoStatus(CySCB_Type *base, uint32_t clearMask);
 723:Generated_Source\PSoC6\pdl\drivers/peripheral/scb/cy_scb_uart.h **** 
 724:Generated_Source\PSoC6\pdl\drivers/peripheral/scb/cy_scb_uart.h **** __STATIC_INLINE uint32_t Cy_SCB_UART_GetRxFifoStatus  (CySCB_Type const *base);
 725:Generated_Source\PSoC6\pdl\drivers/peripheral/scb/cy_scb_uart.h **** __STATIC_INLINE void     Cy_SCB_UART_ClearRxFifoStatus(CySCB_Type *base, uint32_t clearMask);
 726:Generated_Source\PSoC6\pdl\drivers/peripheral/scb/cy_scb_uart.h **** 
 727:Generated_Source\PSoC6\pdl\drivers/peripheral/scb/cy_scb_uart.h **** __STATIC_INLINE uint32_t Cy_SCB_UART_GetNumInTxFifo   (CySCB_Type const *base);
 728:Generated_Source\PSoC6\pdl\drivers/peripheral/scb/cy_scb_uart.h **** __STATIC_INLINE bool     Cy_SCB_UART_IsTxComplete     (CySCB_Type const *base);
 729:Generated_Source\PSoC6\pdl\drivers/peripheral/scb/cy_scb_uart.h **** 
 730:Generated_Source\PSoC6\pdl\drivers/peripheral/scb/cy_scb_uart.h **** __STATIC_INLINE uint32_t Cy_SCB_UART_GetNumInRxFifo   (CySCB_Type const *base);
 731:Generated_Source\PSoC6\pdl\drivers/peripheral/scb/cy_scb_uart.h **** 
 732:Generated_Source\PSoC6\pdl\drivers/peripheral/scb/cy_scb_uart.h **** __STATIC_INLINE void     Cy_SCB_UART_ClearRxFifo      (CySCB_Type *base);
 733:Generated_Source\PSoC6\pdl\drivers/peripheral/scb/cy_scb_uart.h **** __STATIC_INLINE void     Cy_SCB_UART_ClearTxFifo      (CySCB_Type *base);
 734:Generated_Source\PSoC6\pdl\drivers/peripheral/scb/cy_scb_uart.h **** /** \} group_scb_uart_low_level_functions */
 735:Generated_Source\PSoC6\pdl\drivers/peripheral/scb/cy_scb_uart.h **** 
 736:Generated_Source\PSoC6\pdl\drivers/peripheral/scb/cy_scb_uart.h **** /**
 737:Generated_Source\PSoC6\pdl\drivers/peripheral/scb/cy_scb_uart.h **** * \addtogroup group_scb_uart_interrupt_functions
 738:Generated_Source\PSoC6\pdl\drivers/peripheral/scb/cy_scb_uart.h **** * \{
 739:Generated_Source\PSoC6\pdl\drivers/peripheral/scb/cy_scb_uart.h **** */
 740:Generated_Source\PSoC6\pdl\drivers/peripheral/scb/cy_scb_uart.h **** void Cy_SCB_UART_Interrupt(CySCB_Type *base, cy_stc_scb_uart_context_t *context);
 741:Generated_Source\PSoC6\pdl\drivers/peripheral/scb/cy_scb_uart.h **** 
 742:Generated_Source\PSoC6\pdl\drivers/peripheral/scb/cy_scb_uart.h **** __STATIC_INLINE void Cy_SCB_UART_RegisterCallback(CySCB_Type const *base, cy_cb_scb_uart_handle_eve
 743:Generated_Source\PSoC6\pdl\drivers/peripheral/scb/cy_scb_uart.h ****                                                   cy_stc_scb_uart_context_t *context);
 744:Generated_Source\PSoC6\pdl\drivers/peripheral/scb/cy_scb_uart.h **** /** \} group_scb_uart_interrupt_functions */
 745:Generated_Source\PSoC6\pdl\drivers/peripheral/scb/cy_scb_uart.h **** 
 746:Generated_Source\PSoC6\pdl\drivers/peripheral/scb/cy_scb_uart.h **** /**
 747:Generated_Source\PSoC6\pdl\drivers/peripheral/scb/cy_scb_uart.h **** * \addtogroup group_scb_uart_low_power_functions
 748:Generated_Source\PSoC6\pdl\drivers/peripheral/scb/cy_scb_uart.h **** * \{
 749:Generated_Source\PSoC6\pdl\drivers/peripheral/scb/cy_scb_uart.h **** */
 750:Generated_Source\PSoC6\pdl\drivers/peripheral/scb/cy_scb_uart.h **** cy_en_syspm_status_t Cy_SCB_UART_DeepSleepCallback(cy_stc_syspm_callback_params_t *callbackParams, 
 751:Generated_Source\PSoC6\pdl\drivers/peripheral/scb/cy_scb_uart.h **** cy_en_syspm_status_t Cy_SCB_UART_HibernateCallback(cy_stc_syspm_callback_params_t *callbackParams, 
 752:Generated_Source\PSoC6\pdl\drivers/peripheral/scb/cy_scb_uart.h **** /** \} group_scb_uart_low_power_functions */
 753:Generated_Source\PSoC6\pdl\drivers/peripheral/scb/cy_scb_uart.h **** 
 754:Generated_Source\PSoC6\pdl\drivers/peripheral/scb/cy_scb_uart.h **** 
 755:Generated_Source\PSoC6\pdl\drivers/peripheral/scb/cy_scb_uart.h **** /*******************************************************************************
 756:Generated_Source\PSoC6\pdl\drivers/peripheral/scb/cy_scb_uart.h **** *                               API Constants
 757:Generated_Source\PSoC6\pdl\drivers/peripheral/scb/cy_scb_uart.h **** *******************************************************************************/
 758:Generated_Source\PSoC6\pdl\drivers/peripheral/scb/cy_scb_uart.h **** 
 759:Generated_Source\PSoC6\pdl\drivers/peripheral/scb/cy_scb_uart.h **** /**
 760:Generated_Source\PSoC6\pdl\drivers/peripheral/scb/cy_scb_uart.h **** * \addtogroup group_scb_uart_macros
 761:Generated_Source\PSoC6\pdl\drivers/peripheral/scb/cy_scb_uart.h **** * \{
 762:Generated_Source\PSoC6\pdl\drivers/peripheral/scb/cy_scb_uart.h **** */
 763:Generated_Source\PSoC6\pdl\drivers/peripheral/scb/cy_scb_uart.h **** 
 764:Generated_Source\PSoC6\pdl\drivers/peripheral/scb/cy_scb_uart.h **** /**
 765:Generated_Source\PSoC6\pdl\drivers/peripheral/scb/cy_scb_uart.h **** * \defgroup group_scb_uart_macros_irda_lp_ovs UART IRDA Low Power Oversample factors
 766:Generated_Source\PSoC6\pdl\drivers/peripheral/scb/cy_scb_uart.h **** * \{
 767:Generated_Source\PSoC6\pdl\drivers/peripheral/scb/cy_scb_uart.h **** */
 768:Generated_Source\PSoC6\pdl\drivers/peripheral/scb/cy_scb_uart.h **** #define CY_SCB_UART_IRDA_LP_OVS16      (1UL)   /**< IrDA in low-power mode oversampled by 16   */
 769:Generated_Source\PSoC6\pdl\drivers/peripheral/scb/cy_scb_uart.h **** #define CY_SCB_UART_IRDA_LP_OVS32      (2UL)   /**< IrDA in low-power mode oversampled by 32   */
 770:Generated_Source\PSoC6\pdl\drivers/peripheral/scb/cy_scb_uart.h **** #define CY_SCB_UART_IRDA_LP_OVS48      (3UL)   /**< IrDA in low-power mode oversampled by 48   */
 771:Generated_Source\PSoC6\pdl\drivers/peripheral/scb/cy_scb_uart.h **** #define CY_SCB_UART_IRDA_LP_OVS96      (4UL)   /**< IrDA in low-power mode oversampled by 96   */
 772:Generated_Source\PSoC6\pdl\drivers/peripheral/scb/cy_scb_uart.h **** #define CY_SCB_UART_IRDA_LP_OVS192     (5UL)   /**< IrDA in low-power mode oversampled by 192  */
 773:Generated_Source\PSoC6\pdl\drivers/peripheral/scb/cy_scb_uart.h **** #define CY_SCB_UART_IRDA_LP_OVS768     (6UL)   /**< IrDA in low-power mode oversampled by 768  */
 774:Generated_Source\PSoC6\pdl\drivers/peripheral/scb/cy_scb_uart.h **** #define CY_SCB_UART_IRDA_LP_OVS1536    (7UL)   /**< IrDA in low-power mode oversampled by 1536 */
 775:Generated_Source\PSoC6\pdl\drivers/peripheral/scb/cy_scb_uart.h **** /** \} group_scb_uart_macros_irda_lp_ovs */
 776:Generated_Source\PSoC6\pdl\drivers/peripheral/scb/cy_scb_uart.h **** 
 777:Generated_Source\PSoC6\pdl\drivers/peripheral/scb/cy_scb_uart.h **** /**
ARM GAS  C:\Users\ISAKVO~1\AppData\Local\Temp\ccR1W42h.s 			page 22


 778:Generated_Source\PSoC6\pdl\drivers/peripheral/scb/cy_scb_uart.h **** * \defgroup group_scb_uart_macros_rx_fifo_status UART RX FIFO status.
 779:Generated_Source\PSoC6\pdl\drivers/peripheral/scb/cy_scb_uart.h **** * \{
 780:Generated_Source\PSoC6\pdl\drivers/peripheral/scb/cy_scb_uart.h **** * Macros to check UART RX FIFO status returned by \ref Cy_SCB_UART_GetRxFifoStatus
 781:Generated_Source\PSoC6\pdl\drivers/peripheral/scb/cy_scb_uart.h **** * function or assign mask for \ref Cy_SCB_UART_ClearRxFifoStatus function.
 782:Generated_Source\PSoC6\pdl\drivers/peripheral/scb/cy_scb_uart.h **** * Each UART RX FIFO status is encoded in a separate bit, therefore multiple
 783:Generated_Source\PSoC6\pdl\drivers/peripheral/scb/cy_scb_uart.h **** * bits may be set to indicate the current status.
 784:Generated_Source\PSoC6\pdl\drivers/peripheral/scb/cy_scb_uart.h **** */
 785:Generated_Source\PSoC6\pdl\drivers/peripheral/scb/cy_scb_uart.h **** 
 786:Generated_Source\PSoC6\pdl\drivers/peripheral/scb/cy_scb_uart.h **** /** The number of entries in the RX FIFO is more than the RX FIFO trigger level
 787:Generated_Source\PSoC6\pdl\drivers/peripheral/scb/cy_scb_uart.h **** * value
 788:Generated_Source\PSoC6\pdl\drivers/peripheral/scb/cy_scb_uart.h **** */
 789:Generated_Source\PSoC6\pdl\drivers/peripheral/scb/cy_scb_uart.h **** #define CY_SCB_UART_RX_TRIGGER         (SCB_INTR_RX_TRIGGER_Msk)
 790:Generated_Source\PSoC6\pdl\drivers/peripheral/scb/cy_scb_uart.h **** 
 791:Generated_Source\PSoC6\pdl\drivers/peripheral/scb/cy_scb_uart.h **** /** The RX FIFO is not empty, there is data to read */
 792:Generated_Source\PSoC6\pdl\drivers/peripheral/scb/cy_scb_uart.h **** #define CY_SCB_UART_RX_NOT_EMPTY       (SCB_INTR_RX_NOT_EMPTY_Msk)
 793:Generated_Source\PSoC6\pdl\drivers/peripheral/scb/cy_scb_uart.h **** 
 794:Generated_Source\PSoC6\pdl\drivers/peripheral/scb/cy_scb_uart.h **** /**
 795:Generated_Source\PSoC6\pdl\drivers/peripheral/scb/cy_scb_uart.h **** * The RX FIFO is full, there is no more space for additional data, and
 796:Generated_Source\PSoC6\pdl\drivers/peripheral/scb/cy_scb_uart.h **** * any additional data will be dropped
 797:Generated_Source\PSoC6\pdl\drivers/peripheral/scb/cy_scb_uart.h **** */
 798:Generated_Source\PSoC6\pdl\drivers/peripheral/scb/cy_scb_uart.h **** #define CY_SCB_UART_RX_FULL            (SCB_INTR_RX_FULL_Msk)
 799:Generated_Source\PSoC6\pdl\drivers/peripheral/scb/cy_scb_uart.h **** 
 800:Generated_Source\PSoC6\pdl\drivers/peripheral/scb/cy_scb_uart.h **** /**
 801:Generated_Source\PSoC6\pdl\drivers/peripheral/scb/cy_scb_uart.h **** * The RX FIFO was full and there was an attempt to write to it.
 802:Generated_Source\PSoC6\pdl\drivers/peripheral/scb/cy_scb_uart.h **** * That additional data was dropped.
 803:Generated_Source\PSoC6\pdl\drivers/peripheral/scb/cy_scb_uart.h **** */
 804:Generated_Source\PSoC6\pdl\drivers/peripheral/scb/cy_scb_uart.h **** #define CY_SCB_UART_RX_OVERFLOW        (SCB_INTR_RX_OVERFLOW_Msk)
 805:Generated_Source\PSoC6\pdl\drivers/peripheral/scb/cy_scb_uart.h **** 
 806:Generated_Source\PSoC6\pdl\drivers/peripheral/scb/cy_scb_uart.h **** /** An attempt to read from an empty RX FIFO */
 807:Generated_Source\PSoC6\pdl\drivers/peripheral/scb/cy_scb_uart.h **** #define CY_SCB_UART_RX_UNDERFLOW       (SCB_INTR_RX_UNDERFLOW_Msk)
 808:Generated_Source\PSoC6\pdl\drivers/peripheral/scb/cy_scb_uart.h **** 
 809:Generated_Source\PSoC6\pdl\drivers/peripheral/scb/cy_scb_uart.h **** /** The RX FIFO detected a frame error, either a stop or stop-bit error */
 810:Generated_Source\PSoC6\pdl\drivers/peripheral/scb/cy_scb_uart.h **** #define CY_SCB_UART_RX_ERR_FRAME       (SCB_INTR_RX_FRAME_ERROR_Msk)
 811:Generated_Source\PSoC6\pdl\drivers/peripheral/scb/cy_scb_uart.h **** 
 812:Generated_Source\PSoC6\pdl\drivers/peripheral/scb/cy_scb_uart.h **** /** The RX FIFO detected a parity error */
 813:Generated_Source\PSoC6\pdl\drivers/peripheral/scb/cy_scb_uart.h **** #define CY_SCB_UART_RX_ERR_PARITY      (SCB_INTR_RX_PARITY_ERROR_Msk)
 814:Generated_Source\PSoC6\pdl\drivers/peripheral/scb/cy_scb_uart.h **** 
 815:Generated_Source\PSoC6\pdl\drivers/peripheral/scb/cy_scb_uart.h **** /** The RX FIFO detected a break transmission from the transmitter */
 816:Generated_Source\PSoC6\pdl\drivers/peripheral/scb/cy_scb_uart.h **** #define CY_SCB_UART_RX_BREAK_DETECT    (SCB_INTR_RX_BREAK_DETECT_Msk)
 817:Generated_Source\PSoC6\pdl\drivers/peripheral/scb/cy_scb_uart.h **** /** \} group_scb_uart_macros_rx_fifo_status */
 818:Generated_Source\PSoC6\pdl\drivers/peripheral/scb/cy_scb_uart.h **** 
 819:Generated_Source\PSoC6\pdl\drivers/peripheral/scb/cy_scb_uart.h **** /**
 820:Generated_Source\PSoC6\pdl\drivers/peripheral/scb/cy_scb_uart.h **** * \defgroup group_scb_uart_macros_tx_fifo_status UART TX FIFO Statuses
 821:Generated_Source\PSoC6\pdl\drivers/peripheral/scb/cy_scb_uart.h **** * \{
 822:Generated_Source\PSoC6\pdl\drivers/peripheral/scb/cy_scb_uart.h **** * Macros to check UART TX FIFO status returned by \ref Cy_SCB_UART_GetTxFifoStatus
 823:Generated_Source\PSoC6\pdl\drivers/peripheral/scb/cy_scb_uart.h **** * function or assign mask for \ref Cy_SCB_UART_ClearTxFifoStatus function.
 824:Generated_Source\PSoC6\pdl\drivers/peripheral/scb/cy_scb_uart.h **** * Each UART TX FIFO status is encoded in a separate bit, therefore multiple bits
 825:Generated_Source\PSoC6\pdl\drivers/peripheral/scb/cy_scb_uart.h **** * may be set to indicate the current status.
 826:Generated_Source\PSoC6\pdl\drivers/peripheral/scb/cy_scb_uart.h **** */
 827:Generated_Source\PSoC6\pdl\drivers/peripheral/scb/cy_scb_uart.h **** 
 828:Generated_Source\PSoC6\pdl\drivers/peripheral/scb/cy_scb_uart.h **** /** The number of entries in the TX FIFO is less than the TX FIFO trigger level
 829:Generated_Source\PSoC6\pdl\drivers/peripheral/scb/cy_scb_uart.h **** * value
 830:Generated_Source\PSoC6\pdl\drivers/peripheral/scb/cy_scb_uart.h **** */
 831:Generated_Source\PSoC6\pdl\drivers/peripheral/scb/cy_scb_uart.h **** #define CY_SCB_UART_TX_TRIGGER     (SCB_INTR_TX_TRIGGER_Msk)
 832:Generated_Source\PSoC6\pdl\drivers/peripheral/scb/cy_scb_uart.h **** 
 833:Generated_Source\PSoC6\pdl\drivers/peripheral/scb/cy_scb_uart.h **** /** The TX FIFO is not full, there is a space for more data */
 834:Generated_Source\PSoC6\pdl\drivers/peripheral/scb/cy_scb_uart.h **** #define CY_SCB_UART_TX_NOT_FULL    (SCB_INTR_TX_NOT_FULL_Msk)
ARM GAS  C:\Users\ISAKVO~1\AppData\Local\Temp\ccR1W42h.s 			page 23


 835:Generated_Source\PSoC6\pdl\drivers/peripheral/scb/cy_scb_uart.h **** 
 836:Generated_Source\PSoC6\pdl\drivers/peripheral/scb/cy_scb_uart.h **** /** The TX FIFO is empty, note there may still be data in the shift register.*/
 837:Generated_Source\PSoC6\pdl\drivers/peripheral/scb/cy_scb_uart.h **** #define CY_SCB_UART_TX_EMPTY       (SCB_INTR_TX_EMPTY_Msk)
 838:Generated_Source\PSoC6\pdl\drivers/peripheral/scb/cy_scb_uart.h **** 
 839:Generated_Source\PSoC6\pdl\drivers/peripheral/scb/cy_scb_uart.h **** /** An attempt to write to the full TX FIFO */
 840:Generated_Source\PSoC6\pdl\drivers/peripheral/scb/cy_scb_uart.h **** #define CY_SCB_UART_TX_OVERFLOW    (SCB_INTR_TX_OVERFLOW_Msk)
 841:Generated_Source\PSoC6\pdl\drivers/peripheral/scb/cy_scb_uart.h **** 
 842:Generated_Source\PSoC6\pdl\drivers/peripheral/scb/cy_scb_uart.h **** /** An attempt to read from an empty transmitter FIFO (hardware reads). */
 843:Generated_Source\PSoC6\pdl\drivers/peripheral/scb/cy_scb_uart.h **** #define CY_SCB_UART_TX_UNDERFLOW (SCB_INTR_TX_UNDERFLOW_Msk)
 844:Generated_Source\PSoC6\pdl\drivers/peripheral/scb/cy_scb_uart.h **** 
 845:Generated_Source\PSoC6\pdl\drivers/peripheral/scb/cy_scb_uart.h **** /** All data has been transmitted out of the FIFO, including shifter */
 846:Generated_Source\PSoC6\pdl\drivers/peripheral/scb/cy_scb_uart.h **** #define CY_SCB_UART_TX_DONE        (SCB_INTR_TX_UART_DONE_Msk)
 847:Generated_Source\PSoC6\pdl\drivers/peripheral/scb/cy_scb_uart.h **** 
 848:Generated_Source\PSoC6\pdl\drivers/peripheral/scb/cy_scb_uart.h **** /** SmartCard only: the transmitter received a NACK */
 849:Generated_Source\PSoC6\pdl\drivers/peripheral/scb/cy_scb_uart.h **** #define CY_SCB_UART_TX_NACK        (SCB_INTR_TX_UART_NACK_Msk)
 850:Generated_Source\PSoC6\pdl\drivers/peripheral/scb/cy_scb_uart.h **** 
 851:Generated_Source\PSoC6\pdl\drivers/peripheral/scb/cy_scb_uart.h **** /** SmartCard only: the transmitter lost arbitration */
 852:Generated_Source\PSoC6\pdl\drivers/peripheral/scb/cy_scb_uart.h **** #define CY_SCB_UART_TX_ARB_LOST    (SCB_INTR_TX_UART_ARB_LOST_Msk)
 853:Generated_Source\PSoC6\pdl\drivers/peripheral/scb/cy_scb_uart.h **** /** \} group_scb_uart_macros_tx_fifo_status */
 854:Generated_Source\PSoC6\pdl\drivers/peripheral/scb/cy_scb_uart.h **** 
 855:Generated_Source\PSoC6\pdl\drivers/peripheral/scb/cy_scb_uart.h **** /**
 856:Generated_Source\PSoC6\pdl\drivers/peripheral/scb/cy_scb_uart.h **** * \defgroup group_scb_uart_macros_receive_status UART Receive Statuses
 857:Generated_Source\PSoC6\pdl\drivers/peripheral/scb/cy_scb_uart.h **** * \{
 858:Generated_Source\PSoC6\pdl\drivers/peripheral/scb/cy_scb_uart.h **** * Macros to check current UART receive status returned by 
 859:Generated_Source\PSoC6\pdl\drivers/peripheral/scb/cy_scb_uart.h **** * \ref Cy_SCB_UART_GetReceiveStatus function. 
 860:Generated_Source\PSoC6\pdl\drivers/peripheral/scb/cy_scb_uart.h **** * Each UART receive status is encoded in a separate bit, therefore multiple bits
 861:Generated_Source\PSoC6\pdl\drivers/peripheral/scb/cy_scb_uart.h **** * may be set to indicate the current status.
 862:Generated_Source\PSoC6\pdl\drivers/peripheral/scb/cy_scb_uart.h **** */
 863:Generated_Source\PSoC6\pdl\drivers/peripheral/scb/cy_scb_uart.h **** /** The receive operation started by \ref Cy_SCB_UART_Receive is in progress */
 864:Generated_Source\PSoC6\pdl\drivers/peripheral/scb/cy_scb_uart.h **** #define CY_SCB_UART_RECEIVE_ACTIVE         (0x01UL)
 865:Generated_Source\PSoC6\pdl\drivers/peripheral/scb/cy_scb_uart.h **** 
 866:Generated_Source\PSoC6\pdl\drivers/peripheral/scb/cy_scb_uart.h **** /**
 867:Generated_Source\PSoC6\pdl\drivers/peripheral/scb/cy_scb_uart.h **** * The hardware RX FIFO was full and there was an attempt to write to it.
 868:Generated_Source\PSoC6\pdl\drivers/peripheral/scb/cy_scb_uart.h **** * That additional data was dropped.
 869:Generated_Source\PSoC6\pdl\drivers/peripheral/scb/cy_scb_uart.h **** */
 870:Generated_Source\PSoC6\pdl\drivers/peripheral/scb/cy_scb_uart.h **** #define CY_SCB_UART_RECEIVE_OVERFLOW       (SCB_INTR_RX_OVERFLOW_Msk)
 871:Generated_Source\PSoC6\pdl\drivers/peripheral/scb/cy_scb_uart.h **** 
 872:Generated_Source\PSoC6\pdl\drivers/peripheral/scb/cy_scb_uart.h **** /** The receive hardware detected a frame error, either a start or
 873:Generated_Source\PSoC6\pdl\drivers/peripheral/scb/cy_scb_uart.h **** * stop bit error
 874:Generated_Source\PSoC6\pdl\drivers/peripheral/scb/cy_scb_uart.h **** */
 875:Generated_Source\PSoC6\pdl\drivers/peripheral/scb/cy_scb_uart.h **** #define CY_SCB_UART_RECEIVE_ERR_FRAME      (SCB_INTR_RX_FRAME_ERROR_Msk)
 876:Generated_Source\PSoC6\pdl\drivers/peripheral/scb/cy_scb_uart.h **** 
 877:Generated_Source\PSoC6\pdl\drivers/peripheral/scb/cy_scb_uart.h **** /** The receive hardware detected a parity error */
 878:Generated_Source\PSoC6\pdl\drivers/peripheral/scb/cy_scb_uart.h **** #define CY_SCB_UART_RECEIVE_ERR_PARITY     (SCB_INTR_RX_PARITY_ERROR_Msk)
 879:Generated_Source\PSoC6\pdl\drivers/peripheral/scb/cy_scb_uart.h **** 
 880:Generated_Source\PSoC6\pdl\drivers/peripheral/scb/cy_scb_uart.h **** /** The receive hardware detected a break transmission from transmitter */
 881:Generated_Source\PSoC6\pdl\drivers/peripheral/scb/cy_scb_uart.h **** #define CY_SCB_UART_RECEIVE_BREAK_DETECT   (SCB_INTR_RX_BREAK_DETECT_Msk)
 882:Generated_Source\PSoC6\pdl\drivers/peripheral/scb/cy_scb_uart.h **** /** \} group_scb_uart_macros_receive_status */
 883:Generated_Source\PSoC6\pdl\drivers/peripheral/scb/cy_scb_uart.h **** 
 884:Generated_Source\PSoC6\pdl\drivers/peripheral/scb/cy_scb_uart.h **** /**
 885:Generated_Source\PSoC6\pdl\drivers/peripheral/scb/cy_scb_uart.h **** * \defgroup group_scb_uart_macros_transmit_status UART Transmit Status
 886:Generated_Source\PSoC6\pdl\drivers/peripheral/scb/cy_scb_uart.h **** * \{
 887:Generated_Source\PSoC6\pdl\drivers/peripheral/scb/cy_scb_uart.h **** * Macros to check current UART transmit status returned by 
 888:Generated_Source\PSoC6\pdl\drivers/peripheral/scb/cy_scb_uart.h **** * \ref Cy_SCB_UART_GetTransmitStatus function. 
 889:Generated_Source\PSoC6\pdl\drivers/peripheral/scb/cy_scb_uart.h **** * Each UART transmit status is encoded in a separate bit, therefore multiple bits
 890:Generated_Source\PSoC6\pdl\drivers/peripheral/scb/cy_scb_uart.h **** * may be set to indicate the current status.
 891:Generated_Source\PSoC6\pdl\drivers/peripheral/scb/cy_scb_uart.h **** */
ARM GAS  C:\Users\ISAKVO~1\AppData\Local\Temp\ccR1W42h.s 			page 24


 892:Generated_Source\PSoC6\pdl\drivers/peripheral/scb/cy_scb_uart.h **** 
 893:Generated_Source\PSoC6\pdl\drivers/peripheral/scb/cy_scb_uart.h **** /** The transmit operation started by \ref Cy_SCB_UART_Transmit is in progress */
 894:Generated_Source\PSoC6\pdl\drivers/peripheral/scb/cy_scb_uart.h **** #define CY_SCB_UART_TRANSMIT_ACTIVE    (0x01UL)
 895:Generated_Source\PSoC6\pdl\drivers/peripheral/scb/cy_scb_uart.h **** 
 896:Generated_Source\PSoC6\pdl\drivers/peripheral/scb/cy_scb_uart.h **** /**
 897:Generated_Source\PSoC6\pdl\drivers/peripheral/scb/cy_scb_uart.h **** * All data elements specified by \ref Cy_SCB_UART_Transmit have been loaded
 898:Generated_Source\PSoC6\pdl\drivers/peripheral/scb/cy_scb_uart.h **** * into the TX FIFO
 899:Generated_Source\PSoC6\pdl\drivers/peripheral/scb/cy_scb_uart.h **** */
 900:Generated_Source\PSoC6\pdl\drivers/peripheral/scb/cy_scb_uart.h **** #define CY_SCB_UART_TRANSMIT_IN_FIFO   (0x02UL)
 901:Generated_Source\PSoC6\pdl\drivers/peripheral/scb/cy_scb_uart.h **** 
 902:Generated_Source\PSoC6\pdl\drivers/peripheral/scb/cy_scb_uart.h **** /** SmartCard only: the transmitter received a NACK */
 903:Generated_Source\PSoC6\pdl\drivers/peripheral/scb/cy_scb_uart.h **** #define CY_SCB_UART_TRANSMIT_NACK      (SCB_INTR_TX_UART_NACK_Msk)
 904:Generated_Source\PSoC6\pdl\drivers/peripheral/scb/cy_scb_uart.h **** 
 905:Generated_Source\PSoC6\pdl\drivers/peripheral/scb/cy_scb_uart.h **** /** SmartCard only: the transmitter lost arbitration */
 906:Generated_Source\PSoC6\pdl\drivers/peripheral/scb/cy_scb_uart.h **** #define CY_SCB_UART_TRANSMIT_ARB_LOST  (SCB_INTR_TX_UART_ARB_LOST_Msk)
 907:Generated_Source\PSoC6\pdl\drivers/peripheral/scb/cy_scb_uart.h **** /** \} group_scb_uart_macros_transmit_status */
 908:Generated_Source\PSoC6\pdl\drivers/peripheral/scb/cy_scb_uart.h **** 
 909:Generated_Source\PSoC6\pdl\drivers/peripheral/scb/cy_scb_uart.h **** /**
 910:Generated_Source\PSoC6\pdl\drivers/peripheral/scb/cy_scb_uart.h **** * \defgroup group_scb_uart_macros_callback_events UART Callback Events
 911:Generated_Source\PSoC6\pdl\drivers/peripheral/scb/cy_scb_uart.h **** * \{
 912:Generated_Source\PSoC6\pdl\drivers/peripheral/scb/cy_scb_uart.h **** * Macros to check UART events passed by \ref cy_cb_scb_uart_handle_events_t callback.
 913:Generated_Source\PSoC6\pdl\drivers/peripheral/scb/cy_scb_uart.h **** * Note that only single event is notified by the callback when it is called.
 914:Generated_Source\PSoC6\pdl\drivers/peripheral/scb/cy_scb_uart.h **** */
 915:Generated_Source\PSoC6\pdl\drivers/peripheral/scb/cy_scb_uart.h **** 
 916:Generated_Source\PSoC6\pdl\drivers/peripheral/scb/cy_scb_uart.h **** /**
 917:Generated_Source\PSoC6\pdl\drivers/peripheral/scb/cy_scb_uart.h **** * All data elements specified by \ref Cy_SCB_UART_Transmit have been loaded
 918:Generated_Source\PSoC6\pdl\drivers/peripheral/scb/cy_scb_uart.h **** * into the TX FIFO
 919:Generated_Source\PSoC6\pdl\drivers/peripheral/scb/cy_scb_uart.h **** */
 920:Generated_Source\PSoC6\pdl\drivers/peripheral/scb/cy_scb_uart.h **** #define CY_SCB_UART_TRANSMIT_IN_FIFO_EVENT (0x01UL)
 921:Generated_Source\PSoC6\pdl\drivers/peripheral/scb/cy_scb_uart.h **** 
 922:Generated_Source\PSoC6\pdl\drivers/peripheral/scb/cy_scb_uart.h **** /** The transmit operation started by \ref Cy_SCB_UART_Transmit is complete */
 923:Generated_Source\PSoC6\pdl\drivers/peripheral/scb/cy_scb_uart.h **** #define CY_SCB_UART_TRANSMIT_DONE_EVENT    (0x02UL)
 924:Generated_Source\PSoC6\pdl\drivers/peripheral/scb/cy_scb_uart.h **** 
 925:Generated_Source\PSoC6\pdl\drivers/peripheral/scb/cy_scb_uart.h **** /** The receive operation started by \ref Cy_SCB_UART_Receive is complete */
 926:Generated_Source\PSoC6\pdl\drivers/peripheral/scb/cy_scb_uart.h **** #define CY_SCB_UART_RECEIVE_DONE_EVENT     (0x04UL)
 927:Generated_Source\PSoC6\pdl\drivers/peripheral/scb/cy_scb_uart.h **** 
 928:Generated_Source\PSoC6\pdl\drivers/peripheral/scb/cy_scb_uart.h **** /**
 929:Generated_Source\PSoC6\pdl\drivers/peripheral/scb/cy_scb_uart.h **** * The ring buffer is full, there is no more space for additional data.
 930:Generated_Source\PSoC6\pdl\drivers/peripheral/scb/cy_scb_uart.h **** * Additional data is stored in the RX FIFO until it becomes full, at which
 931:Generated_Source\PSoC6\pdl\drivers/peripheral/scb/cy_scb_uart.h **** * point data is dropped.
 932:Generated_Source\PSoC6\pdl\drivers/peripheral/scb/cy_scb_uart.h **** */
 933:Generated_Source\PSoC6\pdl\drivers/peripheral/scb/cy_scb_uart.h **** #define CY_SCB_UART_RB_FULL_EVENT          (0x08UL)
 934:Generated_Source\PSoC6\pdl\drivers/peripheral/scb/cy_scb_uart.h **** 
 935:Generated_Source\PSoC6\pdl\drivers/peripheral/scb/cy_scb_uart.h **** /**
 936:Generated_Source\PSoC6\pdl\drivers/peripheral/scb/cy_scb_uart.h **** * An error was detected during the receive operation. This includes overflow,
 937:Generated_Source\PSoC6\pdl\drivers/peripheral/scb/cy_scb_uart.h **** * frame error, or parity error. Check \ref Cy_SCB_UART_GetReceiveStatus to
 938:Generated_Source\PSoC6\pdl\drivers/peripheral/scb/cy_scb_uart.h **** * determine the source of the error.
 939:Generated_Source\PSoC6\pdl\drivers/peripheral/scb/cy_scb_uart.h **** */
 940:Generated_Source\PSoC6\pdl\drivers/peripheral/scb/cy_scb_uart.h **** #define CY_SCB_UART_RECEIVE_ERR_EVENT      (0x10UL)
 941:Generated_Source\PSoC6\pdl\drivers/peripheral/scb/cy_scb_uart.h **** 
 942:Generated_Source\PSoC6\pdl\drivers/peripheral/scb/cy_scb_uart.h **** /**
 943:Generated_Source\PSoC6\pdl\drivers/peripheral/scb/cy_scb_uart.h **** * An error was detected during the transmit operation. This includes a NACK
 944:Generated_Source\PSoC6\pdl\drivers/peripheral/scb/cy_scb_uart.h **** * or lost arbitration. Check \ref Cy_SCB_UART_GetTransmitStatus to determine
 945:Generated_Source\PSoC6\pdl\drivers/peripheral/scb/cy_scb_uart.h **** * the source of the error
 946:Generated_Source\PSoC6\pdl\drivers/peripheral/scb/cy_scb_uart.h **** */
 947:Generated_Source\PSoC6\pdl\drivers/peripheral/scb/cy_scb_uart.h **** #define CY_SCB_UART_TRANSMIT_ERR_EVENT     (0x20UL)
 948:Generated_Source\PSoC6\pdl\drivers/peripheral/scb/cy_scb_uart.h **** /** \} group_scb_uart_macros_callback_events */
ARM GAS  C:\Users\ISAKVO~1\AppData\Local\Temp\ccR1W42h.s 			page 25


 949:Generated_Source\PSoC6\pdl\drivers/peripheral/scb/cy_scb_uart.h **** 
 950:Generated_Source\PSoC6\pdl\drivers/peripheral/scb/cy_scb_uart.h **** /** Data returned by the hardware when an empty RX FIFO is read */
 951:Generated_Source\PSoC6\pdl\drivers/peripheral/scb/cy_scb_uart.h **** #define CY_SCB_UART_RX_NO_DATA         (0xFFFFFFFFUL)
 952:Generated_Source\PSoC6\pdl\drivers/peripheral/scb/cy_scb_uart.h **** 
 953:Generated_Source\PSoC6\pdl\drivers/peripheral/scb/cy_scb_uart.h **** 
 954:Generated_Source\PSoC6\pdl\drivers/peripheral/scb/cy_scb_uart.h **** /*******************************************************************************
 955:Generated_Source\PSoC6\pdl\drivers/peripheral/scb/cy_scb_uart.h **** *                            Internal Constants
 956:Generated_Source\PSoC6\pdl\drivers/peripheral/scb/cy_scb_uart.h **** *******************************************************************************/
 957:Generated_Source\PSoC6\pdl\drivers/peripheral/scb/cy_scb_uart.h **** 
 958:Generated_Source\PSoC6\pdl\drivers/peripheral/scb/cy_scb_uart.h **** /** \cond INTERNAL */
 959:Generated_Source\PSoC6\pdl\drivers/peripheral/scb/cy_scb_uart.h **** #define CY_SCB_UART_TX_INTR_MASK    (CY_SCB_UART_TX_TRIGGER  | CY_SCB_UART_TX_NOT_FULL  | CY_SCB_UA
 960:Generated_Source\PSoC6\pdl\drivers/peripheral/scb/cy_scb_uart.h ****                                      CY_SCB_UART_TX_OVERFLOW | CY_SCB_UART_TX_UNDERFLOW | CY_SCB_UA
 961:Generated_Source\PSoC6\pdl\drivers/peripheral/scb/cy_scb_uart.h ****                                      CY_SCB_UART_TX_NACK     | CY_SCB_UART_TX_ARB_LOST)
 962:Generated_Source\PSoC6\pdl\drivers/peripheral/scb/cy_scb_uart.h **** 
 963:Generated_Source\PSoC6\pdl\drivers/peripheral/scb/cy_scb_uart.h **** #define CY_SCB_UART_RX_INTR_MASK    (CY_SCB_UART_RX_TRIGGER    | CY_SCB_UART_RX_NOT_EMPTY | CY_SCB_
 964:Generated_Source\PSoC6\pdl\drivers/peripheral/scb/cy_scb_uart.h ****                                      CY_SCB_UART_RX_OVERFLOW   | CY_SCB_UART_RX_UNDERFLOW | CY_SCB_
 965:Generated_Source\PSoC6\pdl\drivers/peripheral/scb/cy_scb_uart.h ****                                      CY_SCB_UART_RX_ERR_PARITY | CY_SCB_UART_RX_BREAK_DETECT)
 966:Generated_Source\PSoC6\pdl\drivers/peripheral/scb/cy_scb_uart.h **** 
 967:Generated_Source\PSoC6\pdl\drivers/peripheral/scb/cy_scb_uart.h **** #define CY_SCB_UART_TX_INTR        (CY_SCB_TX_INTR_LEVEL | CY_SCB_TX_INTR_UART_NACK | CY_SCB_TX_INT
 968:Generated_Source\PSoC6\pdl\drivers/peripheral/scb/cy_scb_uart.h **** 
 969:Generated_Source\PSoC6\pdl\drivers/peripheral/scb/cy_scb_uart.h **** #define CY_SCB_UART_RX_INTR        (CY_SCB_RX_INTR_LEVEL | CY_SCB_RX_INTR_OVERFLOW | CY_SCB_RX_INTR
 970:Generated_Source\PSoC6\pdl\drivers/peripheral/scb/cy_scb_uart.h ****                                     CY_SCB_RX_INTR_UART_PARITY_ERROR | CY_SCB_RX_INTR_UART_BREAK_DE
 971:Generated_Source\PSoC6\pdl\drivers/peripheral/scb/cy_scb_uart.h **** 
 972:Generated_Source\PSoC6\pdl\drivers/peripheral/scb/cy_scb_uart.h **** #define CY_SCB_UART_RECEIVE_ERR    (CY_SCB_RX_INTR_OVERFLOW | CY_SCB_RX_INTR_UART_FRAME_ERROR | \
 973:Generated_Source\PSoC6\pdl\drivers/peripheral/scb/cy_scb_uart.h ****                                     CY_SCB_RX_INTR_UART_PARITY_ERROR)
 974:Generated_Source\PSoC6\pdl\drivers/peripheral/scb/cy_scb_uart.h **** 
 975:Generated_Source\PSoC6\pdl\drivers/peripheral/scb/cy_scb_uart.h **** #define CY_SCB_UART_TRANSMIT_ERR   (CY_SCB_TX_INTR_UART_NACK | CY_SCB_TX_INTR_UART_ARB_LOST)
 976:Generated_Source\PSoC6\pdl\drivers/peripheral/scb/cy_scb_uart.h **** 
 977:Generated_Source\PSoC6\pdl\drivers/peripheral/scb/cy_scb_uart.h **** #define CY_SCB_UART_INIT_KEY       (0x00ABCDEFUL)
 978:Generated_Source\PSoC6\pdl\drivers/peripheral/scb/cy_scb_uart.h **** 
 979:Generated_Source\PSoC6\pdl\drivers/peripheral/scb/cy_scb_uart.h **** #define CY_SCB_UART_IS_MODE_VALID(mode)     ( (CY_SCB_UART_STANDARD  == (mode)) || \
 980:Generated_Source\PSoC6\pdl\drivers/peripheral/scb/cy_scb_uart.h ****                                               (CY_SCB_UART_SMARTCARD == (mode)) || \
 981:Generated_Source\PSoC6\pdl\drivers/peripheral/scb/cy_scb_uart.h ****                                               (CY_SCB_UART_IRDA      == (mode)) )
 982:Generated_Source\PSoC6\pdl\drivers/peripheral/scb/cy_scb_uart.h **** 
 983:Generated_Source\PSoC6\pdl\drivers/peripheral/scb/cy_scb_uart.h **** #define CY_SCB_UART_IS_STOP_BITS_VALID(stopBits)    ( (CY_SCB_UART_STOP_BITS_1   == (stopBits)) || 
 984:Generated_Source\PSoC6\pdl\drivers/peripheral/scb/cy_scb_uart.h ****                                                       (CY_SCB_UART_STOP_BITS_1_5 == (stopBits)) || 
 985:Generated_Source\PSoC6\pdl\drivers/peripheral/scb/cy_scb_uart.h ****                                                       (CY_SCB_UART_STOP_BITS_2   == (stopBits)) || 
 986:Generated_Source\PSoC6\pdl\drivers/peripheral/scb/cy_scb_uart.h ****                                                       (CY_SCB_UART_STOP_BITS_2_5 == (stopBits)) || 
 987:Generated_Source\PSoC6\pdl\drivers/peripheral/scb/cy_scb_uart.h ****                                                       (CY_SCB_UART_STOP_BITS_3   == (stopBits)) || 
 988:Generated_Source\PSoC6\pdl\drivers/peripheral/scb/cy_scb_uart.h ****                                                       (CY_SCB_UART_STOP_BITS_3_5 == (stopBits)) || 
 989:Generated_Source\PSoC6\pdl\drivers/peripheral/scb/cy_scb_uart.h ****                                                       (CY_SCB_UART_STOP_BITS_4   == (stopBits)) )
 990:Generated_Source\PSoC6\pdl\drivers/peripheral/scb/cy_scb_uart.h **** 
 991:Generated_Source\PSoC6\pdl\drivers/peripheral/scb/cy_scb_uart.h **** #define CY_SCB_UART_IS_PARITY_VALID(parity)         ( (CY_SCB_UART_PARITY_NONE == (parity)) || \
 992:Generated_Source\PSoC6\pdl\drivers/peripheral/scb/cy_scb_uart.h ****                                                       (CY_SCB_UART_PARITY_EVEN == (parity)) || \
 993:Generated_Source\PSoC6\pdl\drivers/peripheral/scb/cy_scb_uart.h ****                                                       (CY_SCB_UART_PARITY_ODD  == (parity)) )
 994:Generated_Source\PSoC6\pdl\drivers/peripheral/scb/cy_scb_uart.h **** 
 995:Generated_Source\PSoC6\pdl\drivers/peripheral/scb/cy_scb_uart.h **** #define CY_SCB_UART_IS_POLARITY_VALID(polarity)     ( (CY_SCB_UART_ACTIVE_LOW  == (polarity)) || \
 996:Generated_Source\PSoC6\pdl\drivers/peripheral/scb/cy_scb_uart.h ****                                                       (CY_SCB_UART_ACTIVE_HIGH == (polarity)) )
 997:Generated_Source\PSoC6\pdl\drivers/peripheral/scb/cy_scb_uart.h **** 
 998:Generated_Source\PSoC6\pdl\drivers/peripheral/scb/cy_scb_uart.h **** #define CY_SCB_UART_IS_IRDA_LP_OVS_VALID(ovs)       ( (CY_SCB_UART_IRDA_LP_OVS16   == (ovs)) || \
 999:Generated_Source\PSoC6\pdl\drivers/peripheral/scb/cy_scb_uart.h ****                                                       (CY_SCB_UART_IRDA_LP_OVS32   == (ovs)) || \
1000:Generated_Source\PSoC6\pdl\drivers/peripheral/scb/cy_scb_uart.h ****                                                       (CY_SCB_UART_IRDA_LP_OVS48   == (ovs)) || \
1001:Generated_Source\PSoC6\pdl\drivers/peripheral/scb/cy_scb_uart.h ****                                                       (CY_SCB_UART_IRDA_LP_OVS96   == (ovs)) || \
1002:Generated_Source\PSoC6\pdl\drivers/peripheral/scb/cy_scb_uart.h ****                                                       (CY_SCB_UART_IRDA_LP_OVS192  == (ovs)) || \
1003:Generated_Source\PSoC6\pdl\drivers/peripheral/scb/cy_scb_uart.h ****                                                       (CY_SCB_UART_IRDA_LP_OVS768  == (ovs)) || \
1004:Generated_Source\PSoC6\pdl\drivers/peripheral/scb/cy_scb_uart.h ****                                                       (CY_SCB_UART_IRDA_LP_OVS1536 == (ovs)) )
1005:Generated_Source\PSoC6\pdl\drivers/peripheral/scb/cy_scb_uart.h **** 
ARM GAS  C:\Users\ISAKVO~1\AppData\Local\Temp\ccR1W42h.s 			page 26


1006:Generated_Source\PSoC6\pdl\drivers/peripheral/scb/cy_scb_uart.h **** #define CY_SCB_UART_IS_ADDRESS_VALID(addr)          ((addr) <= 0xFFUL)
1007:Generated_Source\PSoC6\pdl\drivers/peripheral/scb/cy_scb_uart.h **** #define CY_SCB_UART_IS_ADDRESS_MASK_VALID(mask)     ((mask) <= 0xFFUL)
1008:Generated_Source\PSoC6\pdl\drivers/peripheral/scb/cy_scb_uart.h **** #define CY_SCB_UART_IS_DATA_WIDTH_VALID(width)      ( ((width) >= 5UL) && ((width) <= 9UL) )
1009:Generated_Source\PSoC6\pdl\drivers/peripheral/scb/cy_scb_uart.h **** #define CY_SCB_UART_IS_OVERSAMPLE_VALID(ovs, mode, lpRx)    ( ((CY_SCB_UART_STANDARD  == (mode)) ||
1010:Generated_Source\PSoC6\pdl\drivers/peripheral/scb/cy_scb_uart.h ****                                                               (((ovs) >= 8UL) && ((ovs) <= 16UL)) :
1011:Generated_Source\PSoC6\pdl\drivers/peripheral/scb/cy_scb_uart.h ****                                                               ((lpRx) ? CY_SCB_UART_IS_IRDA_LP_OVS_
1012:Generated_Source\PSoC6\pdl\drivers/peripheral/scb/cy_scb_uart.h **** 
1013:Generated_Source\PSoC6\pdl\drivers/peripheral/scb/cy_scb_uart.h **** #define CY_SCB_UART_IS_RX_BREAK_WIDTH_VALID(base, width)    ( ((width) >= (_FLD2VAL(SCB_RX_CTRL_DAT
1014:Generated_Source\PSoC6\pdl\drivers/peripheral/scb/cy_scb_uart.h ****                                                               ((width) <= 16UL) )
1015:Generated_Source\PSoC6\pdl\drivers/peripheral/scb/cy_scb_uart.h **** #define CY_SCB_UART_IS_TX_BREAK_WIDTH_VALID(width)          ( ((width) >= 4UL) && ((width) <= 16UL)
1016:Generated_Source\PSoC6\pdl\drivers/peripheral/scb/cy_scb_uart.h **** 
1017:Generated_Source\PSoC6\pdl\drivers/peripheral/scb/cy_scb_uart.h **** #define CY_SCB_UART_IS_MUTLI_PROC_VALID(mp, mode, width, parity)    ( (mp) ? ((CY_SCB_UART_STANDARD
1018:Generated_Source\PSoC6\pdl\drivers/peripheral/scb/cy_scb_uart.h ****                                                                               (CY_SCB_UART_PARITY_N
1019:Generated_Source\PSoC6\pdl\drivers/peripheral/scb/cy_scb_uart.h **** /** \endcond */
1020:Generated_Source\PSoC6\pdl\drivers/peripheral/scb/cy_scb_uart.h **** 
1021:Generated_Source\PSoC6\pdl\drivers/peripheral/scb/cy_scb_uart.h **** /** \} group_scb_uart_macros */
1022:Generated_Source\PSoC6\pdl\drivers/peripheral/scb/cy_scb_uart.h **** 
1023:Generated_Source\PSoC6\pdl\drivers/peripheral/scb/cy_scb_uart.h **** 
1024:Generated_Source\PSoC6\pdl\drivers/peripheral/scb/cy_scb_uart.h **** /*******************************************************************************
1025:Generated_Source\PSoC6\pdl\drivers/peripheral/scb/cy_scb_uart.h **** *                    In-line Function Implementation
1026:Generated_Source\PSoC6\pdl\drivers/peripheral/scb/cy_scb_uart.h **** *******************************************************************************/
1027:Generated_Source\PSoC6\pdl\drivers/peripheral/scb/cy_scb_uart.h **** 
1028:Generated_Source\PSoC6\pdl\drivers/peripheral/scb/cy_scb_uart.h **** /**
1029:Generated_Source\PSoC6\pdl\drivers/peripheral/scb/cy_scb_uart.h **** * \addtogroup group_scb_uart_general_functions
1030:Generated_Source\PSoC6\pdl\drivers/peripheral/scb/cy_scb_uart.h **** * \{
1031:Generated_Source\PSoC6\pdl\drivers/peripheral/scb/cy_scb_uart.h **** */
1032:Generated_Source\PSoC6\pdl\drivers/peripheral/scb/cy_scb_uart.h **** 
1033:Generated_Source\PSoC6\pdl\drivers/peripheral/scb/cy_scb_uart.h **** /*******************************************************************************
1034:Generated_Source\PSoC6\pdl\drivers/peripheral/scb/cy_scb_uart.h **** * Function Name: Cy_SCB_UART_Enable
1035:Generated_Source\PSoC6\pdl\drivers/peripheral/scb/cy_scb_uart.h **** ****************************************************************************//**
1036:Generated_Source\PSoC6\pdl\drivers/peripheral/scb/cy_scb_uart.h **** *
1037:Generated_Source\PSoC6\pdl\drivers/peripheral/scb/cy_scb_uart.h **** * Enables the SCB block for the UART operation.
1038:Generated_Source\PSoC6\pdl\drivers/peripheral/scb/cy_scb_uart.h **** *
1039:Generated_Source\PSoC6\pdl\drivers/peripheral/scb/cy_scb_uart.h **** * \param base
1040:Generated_Source\PSoC6\pdl\drivers/peripheral/scb/cy_scb_uart.h **** * The pointer to the UART SCB instance.
1041:Generated_Source\PSoC6\pdl\drivers/peripheral/scb/cy_scb_uart.h **** *
1042:Generated_Source\PSoC6\pdl\drivers/peripheral/scb/cy_scb_uart.h **** *******************************************************************************/
1043:Generated_Source\PSoC6\pdl\drivers/peripheral/scb/cy_scb_uart.h **** __STATIC_INLINE void Cy_SCB_UART_Enable(CySCB_Type *base)
1044:Generated_Source\PSoC6\pdl\drivers/peripheral/scb/cy_scb_uart.h **** {
1045:Generated_Source\PSoC6\pdl\drivers/peripheral/scb/cy_scb_uart.h ****     SCB_CTRL(base) |= SCB_CTRL_ENABLED_Msk;
1046:Generated_Source\PSoC6\pdl\drivers/peripheral/scb/cy_scb_uart.h **** }
1047:Generated_Source\PSoC6\pdl\drivers/peripheral/scb/cy_scb_uart.h **** 
1048:Generated_Source\PSoC6\pdl\drivers/peripheral/scb/cy_scb_uart.h **** 
1049:Generated_Source\PSoC6\pdl\drivers/peripheral/scb/cy_scb_uart.h **** /*******************************************************************************
1050:Generated_Source\PSoC6\pdl\drivers/peripheral/scb/cy_scb_uart.h **** * Function Name: Cy_SCB_UART_EnableCts
1051:Generated_Source\PSoC6\pdl\drivers/peripheral/scb/cy_scb_uart.h **** ****************************************************************************//**
1052:Generated_Source\PSoC6\pdl\drivers/peripheral/scb/cy_scb_uart.h **** *
1053:Generated_Source\PSoC6\pdl\drivers/peripheral/scb/cy_scb_uart.h **** * Enables the Clear to Send (CTS) input for the UART. The UART will not transmit
1054:Generated_Source\PSoC6\pdl\drivers/peripheral/scb/cy_scb_uart.h **** * data while this signal is inactive.
1055:Generated_Source\PSoC6\pdl\drivers/peripheral/scb/cy_scb_uart.h **** *
1056:Generated_Source\PSoC6\pdl\drivers/peripheral/scb/cy_scb_uart.h **** * \param base
1057:Generated_Source\PSoC6\pdl\drivers/peripheral/scb/cy_scb_uart.h **** * The pointer to the UART SCB instance.
1058:Generated_Source\PSoC6\pdl\drivers/peripheral/scb/cy_scb_uart.h **** *
1059:Generated_Source\PSoC6\pdl\drivers/peripheral/scb/cy_scb_uart.h **** *******************************************************************************/
1060:Generated_Source\PSoC6\pdl\drivers/peripheral/scb/cy_scb_uart.h **** __STATIC_INLINE void Cy_SCB_UART_EnableCts(CySCB_Type *base)
1061:Generated_Source\PSoC6\pdl\drivers/peripheral/scb/cy_scb_uart.h **** {
1062:Generated_Source\PSoC6\pdl\drivers/peripheral/scb/cy_scb_uart.h ****     SCB_UART_FLOW_CTRL(base) |= SCB_UART_FLOW_CTRL_CTS_ENABLED_Msk;
ARM GAS  C:\Users\ISAKVO~1\AppData\Local\Temp\ccR1W42h.s 			page 27


1063:Generated_Source\PSoC6\pdl\drivers/peripheral/scb/cy_scb_uart.h **** }
1064:Generated_Source\PSoC6\pdl\drivers/peripheral/scb/cy_scb_uart.h **** 
1065:Generated_Source\PSoC6\pdl\drivers/peripheral/scb/cy_scb_uart.h **** 
1066:Generated_Source\PSoC6\pdl\drivers/peripheral/scb/cy_scb_uart.h **** /*******************************************************************************
1067:Generated_Source\PSoC6\pdl\drivers/peripheral/scb/cy_scb_uart.h **** * Function Name: Cy_SCB_UART_DisableCts
1068:Generated_Source\PSoC6\pdl\drivers/peripheral/scb/cy_scb_uart.h **** ****************************************************************************//**
1069:Generated_Source\PSoC6\pdl\drivers/peripheral/scb/cy_scb_uart.h **** *
1070:Generated_Source\PSoC6\pdl\drivers/peripheral/scb/cy_scb_uart.h **** * Disables the Clear to Send (CTS) input for the UART.
1071:Generated_Source\PSoC6\pdl\drivers/peripheral/scb/cy_scb_uart.h **** * See \ref Cy_SCB_UART_EnableCts for the details.
1072:Generated_Source\PSoC6\pdl\drivers/peripheral/scb/cy_scb_uart.h **** *
1073:Generated_Source\PSoC6\pdl\drivers/peripheral/scb/cy_scb_uart.h **** * \param base
1074:Generated_Source\PSoC6\pdl\drivers/peripheral/scb/cy_scb_uart.h **** * The pointer to the UART SCB instance.
1075:Generated_Source\PSoC6\pdl\drivers/peripheral/scb/cy_scb_uart.h **** *
1076:Generated_Source\PSoC6\pdl\drivers/peripheral/scb/cy_scb_uart.h **** *******************************************************************************/
1077:Generated_Source\PSoC6\pdl\drivers/peripheral/scb/cy_scb_uart.h **** __STATIC_INLINE void Cy_SCB_UART_DisableCts(CySCB_Type *base)
1078:Generated_Source\PSoC6\pdl\drivers/peripheral/scb/cy_scb_uart.h **** {
1079:Generated_Source\PSoC6\pdl\drivers/peripheral/scb/cy_scb_uart.h ****     SCB_UART_FLOW_CTRL(base) &= (uint32_t) ~SCB_UART_FLOW_CTRL_CTS_ENABLED_Msk;
1080:Generated_Source\PSoC6\pdl\drivers/peripheral/scb/cy_scb_uart.h **** }
1081:Generated_Source\PSoC6\pdl\drivers/peripheral/scb/cy_scb_uart.h **** 
1082:Generated_Source\PSoC6\pdl\drivers/peripheral/scb/cy_scb_uart.h **** 
1083:Generated_Source\PSoC6\pdl\drivers/peripheral/scb/cy_scb_uart.h **** /*******************************************************************************
1084:Generated_Source\PSoC6\pdl\drivers/peripheral/scb/cy_scb_uart.h **** * Function Name: Cy_SCB_UART_SetRtsFifoLevel
1085:Generated_Source\PSoC6\pdl\drivers/peripheral/scb/cy_scb_uart.h **** ****************************************************************************//**
1086:Generated_Source\PSoC6\pdl\drivers/peripheral/scb/cy_scb_uart.h **** *
1087:Generated_Source\PSoC6\pdl\drivers/peripheral/scb/cy_scb_uart.h **** * Sets a level for the Ready To Send (RTS) signal activation.
1088:Generated_Source\PSoC6\pdl\drivers/peripheral/scb/cy_scb_uart.h **** * When the number of data elements in the receive FIFO is below this level,
1089:Generated_Source\PSoC6\pdl\drivers/peripheral/scb/cy_scb_uart.h **** * then the RTS output is active. Otherwise, the RTS signal is inactive.
1090:Generated_Source\PSoC6\pdl\drivers/peripheral/scb/cy_scb_uart.h **** * To disable the RTS signal generation, set this level to zero.
1091:Generated_Source\PSoC6\pdl\drivers/peripheral/scb/cy_scb_uart.h **** *
1092:Generated_Source\PSoC6\pdl\drivers/peripheral/scb/cy_scb_uart.h **** * \param base
1093:Generated_Source\PSoC6\pdl\drivers/peripheral/scb/cy_scb_uart.h **** * The pointer to the UART SCB instance.
1094:Generated_Source\PSoC6\pdl\drivers/peripheral/scb/cy_scb_uart.h **** *
1095:Generated_Source\PSoC6\pdl\drivers/peripheral/scb/cy_scb_uart.h **** * \param level
1096:Generated_Source\PSoC6\pdl\drivers/peripheral/scb/cy_scb_uart.h **** * The level in the RX FIFO for RTS signal activation.
1097:Generated_Source\PSoC6\pdl\drivers/peripheral/scb/cy_scb_uart.h **** *
1098:Generated_Source\PSoC6\pdl\drivers/peripheral/scb/cy_scb_uart.h **** *******************************************************************************/
1099:Generated_Source\PSoC6\pdl\drivers/peripheral/scb/cy_scb_uart.h **** __STATIC_INLINE void Cy_SCB_UART_SetRtsFifoLevel(CySCB_Type *base, uint32_t level)
1100:Generated_Source\PSoC6\pdl\drivers/peripheral/scb/cy_scb_uart.h **** {
1101:Generated_Source\PSoC6\pdl\drivers/peripheral/scb/cy_scb_uart.h ****     CY_ASSERT_L2(CY_SCB_IS_TRIGGER_LEVEL_VALID(base, level));
1102:Generated_Source\PSoC6\pdl\drivers/peripheral/scb/cy_scb_uart.h **** 
1103:Generated_Source\PSoC6\pdl\drivers/peripheral/scb/cy_scb_uart.h ****     CY_REG32_CLR_SET(SCB_UART_FLOW_CTRL(base), SCB_UART_FLOW_CTRL_TRIGGER_LEVEL, level);
1104:Generated_Source\PSoC6\pdl\drivers/peripheral/scb/cy_scb_uart.h **** }
1105:Generated_Source\PSoC6\pdl\drivers/peripheral/scb/cy_scb_uart.h **** 
1106:Generated_Source\PSoC6\pdl\drivers/peripheral/scb/cy_scb_uart.h **** 
1107:Generated_Source\PSoC6\pdl\drivers/peripheral/scb/cy_scb_uart.h **** /*******************************************************************************
1108:Generated_Source\PSoC6\pdl\drivers/peripheral/scb/cy_scb_uart.h **** * Function Name: Cy_SCB_UART_GetRtsFifoLevel
1109:Generated_Source\PSoC6\pdl\drivers/peripheral/scb/cy_scb_uart.h **** ****************************************************************************//**
1110:Generated_Source\PSoC6\pdl\drivers/peripheral/scb/cy_scb_uart.h **** *
1111:Generated_Source\PSoC6\pdl\drivers/peripheral/scb/cy_scb_uart.h **** * Returns the level in the RX FIFO for the RTS signal activation.
1112:Generated_Source\PSoC6\pdl\drivers/peripheral/scb/cy_scb_uart.h **** *
1113:Generated_Source\PSoC6\pdl\drivers/peripheral/scb/cy_scb_uart.h **** * \param base
1114:Generated_Source\PSoC6\pdl\drivers/peripheral/scb/cy_scb_uart.h **** * The pointer to the UART SCB instance.
1115:Generated_Source\PSoC6\pdl\drivers/peripheral/scb/cy_scb_uart.h **** *
1116:Generated_Source\PSoC6\pdl\drivers/peripheral/scb/cy_scb_uart.h **** * \return
1117:Generated_Source\PSoC6\pdl\drivers/peripheral/scb/cy_scb_uart.h **** * The level in the RX FIFO for RTS signal activation.
1118:Generated_Source\PSoC6\pdl\drivers/peripheral/scb/cy_scb_uart.h **** *
1119:Generated_Source\PSoC6\pdl\drivers/peripheral/scb/cy_scb_uart.h **** *******************************************************************************/
ARM GAS  C:\Users\ISAKVO~1\AppData\Local\Temp\ccR1W42h.s 			page 28


1120:Generated_Source\PSoC6\pdl\drivers/peripheral/scb/cy_scb_uart.h **** __STATIC_INLINE uint32_t Cy_SCB_UART_GetRtsFifoLevel(CySCB_Type const *base)
1121:Generated_Source\PSoC6\pdl\drivers/peripheral/scb/cy_scb_uart.h **** {
1122:Generated_Source\PSoC6\pdl\drivers/peripheral/scb/cy_scb_uart.h ****     return _FLD2VAL(SCB_UART_FLOW_CTRL_TRIGGER_LEVEL, SCB_UART_FLOW_CTRL(base));
1123:Generated_Source\PSoC6\pdl\drivers/peripheral/scb/cy_scb_uart.h **** }
1124:Generated_Source\PSoC6\pdl\drivers/peripheral/scb/cy_scb_uart.h **** 
1125:Generated_Source\PSoC6\pdl\drivers/peripheral/scb/cy_scb_uart.h **** 
1126:Generated_Source\PSoC6\pdl\drivers/peripheral/scb/cy_scb_uart.h **** /*******************************************************************************
1127:Generated_Source\PSoC6\pdl\drivers/peripheral/scb/cy_scb_uart.h **** * Function Name: Cy_SCB_UART_EnableSkipStart
1128:Generated_Source\PSoC6\pdl\drivers/peripheral/scb/cy_scb_uart.h **** ****************************************************************************//**
1129:Generated_Source\PSoC6\pdl\drivers/peripheral/scb/cy_scb_uart.h **** *
1130:Generated_Source\PSoC6\pdl\drivers/peripheral/scb/cy_scb_uart.h **** * Enables the skip start-bit functionality.
1131:Generated_Source\PSoC6\pdl\drivers/peripheral/scb/cy_scb_uart.h **** * When skip start is enabled the UART hardware does not synchronize to a 
1132:Generated_Source\PSoC6\pdl\drivers/peripheral/scb/cy_scb_uart.h **** * start bit but synchronizes to the first rising edge. To create a rising edge, 
1133:Generated_Source\PSoC6\pdl\drivers/peripheral/scb/cy_scb_uart.h **** * the first data bit must be a 1. This feature is useful when the start bit 
1134:Generated_Source\PSoC6\pdl\drivers/peripheral/scb/cy_scb_uart.h **** * falling edge is used to wake the device through a GPIO interrupt.
1135:Generated_Source\PSoC6\pdl\drivers/peripheral/scb/cy_scb_uart.h **** *
1136:Generated_Source\PSoC6\pdl\drivers/peripheral/scb/cy_scb_uart.h **** * \param base
1137:Generated_Source\PSoC6\pdl\drivers/peripheral/scb/cy_scb_uart.h **** * The pointer to the UART SCB instance.
1138:Generated_Source\PSoC6\pdl\drivers/peripheral/scb/cy_scb_uart.h **** *
1139:Generated_Source\PSoC6\pdl\drivers/peripheral/scb/cy_scb_uart.h **** * \note
1140:Generated_Source\PSoC6\pdl\drivers/peripheral/scb/cy_scb_uart.h **** * When skip start-bit feature is enabled, it is applied (UART synchronizes 
1141:Generated_Source\PSoC6\pdl\drivers/peripheral/scb/cy_scb_uart.h **** * to the first rising edge after start bit) whenever the SCB is enabled. 
1142:Generated_Source\PSoC6\pdl\drivers/peripheral/scb/cy_scb_uart.h **** * This can cause incorrect UART synchronization and data reception when 
1143:Generated_Source\PSoC6\pdl\drivers/peripheral/scb/cy_scb_uart.h **** * the first data bit is not a 1. Therefore, disable the skip start-bit 
1144:Generated_Source\PSoC6\pdl\drivers/peripheral/scb/cy_scb_uart.h **** * when it should not be applied.
1145:Generated_Source\PSoC6\pdl\drivers/peripheral/scb/cy_scb_uart.h **** * Note that SCB is disabled before enter Deep Sleep mode or after calling 
1146:Generated_Source\PSoC6\pdl\drivers/peripheral/scb/cy_scb_uart.h **** * \ref Cy_SCB_UART_Disable.
1147:Generated_Source\PSoC6\pdl\drivers/peripheral/scb/cy_scb_uart.h **** *
1148:Generated_Source\PSoC6\pdl\drivers/peripheral/scb/cy_scb_uart.h **** *******************************************************************************/
1149:Generated_Source\PSoC6\pdl\drivers/peripheral/scb/cy_scb_uart.h **** __STATIC_INLINE void Cy_SCB_UART_EnableSkipStart(CySCB_Type *base)
1150:Generated_Source\PSoC6\pdl\drivers/peripheral/scb/cy_scb_uart.h **** {
1151:Generated_Source\PSoC6\pdl\drivers/peripheral/scb/cy_scb_uart.h ****     SCB_UART_RX_CTRL(base) |= SCB_UART_RX_CTRL_SKIP_START_Msk;
1152:Generated_Source\PSoC6\pdl\drivers/peripheral/scb/cy_scb_uart.h **** }
1153:Generated_Source\PSoC6\pdl\drivers/peripheral/scb/cy_scb_uart.h **** 
1154:Generated_Source\PSoC6\pdl\drivers/peripheral/scb/cy_scb_uart.h **** 
1155:Generated_Source\PSoC6\pdl\drivers/peripheral/scb/cy_scb_uart.h **** /*******************************************************************************
1156:Generated_Source\PSoC6\pdl\drivers/peripheral/scb/cy_scb_uart.h **** * Function Name: Cy_SCB_UART_DisableSkipStart
1157:Generated_Source\PSoC6\pdl\drivers/peripheral/scb/cy_scb_uart.h **** ****************************************************************************//**
1158:Generated_Source\PSoC6\pdl\drivers/peripheral/scb/cy_scb_uart.h **** *
1159:Generated_Source\PSoC6\pdl\drivers/peripheral/scb/cy_scb_uart.h **** * Disable the skip start-bit functionality.
1160:Generated_Source\PSoC6\pdl\drivers/peripheral/scb/cy_scb_uart.h **** * See \ref Cy_SCB_UART_EnableSkipStart for the details.
1161:Generated_Source\PSoC6\pdl\drivers/peripheral/scb/cy_scb_uart.h **** *
1162:Generated_Source\PSoC6\pdl\drivers/peripheral/scb/cy_scb_uart.h **** * \param base
1163:Generated_Source\PSoC6\pdl\drivers/peripheral/scb/cy_scb_uart.h **** * The pointer to the UART SCB instance.
1164:Generated_Source\PSoC6\pdl\drivers/peripheral/scb/cy_scb_uart.h **** *
1165:Generated_Source\PSoC6\pdl\drivers/peripheral/scb/cy_scb_uart.h **** *******************************************************************************/
1166:Generated_Source\PSoC6\pdl\drivers/peripheral/scb/cy_scb_uart.h **** __STATIC_INLINE void Cy_SCB_UART_DisableSkipStart(CySCB_Type *base)
1167:Generated_Source\PSoC6\pdl\drivers/peripheral/scb/cy_scb_uart.h **** {
1168:Generated_Source\PSoC6\pdl\drivers/peripheral/scb/cy_scb_uart.h ****     SCB_UART_RX_CTRL(base) &= (uint32_t) ~SCB_UART_RX_CTRL_SKIP_START_Msk;
1169:Generated_Source\PSoC6\pdl\drivers/peripheral/scb/cy_scb_uart.h **** }
1170:Generated_Source\PSoC6\pdl\drivers/peripheral/scb/cy_scb_uart.h **** /** \} group_scb_uart_general_functions */
1171:Generated_Source\PSoC6\pdl\drivers/peripheral/scb/cy_scb_uart.h **** 
1172:Generated_Source\PSoC6\pdl\drivers/peripheral/scb/cy_scb_uart.h **** 
1173:Generated_Source\PSoC6\pdl\drivers/peripheral/scb/cy_scb_uart.h **** /**
1174:Generated_Source\PSoC6\pdl\drivers/peripheral/scb/cy_scb_uart.h **** * \addtogroup group_scb_uart_low_level_functions
1175:Generated_Source\PSoC6\pdl\drivers/peripheral/scb/cy_scb_uart.h **** * \{
1176:Generated_Source\PSoC6\pdl\drivers/peripheral/scb/cy_scb_uart.h **** */
ARM GAS  C:\Users\ISAKVO~1\AppData\Local\Temp\ccR1W42h.s 			page 29


1177:Generated_Source\PSoC6\pdl\drivers/peripheral/scb/cy_scb_uart.h **** /*******************************************************************************
1178:Generated_Source\PSoC6\pdl\drivers/peripheral/scb/cy_scb_uart.h **** * Function Name: Cy_SCB_UART_Get
1179:Generated_Source\PSoC6\pdl\drivers/peripheral/scb/cy_scb_uart.h **** ****************************************************************************//**
1180:Generated_Source\PSoC6\pdl\drivers/peripheral/scb/cy_scb_uart.h **** *
1181:Generated_Source\PSoC6\pdl\drivers/peripheral/scb/cy_scb_uart.h **** * Reads a single data element from the UART RX FIFO.
1182:Generated_Source\PSoC6\pdl\drivers/peripheral/scb/cy_scb_uart.h **** * This function does not check whether the RX FIFO has data before reading it.
1183:Generated_Source\PSoC6\pdl\drivers/peripheral/scb/cy_scb_uart.h **** * If the RX FIFO is empty, the function returns \ref CY_SCB_UART_RX_NO_DATA.
1184:Generated_Source\PSoC6\pdl\drivers/peripheral/scb/cy_scb_uart.h **** *
1185:Generated_Source\PSoC6\pdl\drivers/peripheral/scb/cy_scb_uart.h **** * \param base
1186:Generated_Source\PSoC6\pdl\drivers/peripheral/scb/cy_scb_uart.h **** * The pointer to the UART SCB instance.
1187:Generated_Source\PSoC6\pdl\drivers/peripheral/scb/cy_scb_uart.h **** *
1188:Generated_Source\PSoC6\pdl\drivers/peripheral/scb/cy_scb_uart.h **** * \return
1189:Generated_Source\PSoC6\pdl\drivers/peripheral/scb/cy_scb_uart.h **** * Data from the RX FIFO.
1190:Generated_Source\PSoC6\pdl\drivers/peripheral/scb/cy_scb_uart.h **** * The data element size is defined by the configured data width.
1191:Generated_Source\PSoC6\pdl\drivers/peripheral/scb/cy_scb_uart.h **** *
1192:Generated_Source\PSoC6\pdl\drivers/peripheral/scb/cy_scb_uart.h **** *******************************************************************************/
1193:Generated_Source\PSoC6\pdl\drivers/peripheral/scb/cy_scb_uart.h **** __STATIC_INLINE uint32_t Cy_SCB_UART_Get(CySCB_Type const *base)
1194:Generated_Source\PSoC6\pdl\drivers/peripheral/scb/cy_scb_uart.h **** {
1195:Generated_Source\PSoC6\pdl\drivers/peripheral/scb/cy_scb_uart.h ****     return Cy_SCB_ReadRxFifo(base);
1196:Generated_Source\PSoC6\pdl\drivers/peripheral/scb/cy_scb_uart.h **** }
1197:Generated_Source\PSoC6\pdl\drivers/peripheral/scb/cy_scb_uart.h **** 
1198:Generated_Source\PSoC6\pdl\drivers/peripheral/scb/cy_scb_uart.h **** 
1199:Generated_Source\PSoC6\pdl\drivers/peripheral/scb/cy_scb_uart.h **** /*******************************************************************************
1200:Generated_Source\PSoC6\pdl\drivers/peripheral/scb/cy_scb_uart.h **** * Function Name: Cy_SCB_UART_GetArray
1201:Generated_Source\PSoC6\pdl\drivers/peripheral/scb/cy_scb_uart.h **** ****************************************************************************//**
1202:Generated_Source\PSoC6\pdl\drivers/peripheral/scb/cy_scb_uart.h **** *
1203:Generated_Source\PSoC6\pdl\drivers/peripheral/scb/cy_scb_uart.h **** * Reads an array of data out of the UART RX FIFO.
1204:Generated_Source\PSoC6\pdl\drivers/peripheral/scb/cy_scb_uart.h **** * This function does not block. It returns how many data elements were read
1205:Generated_Source\PSoC6\pdl\drivers/peripheral/scb/cy_scb_uart.h **** * from the RX FIFO.
1206:Generated_Source\PSoC6\pdl\drivers/peripheral/scb/cy_scb_uart.h **** *
1207:Generated_Source\PSoC6\pdl\drivers/peripheral/scb/cy_scb_uart.h **** * \param base
1208:Generated_Source\PSoC6\pdl\drivers/peripheral/scb/cy_scb_uart.h **** * The pointer to the UART SCB instance.
1209:Generated_Source\PSoC6\pdl\drivers/peripheral/scb/cy_scb_uart.h **** *
1210:Generated_Source\PSoC6\pdl\drivers/peripheral/scb/cy_scb_uart.h **** * \param buffer
1211:Generated_Source\PSoC6\pdl\drivers/peripheral/scb/cy_scb_uart.h **** * The pointer to the location to place the data read from the RX FIFO.
1212:Generated_Source\PSoC6\pdl\drivers/peripheral/scb/cy_scb_uart.h **** * The element size is defined by the data type, which depends on the configured
1213:Generated_Source\PSoC6\pdl\drivers/peripheral/scb/cy_scb_uart.h **** * data width.
1214:Generated_Source\PSoC6\pdl\drivers/peripheral/scb/cy_scb_uart.h **** *
1215:Generated_Source\PSoC6\pdl\drivers/peripheral/scb/cy_scb_uart.h **** * \param size
1216:Generated_Source\PSoC6\pdl\drivers/peripheral/scb/cy_scb_uart.h **** * The number of data elements to read from the RX FIFO.
1217:Generated_Source\PSoC6\pdl\drivers/peripheral/scb/cy_scb_uart.h **** *
1218:Generated_Source\PSoC6\pdl\drivers/peripheral/scb/cy_scb_uart.h **** * \return
1219:Generated_Source\PSoC6\pdl\drivers/peripheral/scb/cy_scb_uart.h **** * The number of data elements read from the RX FIFO.
1220:Generated_Source\PSoC6\pdl\drivers/peripheral/scb/cy_scb_uart.h **** *
1221:Generated_Source\PSoC6\pdl\drivers/peripheral/scb/cy_scb_uart.h **** *******************************************************************************/
1222:Generated_Source\PSoC6\pdl\drivers/peripheral/scb/cy_scb_uart.h **** __STATIC_INLINE uint32_t Cy_SCB_UART_GetArray(CySCB_Type const *base, void *buffer, uint32_t size)
1223:Generated_Source\PSoC6\pdl\drivers/peripheral/scb/cy_scb_uart.h **** {
1224:Generated_Source\PSoC6\pdl\drivers/peripheral/scb/cy_scb_uart.h ****     CY_ASSERT_L1(CY_SCB_IS_BUFFER_VALID(buffer, size));
1225:Generated_Source\PSoC6\pdl\drivers/peripheral/scb/cy_scb_uart.h **** 
1226:Generated_Source\PSoC6\pdl\drivers/peripheral/scb/cy_scb_uart.h ****     return Cy_SCB_ReadArray(base, buffer, size);
1227:Generated_Source\PSoC6\pdl\drivers/peripheral/scb/cy_scb_uart.h **** }
1228:Generated_Source\PSoC6\pdl\drivers/peripheral/scb/cy_scb_uart.h **** 
1229:Generated_Source\PSoC6\pdl\drivers/peripheral/scb/cy_scb_uart.h **** 
1230:Generated_Source\PSoC6\pdl\drivers/peripheral/scb/cy_scb_uart.h **** /*******************************************************************************
1231:Generated_Source\PSoC6\pdl\drivers/peripheral/scb/cy_scb_uart.h **** * Function Name: Cy_SCB_UART_GetArrayBlocking
1232:Generated_Source\PSoC6\pdl\drivers/peripheral/scb/cy_scb_uart.h **** ****************************************************************************//**
1233:Generated_Source\PSoC6\pdl\drivers/peripheral/scb/cy_scb_uart.h **** *
ARM GAS  C:\Users\ISAKVO~1\AppData\Local\Temp\ccR1W42h.s 			page 30


1234:Generated_Source\PSoC6\pdl\drivers/peripheral/scb/cy_scb_uart.h **** * Reads an array of data out of the UART RX FIFO.
1235:Generated_Source\PSoC6\pdl\drivers/peripheral/scb/cy_scb_uart.h **** * This function blocks until the number of data elements specified by the
1236:Generated_Source\PSoC6\pdl\drivers/peripheral/scb/cy_scb_uart.h **** * size has been read from the RX FIFO.
1237:Generated_Source\PSoC6\pdl\drivers/peripheral/scb/cy_scb_uart.h **** *
1238:Generated_Source\PSoC6\pdl\drivers/peripheral/scb/cy_scb_uart.h **** * \param base
1239:Generated_Source\PSoC6\pdl\drivers/peripheral/scb/cy_scb_uart.h **** * The pointer to the UART SCB instance.
1240:Generated_Source\PSoC6\pdl\drivers/peripheral/scb/cy_scb_uart.h **** *
1241:Generated_Source\PSoC6\pdl\drivers/peripheral/scb/cy_scb_uart.h **** * \param buffer
1242:Generated_Source\PSoC6\pdl\drivers/peripheral/scb/cy_scb_uart.h **** * The pointer to the location to place the data read from the RX FIFO.
1243:Generated_Source\PSoC6\pdl\drivers/peripheral/scb/cy_scb_uart.h **** * The element size is defined by the data type, which depends on the configured
1244:Generated_Source\PSoC6\pdl\drivers/peripheral/scb/cy_scb_uart.h **** * data width.
1245:Generated_Source\PSoC6\pdl\drivers/peripheral/scb/cy_scb_uart.h **** *
1246:Generated_Source\PSoC6\pdl\drivers/peripheral/scb/cy_scb_uart.h **** * \param size
1247:Generated_Source\PSoC6\pdl\drivers/peripheral/scb/cy_scb_uart.h **** * The number of data elements to read from the RX FIFO.
1248:Generated_Source\PSoC6\pdl\drivers/peripheral/scb/cy_scb_uart.h **** *
1249:Generated_Source\PSoC6\pdl\drivers/peripheral/scb/cy_scb_uart.h **** *******************************************************************************/
1250:Generated_Source\PSoC6\pdl\drivers/peripheral/scb/cy_scb_uart.h **** __STATIC_INLINE void Cy_SCB_UART_GetArrayBlocking(CySCB_Type const *base, void *buffer, uint32_t si
1251:Generated_Source\PSoC6\pdl\drivers/peripheral/scb/cy_scb_uart.h **** {
1252:Generated_Source\PSoC6\pdl\drivers/peripheral/scb/cy_scb_uart.h ****     CY_ASSERT_L1(CY_SCB_IS_BUFFER_VALID(buffer, size));
1253:Generated_Source\PSoC6\pdl\drivers/peripheral/scb/cy_scb_uart.h **** 
1254:Generated_Source\PSoC6\pdl\drivers/peripheral/scb/cy_scb_uart.h ****     Cy_SCB_ReadArrayBlocking(base, buffer, size);
 177              		.loc 5 1254 0
 178 007e 914D     		ldr	r5, .L81+4
 179 0080 0422     		movs	r2, #4
 180 0082 05F12C01 		add	r1, r5, #44
 181 0086 9048     		ldr	r0, .L81+8
 182 0088 FFF7FEFF 		bl	Cy_SCB_ReadArrayBlocking
 183              	.LVL17:
 184              	.LBE165:
 185              	.LBE164:
 186              	.LBE163:
  18:communication.h **** }
  19:communication.h ****  
  20:communication.h **** static inline void receive_message(u8 *buffer, u8 length)
  21:communication.h **** {
  22:communication.h ****     if ((length + 2u > RECEIVE_BUFFER_LENGTH) || buffer == NULL) return;
  23:communication.h ****     
  24:communication.h ****     UART_GetArrayBlocking(communication_receive_buffer, length + 2u);
  25:communication.h ****     
  26:communication.h ****     if ((communication_receive_buffer[0] == PACKET_START_VALUE) 
 187              		.loc 3 26 0
 188 008c 95F82C30 		ldrb	r3, [r5, #44]	@ zero_extendqisi2
 189 0090 3C2B     		cmp	r3, #60
 190 0092 14D1     		bne	.L10
  27:communication.h ****         && (communication_receive_buffer[length + 1u] == PACKET_END_VALUE))
 191              		.loc 3 27 0
 192 0094 95F82F30 		ldrb	r3, [r5, #47]	@ zero_extendqisi2
 193 0098 3E2B     		cmp	r3, #62
 194 009a 10D1     		bne	.L10
 195 009c 09E0     		b	.L71
 196              	.LVL18:
 197              	.L12:
 198              	.LBB166:
  28:communication.h ****     {
  29:communication.h ****         for (u8 index = 0u; index < length; index++)
  30:communication.h ****             buffer[index] = communication_receive_buffer[index + 1u];
 199              		.loc 3 30 0
ARM GAS  C:\Users\ISAKVO~1\AppData\Local\Temp\ccR1W42h.s 			page 31


 200 009e 894A     		ldr	r2, .L81+4
 201 00a0 02F11800 		add	r0, r2, #24
 202 00a4 591C     		adds	r1, r3, #1
 203 00a6 0A44     		add	r2, r2, r1
 204 00a8 92F82C20 		ldrb	r2, [r2, #44]	@ zero_extendqisi2
 205 00ac C254     		strb	r2, [r0, r3]
  29:communication.h ****             buffer[index] = communication_receive_buffer[index + 1u];
 206              		.loc 3 29 0
 207 00ae CBB2     		uxtb	r3, r1
 208              	.LVL19:
 209 00b0 00E0     		b	.L11
 210              	.LVL20:
 211              	.L71:
 212              	.LBE166:
  27:communication.h ****         && (communication_receive_buffer[length + 1u] == PACKET_END_VALUE))
 213              		.loc 3 27 0
 214 00b2 0023     		movs	r3, #0
 215              	.L11:
 216              	.LVL21:
 217              	.LBB167:
  29:communication.h ****             buffer[index] = communication_receive_buffer[index + 1u];
 218              		.loc 3 29 0
 219 00b4 012B     		cmp	r3, #1
 220 00b6 F2D9     		bls	.L12
 221              	.LBE167:
  31:communication.h ****             
  32:communication.h ****         memset(communication_receive_buffer, 0u, RECEIVE_BUFFER_LENGTH);
 222              		.loc 3 32 0
 223 00b8 0022     		movs	r2, #0
 224 00ba 824B     		ldr	r3, .L81+4
 225              	.LVL22:
 226 00bc DA62     		str	r2, [r3, #44]
 227              	.L10:
 228              	.LVL23:
 229              	.LBE162:
 230              	.LBE161:
  84:game.h        ****     
  85:game.h        ****     while (!recieved)
  86:game.h        ****     {
  87:game.h        ****         receive_message(game_packet, GAME_TYPE_PACKET_LENGTH);
  88:game.h        ****         
  89:game.h        ****         if (memcmp(game_packet, man_vs_man_packet, GAME_TYPE_PACKET_LENGTH) == 0)
 231              		.loc 4 89 0
 232 00be 8148     		ldr	r0, .L81+4
 233 00c0 0222     		movs	r2, #2
 234 00c2 00F11C01 		add	r1, r0, #28
 235 00c6 1830     		adds	r0, r0, #24
 236 00c8 FFF7FEFF 		bl	memcmp
 237              	.LVL24:
 238 00cc 20B9     		cbnz	r0, .L13
  90:game.h        ****         {
  91:game.h        ****             type = MAN_VS_MAN;
 239              		.loc 4 91 0
 240 00ce 0124     		movs	r4, #1
 241              	.LVL25:
 242 00d0 7C4B     		ldr	r3, .L81+4
 243 00d2 83F83040 		strb	r4, [r3, #48]
ARM GAS  C:\Users\ISAKVO~1\AppData\Local\Temp\ccR1W42h.s 			page 32


 244              	.LVL26:
 245 00d6 1AE0     		b	.L9
 246              	.LVL27:
 247              	.L13:
  92:game.h        ****             
  93:game.h        ****             send_ack(man_vs_man_packet);
  94:game.h        ****         }
  95:game.h        ****         else if (memcmp(game_packet, man_vs_ai_packet, GAME_TYPE_PACKET_LENGTH) == 0)
 248              		.loc 4 95 0
 249 00d8 7A48     		ldr	r0, .L81+4
 250 00da 0222     		movs	r2, #2
 251 00dc 00F12001 		add	r1, r0, #32
 252 00e0 1830     		adds	r0, r0, #24
 253 00e2 FFF7FEFF 		bl	memcmp
 254              	.LVL28:
 255 00e6 28B9     		cbnz	r0, .L15
  96:game.h        ****         {
  97:game.h        ****             type = MAN_VS_AI;
 256              		.loc 4 97 0
 257 00e8 0222     		movs	r2, #2
 258 00ea 764B     		ldr	r3, .L81+4
 259 00ec 83F83020 		strb	r2, [r3, #48]
 260              	.LVL29:
  98:game.h        ****             
  99:game.h        ****             send_ack(man_vs_ai_packet);
 100:game.h        ****         }
 101:game.h        ****         else if (memcmp(game_packet, ai_vs_ai_packet, GAME_TYPE_PACKET_LENGTH) == 0)
 102:game.h        ****         {
 103:game.h        ****             type = AI_VS_AI;
 104:game.h        ****             
 105:game.h        ****             send_ack(ai_vs_ai_packet);
 106:game.h        ****         }
 107:game.h        ****         else
 108:game.h        ****             continue;
 109:game.h        ****         
 110:game.h        ****         recieved = TRUE;
 261              		.loc 4 110 0
 262 00f0 0124     		movs	r4, #1
 263              	.LVL30:
 264 00f2 0CE0     		b	.L9
 265              	.LVL31:
 266              	.L15:
 101:game.h        ****         {
 267              		.loc 4 101 0
 268 00f4 7348     		ldr	r0, .L81+4
 269 00f6 0222     		movs	r2, #2
 270 00f8 00F12401 		add	r1, r0, #36
 271 00fc 1830     		adds	r0, r0, #24
 272 00fe FFF7FEFF 		bl	memcmp
 273              	.LVL32:
 274 0102 20B9     		cbnz	r0, .L9
 103:game.h        ****             
 275              		.loc 4 103 0
 276 0104 0322     		movs	r2, #3
 277 0106 6F4B     		ldr	r3, .L81+4
 278 0108 83F83020 		strb	r2, [r3, #48]
 279              	.LVL33:
ARM GAS  C:\Users\ISAKVO~1\AppData\Local\Temp\ccR1W42h.s 			page 33


 280              		.loc 4 110 0
 281 010c 0124     		movs	r4, #1
 282              	.LVL34:
 283              	.L9:
  85:game.h        ****     {
 284              		.loc 4 85 0
 285 010e 002C     		cmp	r4, #0
 286 0110 B5D0     		beq	.L16
 287              	.LVL35:
 288              	.L69:
 289              	.LBE160:
 290              	.LBE159:
 291              	.LBE149:
 292              	.LBB168:
 293              	.LBB169:
 294              	.LBB170:
 295              	.LBB171:
 296              	.LBB172:
 297              	.LBB173:
 298              	.LBB174:
 299              	.LBB175:
 300              		.loc 5 1254 0
 301 0112 6C4C     		ldr	r4, .L81+4
 302 0114 0422     		movs	r2, #4
 303 0116 04F12C01 		add	r1, r4, #44
 304 011a 6B48     		ldr	r0, .L81+8
 305 011c FFF7FEFF 		bl	Cy_SCB_ReadArrayBlocking
 306              	.LVL36:
 307              	.LBE175:
 308              	.LBE174:
 309              	.LBE173:
  26:communication.h ****         && (communication_receive_buffer[length + 1u] == PACKET_END_VALUE))
 310              		.loc 3 26 0
 311 0120 94F82C30 		ldrb	r3, [r4, #44]	@ zero_extendqisi2
 312 0124 3C2B     		cmp	r3, #60
 313 0126 14D1     		bne	.L17
  27:communication.h ****     {
 314              		.loc 3 27 0
 315 0128 94F82F30 		ldrb	r3, [r4, #47]	@ zero_extendqisi2
 316 012c 3E2B     		cmp	r3, #62
 317 012e 10D1     		bne	.L17
 318 0130 09E0     		b	.L72
 319              	.LVL37:
 320              	.L19:
 321              	.LBB176:
  30:communication.h ****             
 322              		.loc 3 30 0
 323 0132 644B     		ldr	r3, .L81+4
 324 0134 03F11800 		add	r0, r3, #24
 325 0138 511C     		adds	r1, r2, #1
 326 013a 0B44     		add	r3, r3, r1
 327 013c 93F82C30 		ldrb	r3, [r3, #44]	@ zero_extendqisi2
 328 0140 8354     		strb	r3, [r0, r2]
  29:communication.h ****             buffer[index] = communication_receive_buffer[index + 1u];
 329              		.loc 3 29 0
 330 0142 CAB2     		uxtb	r2, r1
 331              	.LVL38:
ARM GAS  C:\Users\ISAKVO~1\AppData\Local\Temp\ccR1W42h.s 			page 34


 332 0144 00E0     		b	.L18
 333              	.LVL39:
 334              	.L72:
 335              	.LBE176:
  27:communication.h ****     {
 336              		.loc 3 27 0
 337 0146 0022     		movs	r2, #0
 338              	.L18:
 339              	.LVL40:
 340              	.LBB177:
  29:communication.h ****             buffer[index] = communication_receive_buffer[index + 1u];
 341              		.loc 3 29 0
 342 0148 012A     		cmp	r2, #1
 343 014a F2D9     		bls	.L19
 344              	.LBE177:
 345              		.loc 3 32 0
 346 014c 0022     		movs	r2, #0
 347              	.LVL41:
 348 014e 5D4B     		ldr	r3, .L81+4
 349 0150 DA62     		str	r2, [r3, #44]
 350              	.L17:
 351              	.LVL42:
 352              	.LBE172:
 353              	.LBE171:
 111:game.h        ****     }
 112:game.h        **** }
 113:game.h        **** 
 114:game.h        **** static inline void game_reset(void)
 115:game.h        **** {
 116:game.h        ****     type = UNKNOWN;
 117:game.h        ****     game_running = 1u;
 118:game.h        ****     
 119:game.h        ****     clear_board();
 120:game.h        ****     init_packets();
 121:game.h        ****     recieve_game_type();
 122:game.h        **** }
 123:game.h        ****     
 124:game.h        **** static inline void game_start(void)
 125:game.h        **** {
 126:game.h        ****     communication_start();
 127:game.h        ****     clear_board();
 128:game.h        ****     init_packets();
 129:game.h        ****     recieve_game_type();
 130:game.h        **** }
 131:game.h        **** 
 132:game.h        **** static inline void check_events(void)
 133:game.h        **** {
 134:game.h        ****     receive_message(game_packet, GAME_TYPE_PACKET_LENGTH);
 135:game.h        ****     
 136:game.h        ****     if (memcmp(game_packet, reset_packet, GAME_TYPE_PACKET_LENGTH) == 0)
 354              		.loc 4 136 0
 355 0152 5C48     		ldr	r0, .L81+4
 356 0154 0222     		movs	r2, #2
 357 0156 00F12801 		add	r1, r0, #40
 358 015a 1830     		adds	r0, r0, #24
 359 015c FFF7FEFF 		bl	memcmp
 360              	.LVL43:
ARM GAS  C:\Users\ISAKVO~1\AppData\Local\Temp\ccR1W42h.s 			page 35


 361 0160 0028     		cmp	r0, #0
 362 0162 40F08580 		bne	.L20
 363              	.LBB178:
 364              	.LBB179:
 116:game.h        ****     game_running = 1u;
 365              		.loc 4 116 0
 366 0166 0022     		movs	r2, #0
 367 0168 564B     		ldr	r3, .L81+4
 368 016a 83F83020 		strb	r2, [r3, #48]
 117:game.h        ****     
 369              		.loc 4 117 0
 370 016e 0121     		movs	r1, #1
 371 0170 564B     		ldr	r3, .L81+12
 372 0172 1970     		strb	r1, [r3]
 373              	.LVL44:
 374 0174 0DE0     		b	.L21
 375              	.LVL45:
 376              	.L22:
 377              	.LBB180:
 378              	.LBB181:
 379              	.LBB182:
  34:game.h        ****         }
 380              		.loc 4 34 0
 381 0176 02EB4201 		add	r1, r2, r2, lsl #1
 382 017a 1944     		add	r1, r1, r3
 383 017c FF24     		movs	r4, #255
 384 017e 5148     		ldr	r0, .L81+4
 385 0180 4454     		strb	r4, [r0, r1]
  32:game.h        ****         {
 386              		.loc 4 32 0
 387 0182 0133     		adds	r3, r3, #1
 388              	.LVL46:
 389 0184 DBB2     		uxtb	r3, r3
 390              	.LVL47:
 391 0186 00E0     		b	.L23
 392              	.LVL48:
 393              	.L73:
 394              	.LBE182:
  31:game.h        ****         for (u8 j = 0u; j < CELLS_NUMBER; j++)
 395              		.loc 4 31 0
 396 0188 0023     		movs	r3, #0
 397              	.L23:
 398              	.LVL49:
 399              	.LBB183:
  32:game.h        ****         {
 400              		.loc 4 32 0
 401 018a 022B     		cmp	r3, #2
 402 018c F3D9     		bls	.L22
 403              	.LBE183:
  31:game.h        ****         for (u8 j = 0u; j < CELLS_NUMBER; j++)
 404              		.loc 4 31 0
 405 018e 0132     		adds	r2, r2, #1
 406              	.LVL50:
 407 0190 D2B2     		uxtb	r2, r2
 408              	.LVL51:
 409              	.L21:
 410 0192 022A     		cmp	r2, #2
ARM GAS  C:\Users\ISAKVO~1\AppData\Local\Temp\ccR1W42h.s 			page 36


 411 0194 F8D9     		bls	.L73
 412 0196 0023     		movs	r3, #0
 413 0198 05E0     		b	.L24
 414              	.LVL52:
 415              	.L25:
 416              	.LBE181:
 417              	.LBE180:
 418              	.LBB184:
 419              	.LBB185:
  54:game.h        ****     }
 420              		.loc 4 54 0
 421 019a 4A4A     		ldr	r2, .L81+4
 422 019c 1A44     		add	r2, r2, r3
 423 019e 2221     		movs	r1, #34
 424 01a0 1173     		strb	r1, [r2, #12]
  51:game.h        ****     {
 425              		.loc 4 51 0
 426 01a2 0133     		adds	r3, r3, #1
 427              	.LVL53:
 428 01a4 DBB2     		uxtb	r3, r3
 429              	.LVL54:
 430              	.L24:
 431 01a6 082B     		cmp	r3, #8
 432 01a8 F7D9     		bls	.L25
 433 01aa 0022     		movs	r2, #0
 434 01ac 10E0     		b	.L26
 435              	.LVL55:
 436              	.L27:
 437              	.LBE185:
 438              	.LBB186:
  59:game.h        ****         man_vs_man_packet[index] = MAN_VS_MAN_PACKET_VALUE;
 439              		.loc 4 59 0
 440 01ae 454B     		ldr	r3, .L81+4
 441 01b0 1344     		add	r3, r3, r2
 442 01b2 AA21     		movs	r1, #170
 443 01b4 1976     		strb	r1, [r3, #24]
  60:game.h        ****         man_vs_ai_packet[index] = MAN_VS_AI_PACKET_VALUE;
 444              		.loc 4 60 0
 445 01b6 BB21     		movs	r1, #187
 446 01b8 1977     		strb	r1, [r3, #28]
  61:game.h        ****         ai_vs_ai_packet[index] = AI_VS_AI_PACKET_VALUE;
 447              		.loc 4 61 0
 448 01ba CC21     		movs	r1, #204
 449 01bc 83F82010 		strb	r1, [r3, #32]
  62:game.h        ****         reset_packet[index] = RESET_PACKET_VALUE;
 450              		.loc 4 62 0
 451 01c0 DD21     		movs	r1, #221
 452 01c2 83F82410 		strb	r1, [r3, #36]
  63:game.h        ****     }
 453              		.loc 4 63 0
 454 01c6 9921     		movs	r1, #153
 455 01c8 83F82810 		strb	r1, [r3, #40]
  57:game.h        ****     {
 456              		.loc 4 57 0
 457 01cc 0132     		adds	r2, r2, #1
 458              	.LVL56:
 459 01ce D2B2     		uxtb	r2, r2
ARM GAS  C:\Users\ISAKVO~1\AppData\Local\Temp\ccR1W42h.s 			page 37


 460              	.LVL57:
 461              	.L26:
 462 01d0 012A     		cmp	r2, #1
 463 01d2 ECD9     		bls	.L27
 464              	.LBE186:
 465              	.LBE184:
 466              	.LBB187:
 467              	.LBB188:
  83:game.h        ****     
 468              		.loc 4 83 0
 469 01d4 0024     		movs	r4, #0
 470 01d6 47E0     		b	.L28
 471              	.LVL58:
 472              	.L35:
 473              	.LBB189:
 474              	.LBB190:
 475              	.LBB191:
 476              	.LBB192:
 477              	.LBB193:
 478              		.loc 5 1254 0
 479 01d8 3A4D     		ldr	r5, .L81+4
 480 01da 0422     		movs	r2, #4
 481 01dc 05F12C01 		add	r1, r5, #44
 482 01e0 3948     		ldr	r0, .L81+8
 483 01e2 FFF7FEFF 		bl	Cy_SCB_ReadArrayBlocking
 484              	.LVL59:
 485              	.LBE193:
 486              	.LBE192:
 487              	.LBE191:
  26:communication.h ****         && (communication_receive_buffer[length + 1u] == PACKET_END_VALUE))
 488              		.loc 3 26 0
 489 01e6 95F82C30 		ldrb	r3, [r5, #44]	@ zero_extendqisi2
 490 01ea 3C2B     		cmp	r3, #60
 491 01ec 14D1     		bne	.L29
  27:communication.h ****     {
 492              		.loc 3 27 0
 493 01ee 95F82F30 		ldrb	r3, [r5, #47]	@ zero_extendqisi2
 494 01f2 3E2B     		cmp	r3, #62
 495 01f4 10D1     		bne	.L29
 496 01f6 09E0     		b	.L74
 497              	.LVL60:
 498              	.L31:
 499              	.LBB194:
  30:communication.h ****             
 500              		.loc 3 30 0
 501 01f8 324B     		ldr	r3, .L81+4
 502 01fa 03F11800 		add	r0, r3, #24
 503 01fe 511C     		adds	r1, r2, #1
 504 0200 0B44     		add	r3, r3, r1
 505 0202 93F82C30 		ldrb	r3, [r3, #44]	@ zero_extendqisi2
 506 0206 8354     		strb	r3, [r0, r2]
  29:communication.h ****             buffer[index] = communication_receive_buffer[index + 1u];
 507              		.loc 3 29 0
 508 0208 CAB2     		uxtb	r2, r1
 509              	.LVL61:
 510 020a 00E0     		b	.L30
 511              	.LVL62:
ARM GAS  C:\Users\ISAKVO~1\AppData\Local\Temp\ccR1W42h.s 			page 38


 512              	.L74:
 513              	.LBE194:
  27:communication.h ****     {
 514              		.loc 3 27 0
 515 020c 0022     		movs	r2, #0
 516              	.L30:
 517              	.LVL63:
 518              	.LBB195:
  29:communication.h ****             buffer[index] = communication_receive_buffer[index + 1u];
 519              		.loc 3 29 0
 520 020e 012A     		cmp	r2, #1
 521 0210 F2D9     		bls	.L31
 522              	.LBE195:
 523              		.loc 3 32 0
 524 0212 0022     		movs	r2, #0
 525              	.LVL64:
 526 0214 2B4B     		ldr	r3, .L81+4
 527 0216 DA62     		str	r2, [r3, #44]
 528              	.L29:
 529              	.LVL65:
 530              	.LBE190:
 531              	.LBE189:
  89:game.h        ****         {
 532              		.loc 4 89 0
 533 0218 2A48     		ldr	r0, .L81+4
 534 021a 0222     		movs	r2, #2
 535 021c 00F11C01 		add	r1, r0, #28
 536 0220 1830     		adds	r0, r0, #24
 537 0222 FFF7FEFF 		bl	memcmp
 538              	.LVL66:
 539 0226 20B9     		cbnz	r0, .L32
  91:game.h        ****             
 540              		.loc 4 91 0
 541 0228 0124     		movs	r4, #1
 542              	.LVL67:
 543 022a 264B     		ldr	r3, .L81+4
 544 022c 83F83040 		strb	r4, [r3, #48]
 545              	.LVL68:
 546 0230 1AE0     		b	.L28
 547              	.LVL69:
 548              	.L32:
  95:game.h        ****         {
 549              		.loc 4 95 0
 550 0232 2448     		ldr	r0, .L81+4
 551 0234 0222     		movs	r2, #2
 552 0236 00F12001 		add	r1, r0, #32
 553 023a 1830     		adds	r0, r0, #24
 554 023c FFF7FEFF 		bl	memcmp
 555              	.LVL70:
 556 0240 28B9     		cbnz	r0, .L34
  97:game.h        ****             
 557              		.loc 4 97 0
 558 0242 0222     		movs	r2, #2
 559 0244 1F4B     		ldr	r3, .L81+4
 560 0246 83F83020 		strb	r2, [r3, #48]
 561              	.LVL71:
 110:game.h        ****     }
ARM GAS  C:\Users\ISAKVO~1\AppData\Local\Temp\ccR1W42h.s 			page 39


 562              		.loc 4 110 0
 563 024a 0124     		movs	r4, #1
 564              	.LVL72:
 565 024c 0CE0     		b	.L28
 566              	.LVL73:
 567              	.L34:
 101:game.h        ****         {
 568              		.loc 4 101 0
 569 024e 1D48     		ldr	r0, .L81+4
 570 0250 0222     		movs	r2, #2
 571 0252 00F12401 		add	r1, r0, #36
 572 0256 1830     		adds	r0, r0, #24
 573 0258 FFF7FEFF 		bl	memcmp
 574              	.LVL74:
 575 025c 20B9     		cbnz	r0, .L28
 103:game.h        ****             
 576              		.loc 4 103 0
 577 025e 0322     		movs	r2, #3
 578 0260 184B     		ldr	r3, .L81+4
 579 0262 83F83020 		strb	r2, [r3, #48]
 580              	.LVL75:
 110:game.h        ****     }
 581              		.loc 4 110 0
 582 0266 0124     		movs	r4, #1
 583              	.LVL76:
 584              	.L28:
  85:game.h        ****     {
 585              		.loc 4 85 0
 586 0268 002C     		cmp	r4, #0
 587 026a B5D0     		beq	.L35
 588              	.LBE188:
 589              	.LBE187:
 590              	.LBE179:
 591              	.LBE178:
 592              	.LBE170:
 593              	.LBE169:
 594              	.LBB231:
 595              	.LBB232:
 137:game.h        ****     {
 138:game.h        ****         send_ack(game_packet);
 139:game.h        ****         game_reset();
 140:game.h        ****         
 141:game.h        ****         return;
 142:game.h        ****     }
 143:game.h        ****     if (!game_running)
 144:game.h        ****     {       
 145:game.h        ****         send_message(win_packet, CELLS_NUMBER * CELLS_NUMBER);
 146:game.h        ****         
 147:game.h        ****         CyDelay(50u);
 148:game.h        ****         
 149:game.h        ****         return;
 150:game.h        ****     }
 151:game.h        ****     
 152:game.h        ****     switch (type)
 153:game.h        ****     {
 154:game.h        ****         case MAN_VS_MAN:
 155:game.h        ****         {
ARM GAS  C:\Users\ISAKVO~1\AppData\Local\Temp\ccR1W42h.s 			page 40


 156:game.h        ****             if ((game_packet[0u] - 1u < CELLS_NUMBER) && (game_packet[1u] - 1u < CELLS_NUMBER))
 157:game.h        ****             {
 158:game.h        ****                 send_ack(game_packet);
 159:game.h        ****                 set_figure(game_packet[0u] - 1u, game_packet[1u] - 1u);
 160:game.h        ****                 send_message(figures, 9u);
 161:game.h        ****             }
 162:game.h        ****             
 163:game.h        ****             break;
 164:game.h        ****         }
 165:game.h        ****         case MAN_VS_AI:
 166:game.h        ****         {
 167:game.h        ****             if ((game_packet[0u] - 1u < CELLS_NUMBER) && (game_packet[1u] - 1u < CELLS_NUMBER) && m
 168:game.h        ****             {
 169:game.h        ****                 send_ack(game_packet);
 170:game.h        ****                 set_figure(game_packet[0u] - 1u, game_packet[1u] - 1u);
 171:game.h        ****                 
 172:game.h        ****                 man_turn = !man_turn;
 173:game.h        ****             }
 174:game.h        ****             else if (!man_turn)
 175:game.h        ****             {
 176:game.h        ****                 send_ack(game_packet);
 177:game.h        ****                 
 178:game.h        ****                 u8 x = rand() % 3;
 179:game.h        ****                 u8 y = rand() % 3;
 180:game.h        ****                 
 181:game.h        ****                 while (figures[x * CELLS_NUMBER + y] != EMPTY)
 182:game.h        ****                 {
 183:game.h        ****                     x = rand() % 3;
 184:game.h        ****                     y = rand() % 3;
 185:game.h        ****                 }
 186:game.h        ****                 
 187:game.h        ****                 set_figure(x, y);
 188:game.h        ****                 man_turn = !man_turn;
 189:game.h        ****                 
 190:game.h        ****                 CyDelay(50u);
 191:game.h        ****             }
 192:game.h        ****             
 193:game.h        ****             send_message(figures, 9u);
 194:game.h        ****             
 195:game.h        ****             break;
 196:game.h        ****         }
 197:game.h        ****         case AI_VS_AI:
 198:game.h        ****         {
 199:game.h        ****             send_ack(game_packet);
 200:game.h        ****             set_figure(rand() % 3, rand() % 3);
 201:game.h        ****             send_message(figures, 9u);
 202:game.h        **** 
 203:game.h        ****             CyDelay(50u);
 204:game.h        ****             
 205:game.h        ****         }
 206:game.h        ****         case UNKNOWN:
 207:game.h        ****         default:
 208:game.h        ****         {
 209:game.h        ****             send_ack(game_packet);
 210:game.h        ****             break;
 211:game.h        ****         }
 212:game.h        ****     }
ARM GAS  C:\Users\ISAKVO~1\AppData\Local\Temp\ccR1W42h.s 			page 41


 213:game.h        **** }
 214:game.h        **** 
 215:game.h        **** static inline void check_win(void)
 216:game.h        **** {
 217:game.h        ****     for (u8 index = 0u; index < CELLS_NUMBER * CELLS_NUMBER; index++)
 596              		.loc 4 217 0
 597 026c 0023     		movs	r3, #0
 598 026e 6CE1     		b	.L36
 599              	.LVL77:
 600              	.L20:
 601              	.LBE232:
 602              	.LBE231:
 603              	.LBB246:
 604              	.LBB229:
 143:game.h        ****     {       
 605              		.loc 4 143 0
 606 0270 164B     		ldr	r3, .L81+12
 607 0272 1B78     		ldrb	r3, [r3]	@ zero_extendqisi2
 608 0274 63BB     		cbnz	r3, .L37
 609              	.LVL78:
 610              	.LBB196:
 611              	.LBB197:
  33:communication.h ****     }
  34:communication.h **** }
  35:communication.h **** 
  36:communication.h **** static inline void send_message(u8 *buffer, u8 length)
  37:communication.h **** {
  38:communication.h ****     if ((length + 2u > SEND_BUFFER_LENGTH) || buffer == NULL) return;
  39:communication.h **** 
  40:communication.h ****     communication_send_buffer[0] = PACKET_START_VALUE;
 612              		.loc 3 40 0
 613 0276 134B     		ldr	r3, .L81+4
 614 0278 3C22     		movs	r2, #60
 615 027a 83F83420 		strb	r2, [r3, #52]
  41:communication.h ****     communication_send_buffer[length + 1u] = PACKET_END_VALUE;
 616              		.loc 3 41 0
 617 027e 3E22     		movs	r2, #62
 618 0280 83F83E20 		strb	r2, [r3, #62]
 619              	.LVL79:
 620              	.LBB198:
  42:communication.h ****     
  43:communication.h ****     for (u8 index = 1u; index < length + 1u; index++)
 621              		.loc 3 43 0
 622 0284 0123     		movs	r3, #1
 623 0286 07E0     		b	.L38
 624              	.LVL80:
 625              	.L39:
  44:communication.h ****         communication_send_buffer[index] = buffer[index - 1u];
 626              		.loc 3 44 0
 627 0288 0E4A     		ldr	r2, .L81+4
 628 028a D118     		adds	r1, r2, r3
 629 028c C97A     		ldrb	r1, [r1, #11]	@ zero_extendqisi2
 630 028e 1A44     		add	r2, r2, r3
 631 0290 82F83410 		strb	r1, [r2, #52]
  43:communication.h ****         communication_send_buffer[index] = buffer[index - 1u];
 632              		.loc 3 43 0
 633 0294 0133     		adds	r3, r3, #1
ARM GAS  C:\Users\ISAKVO~1\AppData\Local\Temp\ccR1W42h.s 			page 42


 634              	.LVL81:
 635 0296 DBB2     		uxtb	r3, r3
 636              	.LVL82:
 637              	.L38:
 638 0298 092B     		cmp	r3, #9
 639 029a F5D9     		bls	.L39
 640              	.LVL83:
 641              	.LBE198:
 642              	.LBB199:
 643              	.LBB200:
 644              	.LBB201:
1255:Generated_Source\PSoC6\pdl\drivers/peripheral/scb/cy_scb_uart.h **** }
1256:Generated_Source\PSoC6\pdl\drivers/peripheral/scb/cy_scb_uart.h **** 
1257:Generated_Source\PSoC6\pdl\drivers/peripheral/scb/cy_scb_uart.h **** 
1258:Generated_Source\PSoC6\pdl\drivers/peripheral/scb/cy_scb_uart.h **** /*******************************************************************************
1259:Generated_Source\PSoC6\pdl\drivers/peripheral/scb/cy_scb_uart.h **** * Function Name: Cy_SCB_UART_GetRxFifoStatus
1260:Generated_Source\PSoC6\pdl\drivers/peripheral/scb/cy_scb_uart.h **** ****************************************************************************//**
1261:Generated_Source\PSoC6\pdl\drivers/peripheral/scb/cy_scb_uart.h **** *
1262:Generated_Source\PSoC6\pdl\drivers/peripheral/scb/cy_scb_uart.h **** * Returns the current status of the RX FIFO.
1263:Generated_Source\PSoC6\pdl\drivers/peripheral/scb/cy_scb_uart.h **** *
1264:Generated_Source\PSoC6\pdl\drivers/peripheral/scb/cy_scb_uart.h **** * \param base
1265:Generated_Source\PSoC6\pdl\drivers/peripheral/scb/cy_scb_uart.h **** * The pointer to the UART SCB instance.
1266:Generated_Source\PSoC6\pdl\drivers/peripheral/scb/cy_scb_uart.h **** *
1267:Generated_Source\PSoC6\pdl\drivers/peripheral/scb/cy_scb_uart.h **** * \return
1268:Generated_Source\PSoC6\pdl\drivers/peripheral/scb/cy_scb_uart.h **** * \ref group_scb_uart_macros_rx_fifo_status
1269:Generated_Source\PSoC6\pdl\drivers/peripheral/scb/cy_scb_uart.h **** *
1270:Generated_Source\PSoC6\pdl\drivers/peripheral/scb/cy_scb_uart.h **** *******************************************************************************/
1271:Generated_Source\PSoC6\pdl\drivers/peripheral/scb/cy_scb_uart.h **** __STATIC_INLINE uint32_t Cy_SCB_UART_GetRxFifoStatus(CySCB_Type const *base)
1272:Generated_Source\PSoC6\pdl\drivers/peripheral/scb/cy_scb_uart.h **** {
1273:Generated_Source\PSoC6\pdl\drivers/peripheral/scb/cy_scb_uart.h ****     return (Cy_SCB_GetRxInterruptStatus(base) & CY_SCB_UART_RX_INTR_MASK);
1274:Generated_Source\PSoC6\pdl\drivers/peripheral/scb/cy_scb_uart.h **** }
1275:Generated_Source\PSoC6\pdl\drivers/peripheral/scb/cy_scb_uart.h **** 
1276:Generated_Source\PSoC6\pdl\drivers/peripheral/scb/cy_scb_uart.h **** 
1277:Generated_Source\PSoC6\pdl\drivers/peripheral/scb/cy_scb_uart.h **** /*******************************************************************************
1278:Generated_Source\PSoC6\pdl\drivers/peripheral/scb/cy_scb_uart.h **** * Function Name: Cy_SCB_UART_ClearRxFifoStatus
1279:Generated_Source\PSoC6\pdl\drivers/peripheral/scb/cy_scb_uart.h **** ****************************************************************************//**
1280:Generated_Source\PSoC6\pdl\drivers/peripheral/scb/cy_scb_uart.h **** *
1281:Generated_Source\PSoC6\pdl\drivers/peripheral/scb/cy_scb_uart.h **** * Clears the selected statuses of the RX FIFO.
1282:Generated_Source\PSoC6\pdl\drivers/peripheral/scb/cy_scb_uart.h **** *
1283:Generated_Source\PSoC6\pdl\drivers/peripheral/scb/cy_scb_uart.h **** * \param base
1284:Generated_Source\PSoC6\pdl\drivers/peripheral/scb/cy_scb_uart.h **** * The pointer to the UART SCB instance.
1285:Generated_Source\PSoC6\pdl\drivers/peripheral/scb/cy_scb_uart.h **** *
1286:Generated_Source\PSoC6\pdl\drivers/peripheral/scb/cy_scb_uart.h **** * \param clearMask
1287:Generated_Source\PSoC6\pdl\drivers/peripheral/scb/cy_scb_uart.h **** * The mask whose statuses to clear.
1288:Generated_Source\PSoC6\pdl\drivers/peripheral/scb/cy_scb_uart.h **** * See \ref group_scb_uart_macros_rx_fifo_status for the set of constants.
1289:Generated_Source\PSoC6\pdl\drivers/peripheral/scb/cy_scb_uart.h **** *
1290:Generated_Source\PSoC6\pdl\drivers/peripheral/scb/cy_scb_uart.h **** * \note
1291:Generated_Source\PSoC6\pdl\drivers/peripheral/scb/cy_scb_uart.h **** * * This status is also used for interrupt generation, so clearing it also
1292:Generated_Source\PSoC6\pdl\drivers/peripheral/scb/cy_scb_uart.h **** *   clears the interrupt sources.
1293:Generated_Source\PSoC6\pdl\drivers/peripheral/scb/cy_scb_uart.h **** * * Level-sensitive statuses such as \ref CY_SCB_UART_RX_TRIGGER,
1294:Generated_Source\PSoC6\pdl\drivers/peripheral/scb/cy_scb_uart.h **** *   \ref CY_SCB_UART_RX_NOT_EMPTY and \ref CY_SCB_UART_RX_FULL are set high again after
1295:Generated_Source\PSoC6\pdl\drivers/peripheral/scb/cy_scb_uart.h **** *   being cleared if the condition remains true.
1296:Generated_Source\PSoC6\pdl\drivers/peripheral/scb/cy_scb_uart.h **** *
1297:Generated_Source\PSoC6\pdl\drivers/peripheral/scb/cy_scb_uart.h **** *******************************************************************************/
1298:Generated_Source\PSoC6\pdl\drivers/peripheral/scb/cy_scb_uart.h **** __STATIC_INLINE void Cy_SCB_UART_ClearRxFifoStatus(CySCB_Type *base, uint32_t clearMask)
1299:Generated_Source\PSoC6\pdl\drivers/peripheral/scb/cy_scb_uart.h **** {
1300:Generated_Source\PSoC6\pdl\drivers/peripheral/scb/cy_scb_uart.h ****     CY_ASSERT_L2(CY_SCB_IS_INTR_VALID(clearMask, CY_SCB_UART_RX_INTR_MASK));
ARM GAS  C:\Users\ISAKVO~1\AppData\Local\Temp\ccR1W42h.s 			page 43


1301:Generated_Source\PSoC6\pdl\drivers/peripheral/scb/cy_scb_uart.h **** 
1302:Generated_Source\PSoC6\pdl\drivers/peripheral/scb/cy_scb_uart.h ****     Cy_SCB_ClearRxInterrupt(base, clearMask);
1303:Generated_Source\PSoC6\pdl\drivers/peripheral/scb/cy_scb_uart.h **** }
1304:Generated_Source\PSoC6\pdl\drivers/peripheral/scb/cy_scb_uart.h **** 
1305:Generated_Source\PSoC6\pdl\drivers/peripheral/scb/cy_scb_uart.h **** 
1306:Generated_Source\PSoC6\pdl\drivers/peripheral/scb/cy_scb_uart.h **** /*******************************************************************************
1307:Generated_Source\PSoC6\pdl\drivers/peripheral/scb/cy_scb_uart.h **** * Function Name: Cy_SCB_UART_GetNumInRxFifo
1308:Generated_Source\PSoC6\pdl\drivers/peripheral/scb/cy_scb_uart.h **** ****************************************************************************//**
1309:Generated_Source\PSoC6\pdl\drivers/peripheral/scb/cy_scb_uart.h **** *
1310:Generated_Source\PSoC6\pdl\drivers/peripheral/scb/cy_scb_uart.h **** * Returns the number of data elements in the UART RX FIFO.
1311:Generated_Source\PSoC6\pdl\drivers/peripheral/scb/cy_scb_uart.h **** *
1312:Generated_Source\PSoC6\pdl\drivers/peripheral/scb/cy_scb_uart.h **** * \param base
1313:Generated_Source\PSoC6\pdl\drivers/peripheral/scb/cy_scb_uart.h **** * The pointer to the UART SCB instance.
1314:Generated_Source\PSoC6\pdl\drivers/peripheral/scb/cy_scb_uart.h **** *
1315:Generated_Source\PSoC6\pdl\drivers/peripheral/scb/cy_scb_uart.h **** * \return
1316:Generated_Source\PSoC6\pdl\drivers/peripheral/scb/cy_scb_uart.h **** * The number of data elements in the RX FIFO.
1317:Generated_Source\PSoC6\pdl\drivers/peripheral/scb/cy_scb_uart.h **** * The size of date element defined by the configured data width.
1318:Generated_Source\PSoC6\pdl\drivers/peripheral/scb/cy_scb_uart.h **** *
1319:Generated_Source\PSoC6\pdl\drivers/peripheral/scb/cy_scb_uart.h **** *******************************************************************************/
1320:Generated_Source\PSoC6\pdl\drivers/peripheral/scb/cy_scb_uart.h **** __STATIC_INLINE uint32_t Cy_SCB_UART_GetNumInRxFifo(CySCB_Type const *base)
1321:Generated_Source\PSoC6\pdl\drivers/peripheral/scb/cy_scb_uart.h **** {
1322:Generated_Source\PSoC6\pdl\drivers/peripheral/scb/cy_scb_uart.h ****     return Cy_SCB_GetNumInRxFifo(base);
1323:Generated_Source\PSoC6\pdl\drivers/peripheral/scb/cy_scb_uart.h **** }
1324:Generated_Source\PSoC6\pdl\drivers/peripheral/scb/cy_scb_uart.h **** 
1325:Generated_Source\PSoC6\pdl\drivers/peripheral/scb/cy_scb_uart.h **** /*******************************************************************************
1326:Generated_Source\PSoC6\pdl\drivers/peripheral/scb/cy_scb_uart.h **** * Function Name: Cy_SCB_UART_ClearRxFifo
1327:Generated_Source\PSoC6\pdl\drivers/peripheral/scb/cy_scb_uart.h **** ****************************************************************************//**
1328:Generated_Source\PSoC6\pdl\drivers/peripheral/scb/cy_scb_uart.h **** *
1329:Generated_Source\PSoC6\pdl\drivers/peripheral/scb/cy_scb_uart.h **** * Clears all data out of the UART RX FIFO.
1330:Generated_Source\PSoC6\pdl\drivers/peripheral/scb/cy_scb_uart.h **** *
1331:Generated_Source\PSoC6\pdl\drivers/peripheral/scb/cy_scb_uart.h **** * \param base
1332:Generated_Source\PSoC6\pdl\drivers/peripheral/scb/cy_scb_uart.h **** * The pointer to the UART SCB instance.
1333:Generated_Source\PSoC6\pdl\drivers/peripheral/scb/cy_scb_uart.h **** *
1334:Generated_Source\PSoC6\pdl\drivers/peripheral/scb/cy_scb_uart.h **** * \sideeffect
1335:Generated_Source\PSoC6\pdl\drivers/peripheral/scb/cy_scb_uart.h **** * Any data currently in the shifter is cleared and lost.
1336:Generated_Source\PSoC6\pdl\drivers/peripheral/scb/cy_scb_uart.h **** *
1337:Generated_Source\PSoC6\pdl\drivers/peripheral/scb/cy_scb_uart.h **** *******************************************************************************/
1338:Generated_Source\PSoC6\pdl\drivers/peripheral/scb/cy_scb_uart.h **** __STATIC_INLINE void Cy_SCB_UART_ClearRxFifo(CySCB_Type *base)
1339:Generated_Source\PSoC6\pdl\drivers/peripheral/scb/cy_scb_uart.h **** {
1340:Generated_Source\PSoC6\pdl\drivers/peripheral/scb/cy_scb_uart.h ****     Cy_SCB_ClearRxFifo(base);
1341:Generated_Source\PSoC6\pdl\drivers/peripheral/scb/cy_scb_uart.h **** }
1342:Generated_Source\PSoC6\pdl\drivers/peripheral/scb/cy_scb_uart.h **** 
1343:Generated_Source\PSoC6\pdl\drivers/peripheral/scb/cy_scb_uart.h **** 
1344:Generated_Source\PSoC6\pdl\drivers/peripheral/scb/cy_scb_uart.h **** /*******************************************************************************
1345:Generated_Source\PSoC6\pdl\drivers/peripheral/scb/cy_scb_uart.h **** * Function Name: Cy_SCB_UART_Put
1346:Generated_Source\PSoC6\pdl\drivers/peripheral/scb/cy_scb_uart.h **** ****************************************************************************//**
1347:Generated_Source\PSoC6\pdl\drivers/peripheral/scb/cy_scb_uart.h **** *
1348:Generated_Source\PSoC6\pdl\drivers/peripheral/scb/cy_scb_uart.h **** * Places a single data element in the UART TX FIFO.
1349:Generated_Source\PSoC6\pdl\drivers/peripheral/scb/cy_scb_uart.h **** * This function does not block and returns how many data elements were placed
1350:Generated_Source\PSoC6\pdl\drivers/peripheral/scb/cy_scb_uart.h **** * in the TX FIFO.
1351:Generated_Source\PSoC6\pdl\drivers/peripheral/scb/cy_scb_uart.h **** *
1352:Generated_Source\PSoC6\pdl\drivers/peripheral/scb/cy_scb_uart.h **** * \param base
1353:Generated_Source\PSoC6\pdl\drivers/peripheral/scb/cy_scb_uart.h **** * The pointer to the UART SCB instance.
1354:Generated_Source\PSoC6\pdl\drivers/peripheral/scb/cy_scb_uart.h **** *
1355:Generated_Source\PSoC6\pdl\drivers/peripheral/scb/cy_scb_uart.h **** * \param data
1356:Generated_Source\PSoC6\pdl\drivers/peripheral/scb/cy_scb_uart.h **** * Data to put in the TX FIFO.
1357:Generated_Source\PSoC6\pdl\drivers/peripheral/scb/cy_scb_uart.h **** * The element size is defined by the data type, which depends on the configured
ARM GAS  C:\Users\ISAKVO~1\AppData\Local\Temp\ccR1W42h.s 			page 44


1358:Generated_Source\PSoC6\pdl\drivers/peripheral/scb/cy_scb_uart.h **** * data width.
1359:Generated_Source\PSoC6\pdl\drivers/peripheral/scb/cy_scb_uart.h **** *
1360:Generated_Source\PSoC6\pdl\drivers/peripheral/scb/cy_scb_uart.h **** * \return
1361:Generated_Source\PSoC6\pdl\drivers/peripheral/scb/cy_scb_uart.h **** * The number of data elements placed in the TX FIFO: 0 or 1.
1362:Generated_Source\PSoC6\pdl\drivers/peripheral/scb/cy_scb_uart.h **** *
1363:Generated_Source\PSoC6\pdl\drivers/peripheral/scb/cy_scb_uart.h **** *******************************************************************************/
1364:Generated_Source\PSoC6\pdl\drivers/peripheral/scb/cy_scb_uart.h **** __STATIC_INLINE uint32_t Cy_SCB_UART_Put(CySCB_Type *base, uint32_t data)
1365:Generated_Source\PSoC6\pdl\drivers/peripheral/scb/cy_scb_uart.h **** {
1366:Generated_Source\PSoC6\pdl\drivers/peripheral/scb/cy_scb_uart.h ****     return Cy_SCB_Write(base, data);
1367:Generated_Source\PSoC6\pdl\drivers/peripheral/scb/cy_scb_uart.h **** }
1368:Generated_Source\PSoC6\pdl\drivers/peripheral/scb/cy_scb_uart.h **** 
1369:Generated_Source\PSoC6\pdl\drivers/peripheral/scb/cy_scb_uart.h **** 
1370:Generated_Source\PSoC6\pdl\drivers/peripheral/scb/cy_scb_uart.h **** /*******************************************************************************
1371:Generated_Source\PSoC6\pdl\drivers/peripheral/scb/cy_scb_uart.h **** * Function Name: Cy_SCB_UART_PutArray
1372:Generated_Source\PSoC6\pdl\drivers/peripheral/scb/cy_scb_uart.h **** ****************************************************************************//**
1373:Generated_Source\PSoC6\pdl\drivers/peripheral/scb/cy_scb_uart.h **** *
1374:Generated_Source\PSoC6\pdl\drivers/peripheral/scb/cy_scb_uart.h **** * Places an array of data in the UART TX FIFO.
1375:Generated_Source\PSoC6\pdl\drivers/peripheral/scb/cy_scb_uart.h **** * This function does not block. It returns how many data elements were
1376:Generated_Source\PSoC6\pdl\drivers/peripheral/scb/cy_scb_uart.h **** * placed in the TX FIFO.
1377:Generated_Source\PSoC6\pdl\drivers/peripheral/scb/cy_scb_uart.h **** *
1378:Generated_Source\PSoC6\pdl\drivers/peripheral/scb/cy_scb_uart.h **** * \param base
1379:Generated_Source\PSoC6\pdl\drivers/peripheral/scb/cy_scb_uart.h **** * The pointer to the UART SCB instance.
1380:Generated_Source\PSoC6\pdl\drivers/peripheral/scb/cy_scb_uart.h **** *
1381:Generated_Source\PSoC6\pdl\drivers/peripheral/scb/cy_scb_uart.h **** * \param buffer
1382:Generated_Source\PSoC6\pdl\drivers/peripheral/scb/cy_scb_uart.h **** * The pointer to data to place in the TX FIFO.
1383:Generated_Source\PSoC6\pdl\drivers/peripheral/scb/cy_scb_uart.h **** * The element size is defined by the data type, which depends on the configured
1384:Generated_Source\PSoC6\pdl\drivers/peripheral/scb/cy_scb_uart.h **** * TX data width.
1385:Generated_Source\PSoC6\pdl\drivers/peripheral/scb/cy_scb_uart.h **** *
1386:Generated_Source\PSoC6\pdl\drivers/peripheral/scb/cy_scb_uart.h **** * \param size
1387:Generated_Source\PSoC6\pdl\drivers/peripheral/scb/cy_scb_uart.h **** * The number of data elements to TX.
1388:Generated_Source\PSoC6\pdl\drivers/peripheral/scb/cy_scb_uart.h **** *
1389:Generated_Source\PSoC6\pdl\drivers/peripheral/scb/cy_scb_uart.h **** * \return
1390:Generated_Source\PSoC6\pdl\drivers/peripheral/scb/cy_scb_uart.h **** * The number of data elements placed in the TX FIFO.
1391:Generated_Source\PSoC6\pdl\drivers/peripheral/scb/cy_scb_uart.h **** *
1392:Generated_Source\PSoC6\pdl\drivers/peripheral/scb/cy_scb_uart.h **** *******************************************************************************/
1393:Generated_Source\PSoC6\pdl\drivers/peripheral/scb/cy_scb_uart.h **** __STATIC_INLINE uint32_t Cy_SCB_UART_PutArray(CySCB_Type *base, void *buffer, uint32_t size)
1394:Generated_Source\PSoC6\pdl\drivers/peripheral/scb/cy_scb_uart.h **** {
1395:Generated_Source\PSoC6\pdl\drivers/peripheral/scb/cy_scb_uart.h ****     CY_ASSERT_L1(CY_SCB_IS_BUFFER_VALID(buffer, size));
1396:Generated_Source\PSoC6\pdl\drivers/peripheral/scb/cy_scb_uart.h **** 
1397:Generated_Source\PSoC6\pdl\drivers/peripheral/scb/cy_scb_uart.h ****     return Cy_SCB_WriteArray(base, buffer, size);
1398:Generated_Source\PSoC6\pdl\drivers/peripheral/scb/cy_scb_uart.h **** }
1399:Generated_Source\PSoC6\pdl\drivers/peripheral/scb/cy_scb_uart.h **** 
1400:Generated_Source\PSoC6\pdl\drivers/peripheral/scb/cy_scb_uart.h **** 
1401:Generated_Source\PSoC6\pdl\drivers/peripheral/scb/cy_scb_uart.h **** /*******************************************************************************
1402:Generated_Source\PSoC6\pdl\drivers/peripheral/scb/cy_scb_uart.h **** * Function Name: Cy_SCB_UART_PutArrayBlocking
1403:Generated_Source\PSoC6\pdl\drivers/peripheral/scb/cy_scb_uart.h **** ****************************************************************************//**
1404:Generated_Source\PSoC6\pdl\drivers/peripheral/scb/cy_scb_uart.h **** *
1405:Generated_Source\PSoC6\pdl\drivers/peripheral/scb/cy_scb_uart.h **** * Places an array of data in the UART TX FIFO.
1406:Generated_Source\PSoC6\pdl\drivers/peripheral/scb/cy_scb_uart.h **** * This function blocks until the number of data elements specified by the size
1407:Generated_Source\PSoC6\pdl\drivers/peripheral/scb/cy_scb_uart.h **** * is placed in the TX FIFO.
1408:Generated_Source\PSoC6\pdl\drivers/peripheral/scb/cy_scb_uart.h **** *
1409:Generated_Source\PSoC6\pdl\drivers/peripheral/scb/cy_scb_uart.h **** * \param base
1410:Generated_Source\PSoC6\pdl\drivers/peripheral/scb/cy_scb_uart.h **** * The pointer to the UART SCB instance.
1411:Generated_Source\PSoC6\pdl\drivers/peripheral/scb/cy_scb_uart.h **** *
1412:Generated_Source\PSoC6\pdl\drivers/peripheral/scb/cy_scb_uart.h **** * \param buffer
1413:Generated_Source\PSoC6\pdl\drivers/peripheral/scb/cy_scb_uart.h **** * The pointer to data to place in the TX FIFO.
1414:Generated_Source\PSoC6\pdl\drivers/peripheral/scb/cy_scb_uart.h **** * The element size is defined by the data type, which depends on the configured
ARM GAS  C:\Users\ISAKVO~1\AppData\Local\Temp\ccR1W42h.s 			page 45


1415:Generated_Source\PSoC6\pdl\drivers/peripheral/scb/cy_scb_uart.h **** * data width.
1416:Generated_Source\PSoC6\pdl\drivers/peripheral/scb/cy_scb_uart.h **** *
1417:Generated_Source\PSoC6\pdl\drivers/peripheral/scb/cy_scb_uart.h **** * \param size
1418:Generated_Source\PSoC6\pdl\drivers/peripheral/scb/cy_scb_uart.h **** * The number of data elements to write into the TX FIFO.
1419:Generated_Source\PSoC6\pdl\drivers/peripheral/scb/cy_scb_uart.h **** *
1420:Generated_Source\PSoC6\pdl\drivers/peripheral/scb/cy_scb_uart.h **** *******************************************************************************/
1421:Generated_Source\PSoC6\pdl\drivers/peripheral/scb/cy_scb_uart.h **** __STATIC_INLINE void Cy_SCB_UART_PutArrayBlocking(CySCB_Type *base, void *buffer, uint32_t size)
1422:Generated_Source\PSoC6\pdl\drivers/peripheral/scb/cy_scb_uart.h **** {
1423:Generated_Source\PSoC6\pdl\drivers/peripheral/scb/cy_scb_uart.h ****     CY_ASSERT_L1(CY_SCB_IS_BUFFER_VALID(buffer, size));
1424:Generated_Source\PSoC6\pdl\drivers/peripheral/scb/cy_scb_uart.h **** 
1425:Generated_Source\PSoC6\pdl\drivers/peripheral/scb/cy_scb_uart.h ****     Cy_SCB_WriteArrayBlocking(base, buffer, size);
 645              		.loc 5 1425 0
 646 029c 094E     		ldr	r6, .L81+4
 647 029e 06F13405 		add	r5, r6, #52
 648 02a2 0B22     		movs	r2, #11
 649 02a4 2946     		mov	r1, r5
 650 02a6 0848     		ldr	r0, .L81+8
 651 02a8 FFF7FEFF 		bl	Cy_SCB_WriteArrayBlocking
 652              	.LVL84:
 653              	.LBE201:
 654              	.LBE200:
 655              	.LBE199:
  45:communication.h ****         
  46:communication.h ****     UART_PutArrayBlocking(communication_send_buffer, SEND_BUFFER_LENGTH);
  47:communication.h ****     
  48:communication.h ****     memset(communication_send_buffer, 0u, SEND_BUFFER_LENGTH);
 656              		.loc 3 48 0
 657 02ac 0024     		movs	r4, #0
 658 02ae 7463     		str	r4, [r6, #52]
 659 02b0 B463     		str	r4, [r6, #56]
 660 02b2 C6F83B40 		str	r4, [r6, #59]	@ unaligned
 661              	.LVL85:
 662              	.LBE197:
 663              	.LBE196:
 147:game.h        ****         
 664              		.loc 4 147 0
 665 02b6 3220     		movs	r0, #50
 666 02b8 FFF7FEFF 		bl	Cy_SysLib_Delay
 667              	.LVL86:
 668              	.LBE229:
 669              	.LBE246:
 670              	.LBB247:
 671              	.LBB233:
 672              		.loc 4 217 0
 673 02bc 2346     		mov	r3, r4
 674 02be 44E1     		b	.L36
 675              	.L82:
 676              		.align	2
 677              	.L81:
 678 02c0 00000000 		.word	_impure_ptr
 679 02c4 00000000 		.word	.LANCHOR0
 680 02c8 00006640 		.word	1080426496
 681 02cc 00000000 		.word	.LANCHOR1
 682              	.L37:
 683              	.LBE233:
 684              	.LBE247:
 685              	.LBB248:
ARM GAS  C:\Users\ISAKVO~1\AppData\Local\Temp\ccR1W42h.s 			page 46


 686              	.LBB230:
 152:game.h        ****     {
 687              		.loc 4 152 0
 688 02d0 B84B     		ldr	r3, .L83
 689 02d2 93F83030 		ldrb	r3, [r3, #48]	@ zero_extendqisi2
 690 02d6 022B     		cmp	r3, #2
 691 02d8 46D0     		beq	.L40
 692 02da 032B     		cmp	r3, #3
 693 02dc 00F0D680 		beq	.L41
 694 02e0 012B     		cmp	r3, #1
 695 02e2 40F02D81 		bne	.L79
 156:game.h        ****             {
 696              		.loc 4 156 0
 697 02e6 B34B     		ldr	r3, .L83
 698 02e8 1B7E     		ldrb	r3, [r3, #24]	@ zero_extendqisi2
 699 02ea 5A1E     		subs	r2, r3, #1
 700 02ec 022A     		cmp	r2, #2
 701 02ee 00F22981 		bhi	.L76
 702 02f2 B04A     		ldr	r2, .L83
 703 02f4 527E     		ldrb	r2, [r2, #25]	@ zero_extendqisi2
 704 02f6 511E     		subs	r1, r2, #1
 705 02f8 0229     		cmp	r1, #2
 706 02fa 00F22581 		bhi	.L77
 159:game.h        ****                 send_message(figures, 9u);
 707              		.loc 4 159 0
 708 02fe 013B     		subs	r3, r3, #1
 709 0300 DBB2     		uxtb	r3, r3
 710              	.LVL87:
 711              	.LBB202:
 712              	.LBB203:
  42:game.h        ****     {
 713              		.loc 4 42 0
 714 0302 03EB4303 		add	r3, r3, r3, lsl #1
 715              	.LVL88:
 716 0306 53FA81F3 		uxtab	r3, r3, r1
 717 030a AA4A     		ldr	r2, .L83
 718 030c D25C     		ldrb	r2, [r2, r3]	@ zero_extendqisi2
 719 030e FF2A     		cmp	r2, #255
 720 0310 08D1     		bne	.L43
  44:game.h        ****         figure_index = !figure_index;
 721              		.loc 4 44 0
 722 0312 A849     		ldr	r1, .L83
 723              	.LVL89:
 724 0314 91F83F20 		ldrb	r2, [r1, #63]	@ zero_extendqisi2
 725 0318 CA54     		strb	r2, [r1, r3]
  45:game.h        ****     }
 726              		.loc 4 45 0
 727 031a B2FA82F3 		clz	r3, r2
 728 031e 5B09     		lsrs	r3, r3, #5
 729 0320 81F83F30 		strb	r3, [r1, #63]
 730              	.L43:
 731              	.LVL90:
 732              	.LBE203:
 733              	.LBE202:
 734              	.LBB204:
 735              	.LBB205:
  40:communication.h ****     communication_send_buffer[length + 1u] = PACKET_END_VALUE;
ARM GAS  C:\Users\ISAKVO~1\AppData\Local\Temp\ccR1W42h.s 			page 47


 736              		.loc 3 40 0
 737 0324 A34B     		ldr	r3, .L83
 738 0326 3C22     		movs	r2, #60
 739 0328 83F83420 		strb	r2, [r3, #52]
  41:communication.h ****     
 740              		.loc 3 41 0
 741 032c 3E22     		movs	r2, #62
 742 032e 83F83E20 		strb	r2, [r3, #62]
 743              	.LVL91:
 744              	.LBB206:
  43:communication.h ****         communication_send_buffer[index] = buffer[index - 1u];
 745              		.loc 3 43 0
 746 0332 0123     		movs	r3, #1
 747 0334 08E0     		b	.L44
 748              	.LVL92:
 749              	.L45:
  44:communication.h ****         
 750              		.loc 3 44 0
 751 0336 9F4A     		ldr	r2, .L83
 752 0338 D118     		adds	r1, r2, r3
 753 033a 11F8011C 		ldrb	r1, [r1, #-1]	@ zero_extendqisi2
 754 033e 1A44     		add	r2, r2, r3
 755 0340 82F83410 		strb	r1, [r2, #52]
  43:communication.h ****         communication_send_buffer[index] = buffer[index - 1u];
 756              		.loc 3 43 0
 757 0344 0133     		adds	r3, r3, #1
 758              	.LVL93:
 759 0346 DBB2     		uxtb	r3, r3
 760              	.LVL94:
 761              	.L44:
 762 0348 092B     		cmp	r3, #9
 763 034a F4D9     		bls	.L45
 764              	.LVL95:
 765              	.LBE206:
 766              	.LBB207:
 767              	.LBB208:
 768              	.LBB209:
 769              		.loc 5 1425 0
 770 034c 994D     		ldr	r5, .L83
 771 034e 05F13404 		add	r4, r5, #52
 772 0352 0B22     		movs	r2, #11
 773 0354 2146     		mov	r1, r4
 774 0356 9848     		ldr	r0, .L83+4
 775 0358 FFF7FEFF 		bl	Cy_SCB_WriteArrayBlocking
 776              	.LVL96:
 777              	.LBE209:
 778              	.LBE208:
 779              	.LBE207:
 780              		.loc 3 48 0
 781 035c 0023     		movs	r3, #0
 782 035e 6B63     		str	r3, [r5, #52]
 783 0360 AB63     		str	r3, [r5, #56]
 784 0362 C5F83B30 		str	r3, [r5, #59]	@ unaligned
 785 0366 F0E0     		b	.L36
 786              	.LVL97:
 787              	.L40:
 788              	.LBE205:
ARM GAS  C:\Users\ISAKVO~1\AppData\Local\Temp\ccR1W42h.s 			page 48


 789              	.LBE204:
 167:game.h        ****             {
 790              		.loc 4 167 0
 791 0368 924B     		ldr	r3, .L83
 792 036a 1B7E     		ldrb	r3, [r3, #24]	@ zero_extendqisi2
 793 036c 5A1E     		subs	r2, r3, #1
 794 036e 022A     		cmp	r2, #2
 795 0370 21D8     		bhi	.L46
 796 0372 904A     		ldr	r2, .L83
 797 0374 527E     		ldrb	r2, [r2, #25]	@ zero_extendqisi2
 798 0376 511E     		subs	r1, r2, #1
 799 0378 0229     		cmp	r1, #2
 800 037a 1CD8     		bhi	.L46
 801 037c 8F49     		ldr	r1, .L83+8
 802 037e 4978     		ldrb	r1, [r1, #1]	@ zero_extendqisi2
 803 0380 C9B1     		cbz	r1, .L46
 170:game.h        ****                 
 804              		.loc 4 170 0
 805 0382 013B     		subs	r3, r3, #1
 806 0384 DBB2     		uxtb	r3, r3
 807 0386 013A     		subs	r2, r2, #1
 808              	.LVL98:
 809              	.LBB210:
 810              	.LBB211:
  42:game.h        ****     {
 811              		.loc 4 42 0
 812 0388 03EB4303 		add	r3, r3, r3, lsl #1
 813              	.LVL99:
 814 038c 53FA82F3 		uxtab	r3, r3, r2
 815 0390 884A     		ldr	r2, .L83
 816              	.LVL100:
 817 0392 D25C     		ldrb	r2, [r2, r3]	@ zero_extendqisi2
 818 0394 FF2A     		cmp	r2, #255
 819 0396 08D1     		bne	.L47
  44:game.h        ****         figure_index = !figure_index;
 820              		.loc 4 44 0
 821 0398 8648     		ldr	r0, .L83
 822 039a 90F83F20 		ldrb	r2, [r0, #63]	@ zero_extendqisi2
 823 039e C254     		strb	r2, [r0, r3]
  45:game.h        ****     }
 824              		.loc 4 45 0
 825 03a0 B2FA82F3 		clz	r3, r2
 826 03a4 5B09     		lsrs	r3, r3, #5
 827 03a6 80F83F30 		strb	r3, [r0, #63]
 828              	.L47:
 829              	.LVL101:
 830              	.LBE211:
 831              	.LBE210:
 172:game.h        ****             }
 832              		.loc 4 172 0
 833 03aa B1FA81F3 		clz	r3, r1
 834 03ae 5B09     		lsrs	r3, r3, #5
 835 03b0 824A     		ldr	r2, .L83+8
 836 03b2 5370     		strb	r3, [r2, #1]
 837 03b4 48E0     		b	.L48
 838              	.L46:
 174:game.h        ****             {
ARM GAS  C:\Users\ISAKVO~1\AppData\Local\Temp\ccR1W42h.s 			page 49


 839              		.loc 4 174 0
 840 03b6 814B     		ldr	r3, .L83+8
 841 03b8 5B78     		ldrb	r3, [r3, #1]	@ zero_extendqisi2
 842 03ba 002B     		cmp	r3, #0
 843 03bc 44D1     		bne	.L48
 844              	.LBB212:
 178:game.h        ****                 u8 y = rand() % 3;
 845              		.loc 4 178 0
 846 03be FFF7FEFF 		bl	rand
 847              	.LVL102:
 848 03c2 7F4D     		ldr	r5, .L83+12
 849 03c4 85FB0034 		smull	r3, r4, r5, r0
 850 03c8 A4EBE074 		sub	r4, r4, r0, asr #31
 851 03cc 04EB4404 		add	r4, r4, r4, lsl #1
 852 03d0 041B     		subs	r4, r0, r4
 853 03d2 E4B2     		uxtb	r4, r4
 854              	.LVL103:
 179:game.h        ****                 
 855              		.loc 4 179 0
 856 03d4 FFF7FEFF 		bl	rand
 857              	.LVL104:
 858 03d8 85FB0023 		smull	r2, r3, r5, r0
 859 03dc A3EBE073 		sub	r3, r3, r0, asr #31
 860 03e0 03EB4303 		add	r3, r3, r3, lsl #1
 861 03e4 C31A     		subs	r3, r0, r3
 862 03e6 DBB2     		uxtb	r3, r3
 863              	.LVL105:
 864 03e8 14E0     		b	.L49
 865              	.LVL106:
 866              	.L50:
 183:game.h        ****                     y = rand() % 3;
 867              		.loc 4 183 0
 868 03ea FFF7FEFF 		bl	rand
 869              	.LVL107:
 870 03ee 744D     		ldr	r5, .L83+12
 871 03f0 85FB0034 		smull	r3, r4, r5, r0
 872 03f4 A4EBE074 		sub	r4, r4, r0, asr #31
 873 03f8 04EB4404 		add	r4, r4, r4, lsl #1
 874 03fc 041B     		subs	r4, r0, r4
 875              	.LVL108:
 876 03fe E4B2     		uxtb	r4, r4
 184:game.h        ****                 }
 877              		.loc 4 184 0
 878 0400 FFF7FEFF 		bl	rand
 879              	.LVL109:
 880 0404 85FB0023 		smull	r2, r3, r5, r0
 881 0408 A3EBE073 		sub	r3, r3, r0, asr #31
 882 040c 03EB4303 		add	r3, r3, r3, lsl #1
 883 0410 C31A     		subs	r3, r0, r3
 884              	.LVL110:
 885 0412 DBB2     		uxtb	r3, r3
 886              	.LVL111:
 887              	.L49:
 181:game.h        ****                 {
 888              		.loc 4 181 0
 889 0414 04EB4404 		add	r4, r4, r4, lsl #1
 890              	.LVL112:
ARM GAS  C:\Users\ISAKVO~1\AppData\Local\Temp\ccR1W42h.s 			page 50


 891 0418 2344     		add	r3, r3, r4
 892              	.LVL113:
 893 041a 664A     		ldr	r2, .L83
 894 041c D25C     		ldrb	r2, [r2, r3]	@ zero_extendqisi2
 895 041e FF2A     		cmp	r2, #255
 896 0420 E3D1     		bne	.L50
 897              	.LVL114:
 898              	.LBB213:
 899              	.LBB214:
  42:game.h        ****     {
 900              		.loc 4 42 0
 901 0422 08D1     		bne	.L51
  44:game.h        ****         figure_index = !figure_index;
 902              		.loc 4 44 0
 903 0424 6349     		ldr	r1, .L83
 904 0426 91F83F20 		ldrb	r2, [r1, #63]	@ zero_extendqisi2
 905 042a CA54     		strb	r2, [r1, r3]
  45:game.h        ****     }
 906              		.loc 4 45 0
 907 042c B2FA82F3 		clz	r3, r2
 908 0430 5B09     		lsrs	r3, r3, #5
 909 0432 81F83F30 		strb	r3, [r1, #63]
 910              	.L51:
 911              	.LBE214:
 912              	.LBE213:
 188:game.h        ****                 
 913              		.loc 4 188 0
 914 0436 614A     		ldr	r2, .L83+8
 915 0438 5378     		ldrb	r3, [r2, #1]	@ zero_extendqisi2
 916 043a B3FA83F3 		clz	r3, r3
 917 043e 5B09     		lsrs	r3, r3, #5
 918 0440 5370     		strb	r3, [r2, #1]
 190:game.h        ****             }
 919              		.loc 4 190 0
 920 0442 3220     		movs	r0, #50
 921 0444 FFF7FEFF 		bl	Cy_SysLib_Delay
 922              	.LVL115:
 923              	.L48:
 924              	.LBE212:
 925              	.LBB215:
 926              	.LBB216:
  40:communication.h ****     communication_send_buffer[length + 1u] = PACKET_END_VALUE;
 927              		.loc 3 40 0
 928 0448 5A4B     		ldr	r3, .L83
 929 044a 3C22     		movs	r2, #60
 930 044c 83F83420 		strb	r2, [r3, #52]
  41:communication.h ****     
 931              		.loc 3 41 0
 932 0450 3E22     		movs	r2, #62
 933 0452 83F83E20 		strb	r2, [r3, #62]
 934              	.LVL116:
 935              	.LBB217:
  43:communication.h ****         communication_send_buffer[index] = buffer[index - 1u];
 936              		.loc 3 43 0
 937 0456 0123     		movs	r3, #1
 938 0458 08E0     		b	.L52
 939              	.LVL117:
ARM GAS  C:\Users\ISAKVO~1\AppData\Local\Temp\ccR1W42h.s 			page 51


 940              	.L53:
  44:communication.h ****         
 941              		.loc 3 44 0
 942 045a 564A     		ldr	r2, .L83
 943 045c D118     		adds	r1, r2, r3
 944 045e 11F8011C 		ldrb	r1, [r1, #-1]	@ zero_extendqisi2
 945 0462 1A44     		add	r2, r2, r3
 946 0464 82F83410 		strb	r1, [r2, #52]
  43:communication.h ****         communication_send_buffer[index] = buffer[index - 1u];
 947              		.loc 3 43 0
 948 0468 0133     		adds	r3, r3, #1
 949              	.LVL118:
 950 046a DBB2     		uxtb	r3, r3
 951              	.LVL119:
 952              	.L52:
 953 046c 092B     		cmp	r3, #9
 954 046e F4D9     		bls	.L53
 955              	.LVL120:
 956              	.LBE217:
 957              	.LBB218:
 958              	.LBB219:
 959              	.LBB220:
 960              		.loc 5 1425 0
 961 0470 504D     		ldr	r5, .L83
 962 0472 05F13404 		add	r4, r5, #52
 963 0476 0B22     		movs	r2, #11
 964 0478 2146     		mov	r1, r4
 965 047a 4F48     		ldr	r0, .L83+4
 966 047c FFF7FEFF 		bl	Cy_SCB_WriteArrayBlocking
 967              	.LVL121:
 968              	.LBE220:
 969              	.LBE219:
 970              	.LBE218:
 971              		.loc 3 48 0
 972 0480 0023     		movs	r3, #0
 973 0482 6B63     		str	r3, [r5, #52]
 974 0484 AB63     		str	r3, [r5, #56]
 975 0486 C5F83B30 		str	r3, [r5, #59]	@ unaligned
 976 048a 5EE0     		b	.L36
 977              	.LVL122:
 978              	.L41:
 979              	.LBE216:
 980              	.LBE215:
 200:game.h        ****             send_message(figures, 9u);
 981              		.loc 4 200 0
 982 048c FFF7FEFF 		bl	rand
 983              	.LVL123:
 984 0490 4B4C     		ldr	r4, .L83+12
 985 0492 84FB0035 		smull	r3, r5, r4, r0
 986 0496 A5EBE075 		sub	r5, r5, r0, asr #31
 987 049a 05EB4505 		add	r5, r5, r5, lsl #1
 988 049e 451B     		subs	r5, r0, r5
 989 04a0 FFF7FEFF 		bl	rand
 990              	.LVL124:
 991 04a4 84FB0023 		smull	r2, r3, r4, r0
 992 04a8 A3EBE073 		sub	r3, r3, r0, asr #31
 993 04ac 03EB4303 		add	r3, r3, r3, lsl #1
ARM GAS  C:\Users\ISAKVO~1\AppData\Local\Temp\ccR1W42h.s 			page 52


 994 04b0 C31A     		subs	r3, r0, r3
 995              	.LVL125:
 996              	.LBB221:
 997              	.LBB222:
  42:game.h        ****     {
 998              		.loc 4 42 0
 999 04b2 EDB2     		uxtb	r5, r5
 1000 04b4 05EB4505 		add	r5, r5, r5, lsl #1
 1001              	.LVL126:
 1002 04b8 55FA83F3 		uxtab	r3, r5, r3
 1003              	.LVL127:
 1004 04bc 3D4A     		ldr	r2, .L83
 1005 04be D25C     		ldrb	r2, [r2, r3]	@ zero_extendqisi2
 1006 04c0 FF2A     		cmp	r2, #255
 1007 04c2 08D1     		bne	.L54
  44:game.h        ****         figure_index = !figure_index;
 1008              		.loc 4 44 0
 1009 04c4 3B49     		ldr	r1, .L83
 1010 04c6 91F83F20 		ldrb	r2, [r1, #63]	@ zero_extendqisi2
 1011 04ca CA54     		strb	r2, [r1, r3]
  45:game.h        ****     }
 1012              		.loc 4 45 0
 1013 04cc B2FA82F3 		clz	r3, r2
 1014 04d0 5B09     		lsrs	r3, r3, #5
 1015 04d2 81F83F30 		strb	r3, [r1, #63]
 1016              	.L54:
 1017              	.LVL128:
 1018              	.LBE222:
 1019              	.LBE221:
 1020              	.LBB223:
 1021              	.LBB224:
  40:communication.h ****     communication_send_buffer[length + 1u] = PACKET_END_VALUE;
 1022              		.loc 3 40 0
 1023 04d6 374B     		ldr	r3, .L83
 1024 04d8 3C22     		movs	r2, #60
 1025 04da 83F83420 		strb	r2, [r3, #52]
  41:communication.h ****     
 1026              		.loc 3 41 0
 1027 04de 3E22     		movs	r2, #62
 1028 04e0 83F83E20 		strb	r2, [r3, #62]
 1029              	.LVL129:
 1030              	.LBB225:
  43:communication.h ****         communication_send_buffer[index] = buffer[index - 1u];
 1031              		.loc 3 43 0
 1032 04e4 0123     		movs	r3, #1
 1033 04e6 08E0     		b	.L55
 1034              	.LVL130:
 1035              	.L56:
  44:communication.h ****         
 1036              		.loc 3 44 0
 1037 04e8 324A     		ldr	r2, .L83
 1038 04ea D118     		adds	r1, r2, r3
 1039 04ec 11F8011C 		ldrb	r1, [r1, #-1]	@ zero_extendqisi2
 1040 04f0 1A44     		add	r2, r2, r3
 1041 04f2 82F83410 		strb	r1, [r2, #52]
  43:communication.h ****         communication_send_buffer[index] = buffer[index - 1u];
 1042              		.loc 3 43 0
ARM GAS  C:\Users\ISAKVO~1\AppData\Local\Temp\ccR1W42h.s 			page 53


 1043 04f6 0133     		adds	r3, r3, #1
 1044              	.LVL131:
 1045 04f8 DBB2     		uxtb	r3, r3
 1046              	.LVL132:
 1047              	.L55:
 1048 04fa 092B     		cmp	r3, #9
 1049 04fc F4D9     		bls	.L56
 1050              	.LVL133:
 1051              	.LBE225:
 1052              	.LBB226:
 1053              	.LBB227:
 1054              	.LBB228:
 1055              		.loc 5 1425 0
 1056 04fe 2D4E     		ldr	r6, .L83
 1057 0500 06F13405 		add	r5, r6, #52
 1058 0504 0B22     		movs	r2, #11
 1059 0506 2946     		mov	r1, r5
 1060 0508 2B48     		ldr	r0, .L83+4
 1061 050a FFF7FEFF 		bl	Cy_SCB_WriteArrayBlocking
 1062              	.LVL134:
 1063              	.LBE228:
 1064              	.LBE227:
 1065              	.LBE226:
 1066              		.loc 3 48 0
 1067 050e 0024     		movs	r4, #0
 1068 0510 7463     		str	r4, [r6, #52]
 1069 0512 B463     		str	r4, [r6, #56]
 1070 0514 C6F83B40 		str	r4, [r6, #59]	@ unaligned
 1071              	.LVL135:
 1072              	.LBE224:
 1073              	.LBE223:
 203:game.h        ****             
 1074              		.loc 4 203 0
 1075 0518 3220     		movs	r0, #50
 1076 051a FFF7FEFF 		bl	Cy_SysLib_Delay
 1077              	.LVL136:
 1078              	.LBE230:
 1079              	.LBE248:
 1080              	.LBB249:
 1081              	.LBB234:
 1082              		.loc 4 217 0
 1083 051e 2346     		mov	r3, r4
 1084 0520 13E0     		b	.L36
 1085              	.LVL137:
 1086              	.L59:
 218:game.h        ****     {
 219:game.h        ****         if (figures[index] == EMPTY)
 1087              		.loc 4 219 0
 1088 0522 244A     		ldr	r2, .L83
 1089 0524 D25C     		ldrb	r2, [r2, r3]	@ zero_extendqisi2
 1090 0526 FF2A     		cmp	r2, #255
 1091 0528 04D1     		bne	.L57
 220:game.h        ****         {
 221:game.h        ****             game_running = 1u;
 1092              		.loc 4 221 0
 1093 052a 0122     		movs	r2, #1
 1094 052c 234B     		ldr	r3, .L83+8
ARM GAS  C:\Users\ISAKVO~1\AppData\Local\Temp\ccR1W42h.s 			page 54


 1095              	.LVL138:
 1096 052e 1A70     		strb	r2, [r3]
 1097              	.L60:
 1098              	.LBE234:
 1099              	.LBB235:
 1100              	.LBB236:
 1101              	.LBB237:
 222:game.h        ****             
 223:game.h        ****             break;
 224:game.h        ****         }
 225:game.h        ****         else
 226:game.h        ****         {
 227:game.h        ****             game_running = 0u;
 228:game.h        ****         }
 229:game.h        ****     }
 230:game.h        ****     
 231:game.h        ****     for (u8 i = 0u; i < 8u; i++)
 232:game.h        ****     {
 233:game.h        ****         u32 accumulator = 0u;
 234:game.h        ****         
 235:game.h        ****         for (u8 j = 0u; j < CELLS_NUMBER * CELLS_NUMBER; j++)
 236:game.h        ****             accumulator += figures[j] & win_masks[i][j];
 237:game.h        ****             
 238:game.h        ****         if (accumulator == 0u)
 239:game.h        ****         {
 240:game.h        ****             game_running = 0u;
 241:game.h        ****             
 242:game.h        ****             for (u8 index = 0u; index < CELLS_NUMBER * CELLS_NUMBER; index++)
 243:game.h        ****                 win_packet[index] = WIN_CROSS_PACKET_VALUE;
 244:game.h        ****         }
 245:game.h        ****         else if (accumulator == 3u)
 246:game.h        ****         {
 247:game.h        ****             game_running = 0u;
 248:game.h        ****             
 249:game.h        ****             for (u8 index = 0u; index < CELLS_NUMBER * CELLS_NUMBER; index++)
 1102              		.loc 4 249 0
 1103 0530 0020     		movs	r0, #0
 1104 0532 3BE0     		b	.L58
 1105              	.LVL139:
 1106              	.L57:
 1107              	.LBE237:
 1108              	.LBE236:
 1109              	.LBE235:
 1110              	.LBB244:
 227:game.h        ****         }
 1111              		.loc 4 227 0
 1112 0534 0021     		movs	r1, #0
 1113 0536 214A     		ldr	r2, .L83+8
 1114 0538 1170     		strb	r1, [r2]
 217:game.h        ****     {
 1115              		.loc 4 217 0
 1116 053a 0133     		adds	r3, r3, #1
 1117              	.LVL140:
 1118 053c DBB2     		uxtb	r3, r3
 1119              	.LVL141:
 1120 053e 04E0     		b	.L36
 1121              	.LVL142:
ARM GAS  C:\Users\ISAKVO~1\AppData\Local\Temp\ccR1W42h.s 			page 55


 1122              	.L79:
 1123 0540 0023     		movs	r3, #0
 1124 0542 02E0     		b	.L36
 1125              	.L76:
 1126 0544 0023     		movs	r3, #0
 1127 0546 00E0     		b	.L36
 1128              	.L77:
 1129 0548 0023     		movs	r3, #0
 1130              	.L36:
 1131              	.LVL143:
 1132 054a 082B     		cmp	r3, #8
 1133 054c E9D9     		bls	.L59
 1134 054e EFE7     		b	.L60
 1135              	.LVL144:
 1136              	.L61:
 1137              	.LBE244:
 1138              	.LBB245:
 1139              	.LBB242:
 1140              	.LBB238:
 236:game.h        ****             
 1141              		.loc 4 236 0
 1142 0550 184A     		ldr	r2, .L83
 1143 0552 D55C     		ldrb	r5, [r2, r3]	@ zero_extendqisi2
 1144 0554 00EBC001 		add	r1, r0, r0, lsl #3
 1145 0558 1A4A     		ldr	r2, .L83+16
 1146 055a 1144     		add	r1, r1, r2
 1147 055c CA5C     		ldrb	r2, [r1, r3]	@ zero_extendqisi2
 1148 055e 2A40     		ands	r2, r2, r5
 1149 0560 1444     		add	r4, r4, r2
 1150              	.LVL145:
 235:game.h        ****             accumulator += figures[j] & win_masks[i][j];
 1151              		.loc 4 235 0
 1152 0562 0133     		adds	r3, r3, #1
 1153              	.LVL146:
 1154 0564 DBB2     		uxtb	r3, r3
 1155              	.LVL147:
 1156 0566 01E0     		b	.L68
 1157              	.LVL148:
 1158              	.L78:
 1159              	.LBE238:
 1160              	.LBE242:
 231:game.h        ****     {
 1161              		.loc 4 231 0
 1162 0568 0023     		movs	r3, #0
 1163 056a 1C46     		mov	r4, r3
 1164              	.L68:
 1165              	.LVL149:
 1166              	.LBB243:
 1167              	.LBB239:
 235:game.h        ****             accumulator += figures[j] & win_masks[i][j];
 1168              		.loc 4 235 0
 1169 056c 082B     		cmp	r3, #8
 1170 056e EFD9     		bls	.L61
 1171              	.LBE239:
 238:game.h        ****         {
 1172              		.loc 4 238 0
 1173 0570 64B9     		cbnz	r4, .L62
ARM GAS  C:\Users\ISAKVO~1\AppData\Local\Temp\ccR1W42h.s 			page 56


 240:game.h        ****             
 1174              		.loc 4 240 0
 1175 0572 0023     		movs	r3, #0
 1176              	.LVL150:
 1177 0574 114A     		ldr	r2, .L83+8
 1178 0576 1370     		strb	r3, [r2]
 1179              	.LVL151:
 1180 0578 05E0     		b	.L63
 1181              	.LVL152:
 1182              	.L64:
 1183              	.LBB240:
 243:game.h        ****         }
 1184              		.loc 4 243 0
 1185 057a 0E4A     		ldr	r2, .L83
 1186 057c 1A44     		add	r2, r2, r3
 1187 057e 8821     		movs	r1, #136
 1188 0580 1173     		strb	r1, [r2, #12]
 242:game.h        ****                 win_packet[index] = WIN_CROSS_PACKET_VALUE;
 1189              		.loc 4 242 0
 1190 0582 0133     		adds	r3, r3, #1
 1191              	.LVL153:
 1192 0584 DBB2     		uxtb	r3, r3
 1193              	.LVL154:
 1194              	.L63:
 1195 0586 082B     		cmp	r3, #8
 1196 0588 F7D9     		bls	.L64
 1197 058a 0DE0     		b	.L65
 1198              	.LVL155:
 1199              	.L62:
 1200              	.LBE240:
 245:game.h        ****         {
 1201              		.loc 4 245 0
 1202 058c 032C     		cmp	r4, #3
 1203 058e 0BD1     		bne	.L65
 247:game.h        ****             
 1204              		.loc 4 247 0
 1205 0590 0023     		movs	r3, #0
 1206              	.LVL156:
 1207 0592 0A4A     		ldr	r2, .L83+8
 1208 0594 1370     		strb	r3, [r2]
 1209              	.LVL157:
 1210 0596 05E0     		b	.L66
 1211              	.LVL158:
 1212              	.L67:
 1213              	.LBB241:
 250:game.h        ****                 win_packet[index] = WIN_NOD_PACKET_VALUE;
 1214              		.loc 4 250 0
 1215 0598 064A     		ldr	r2, .L83
 1216 059a 1A44     		add	r2, r2, r3
 1217 059c 7721     		movs	r1, #119
 1218 059e 1173     		strb	r1, [r2, #12]
 249:game.h        ****                 win_packet[index] = WIN_NOD_PACKET_VALUE;
 1219              		.loc 4 249 0
 1220 05a0 0133     		adds	r3, r3, #1
 1221              	.LVL159:
 1222 05a2 DBB2     		uxtb	r3, r3
 1223              	.LVL160:
ARM GAS  C:\Users\ISAKVO~1\AppData\Local\Temp\ccR1W42h.s 			page 57


 1224              	.L66:
 1225 05a4 082B     		cmp	r3, #8
 1226 05a6 F7D9     		bls	.L67
 1227              	.LVL161:
 1228              	.L65:
 1229              	.LBE241:
 1230              	.LBE243:
 231:game.h        ****     {
 1231              		.loc 4 231 0
 1232 05a8 0130     		adds	r0, r0, #1
 1233              	.LVL162:
 1234 05aa C0B2     		uxtb	r0, r0
 1235              	.LVL163:
 1236              	.L58:
 1237 05ac 0728     		cmp	r0, #7
 1238 05ae DBD9     		bls	.L78
 1239 05b0 AFE5     		b	.L69
 1240              	.L84:
 1241 05b2 00BF     		.align	2
 1242              	.L83:
 1243 05b4 00000000 		.word	.LANCHOR0
 1244 05b8 00006640 		.word	1080426496
 1245 05bc 00000000 		.word	.LANCHOR1
 1246 05c0 56555555 		.word	1431655766
 1247 05c4 00000000 		.word	.LANCHOR2
 1248              	.LBE245:
 1249              	.LBE249:
 1250              	.LBE168:
 1251              		.cfi_endproc
 1252              	.LFE494:
 1253              		.size	main, .-main
 1254              		.global	win_masks
 1255              		.section	.rodata
 1256              		.align	2
 1257              		.set	.LANCHOR2,. + 0
 1258              		.type	win_masks, %object
 1259              		.size	win_masks, 72
 1260              	win_masks:
 1261 0000 FF       		.byte	-1
 1262 0001 FF       		.byte	-1
 1263 0002 FF       		.byte	-1
 1264 0003 00       		.byte	0
 1265 0004 00       		.byte	0
 1266 0005 00       		.byte	0
 1267 0006 00       		.byte	0
 1268 0007 00       		.byte	0
 1269 0008 00       		.byte	0
 1270 0009 00       		.byte	0
 1271 000a 00       		.byte	0
 1272 000b 00       		.byte	0
 1273 000c FF       		.byte	-1
 1274 000d FF       		.byte	-1
 1275 000e FF       		.byte	-1
 1276 000f 00       		.byte	0
 1277 0010 00       		.byte	0
 1278 0011 00       		.byte	0
 1279 0012 00       		.byte	0
ARM GAS  C:\Users\ISAKVO~1\AppData\Local\Temp\ccR1W42h.s 			page 58


 1280 0013 00       		.byte	0
 1281 0014 00       		.byte	0
 1282 0015 00       		.byte	0
 1283 0016 00       		.byte	0
 1284 0017 00       		.byte	0
 1285 0018 FF       		.byte	-1
 1286 0019 FF       		.byte	-1
 1287 001a FF       		.byte	-1
 1288 001b FF       		.byte	-1
 1289 001c 00       		.byte	0
 1290 001d 00       		.byte	0
 1291 001e FF       		.byte	-1
 1292 001f 00       		.byte	0
 1293 0020 00       		.byte	0
 1294 0021 FF       		.byte	-1
 1295 0022 00       		.byte	0
 1296 0023 00       		.byte	0
 1297 0024 00       		.byte	0
 1298 0025 FF       		.byte	-1
 1299 0026 00       		.byte	0
 1300 0027 00       		.byte	0
 1301 0028 FF       		.byte	-1
 1302 0029 00       		.byte	0
 1303 002a 00       		.byte	0
 1304 002b FF       		.byte	-1
 1305 002c 00       		.byte	0
 1306 002d 00       		.byte	0
 1307 002e 00       		.byte	0
 1308 002f FF       		.byte	-1
 1309 0030 00       		.byte	0
 1310 0031 00       		.byte	0
 1311 0032 FF       		.byte	-1
 1312 0033 00       		.byte	0
 1313 0034 00       		.byte	0
 1314 0035 FF       		.byte	-1
 1315 0036 FF       		.byte	-1
 1316 0037 00       		.byte	0
 1317 0038 00       		.byte	0
 1318 0039 00       		.byte	0
 1319 003a FF       		.byte	-1
 1320 003b 00       		.byte	0
 1321 003c 00       		.byte	0
 1322 003d 00       		.byte	0
 1323 003e FF       		.byte	-1
 1324 003f 00       		.byte	0
 1325 0040 00       		.byte	0
 1326 0041 FF       		.byte	-1
 1327 0042 00       		.byte	0
 1328 0043 FF       		.byte	-1
 1329 0044 00       		.byte	0
 1330 0045 FF       		.byte	-1
 1331 0046 00       		.byte	0
 1332 0047 00       		.byte	0
 1333              		.data
 1334              		.set	.LANCHOR1,. + 0
 1335              		.type	game_running, %object
 1336              		.size	game_running, 1
ARM GAS  C:\Users\ISAKVO~1\AppData\Local\Temp\ccR1W42h.s 			page 59


 1337              	game_running:
 1338 0000 01       		.byte	1
 1339              		.type	man_turn, %object
 1340              		.size	man_turn, 1
 1341              	man_turn:
 1342 0001 01       		.byte	1
 1343              		.bss
 1344              		.align	2
 1345              		.set	.LANCHOR0,. + 0
 1346              		.type	figures, %object
 1347              		.size	figures, 9
 1348              	figures:
 1349 0000 00000000 		.space	9
 1349      00000000 
 1349      00
 1350 0009 000000   		.space	3
 1351              		.type	win_packet, %object
 1352              		.size	win_packet, 9
 1353              	win_packet:
 1354 000c 00000000 		.space	9
 1354      00000000 
 1354      00
 1355 0015 000000   		.space	3
 1356              		.type	game_packet, %object
 1357              		.size	game_packet, 2
 1358              	game_packet:
 1359 0018 0000     		.space	2
 1360 001a 0000     		.space	2
 1361              		.type	man_vs_man_packet, %object
 1362              		.size	man_vs_man_packet, 2
 1363              	man_vs_man_packet:
 1364 001c 0000     		.space	2
 1365 001e 0000     		.space	2
 1366              		.type	man_vs_ai_packet, %object
 1367              		.size	man_vs_ai_packet, 2
 1368              	man_vs_ai_packet:
 1369 0020 0000     		.space	2
 1370 0022 0000     		.space	2
 1371              		.type	ai_vs_ai_packet, %object
 1372              		.size	ai_vs_ai_packet, 2
 1373              	ai_vs_ai_packet:
 1374 0024 0000     		.space	2
 1375 0026 0000     		.space	2
 1376              		.type	reset_packet, %object
 1377              		.size	reset_packet, 2
 1378              	reset_packet:
 1379 0028 0000     		.space	2
 1380 002a 0000     		.space	2
 1381              		.type	communication_receive_buffer, %object
 1382              		.size	communication_receive_buffer, 4
 1383              	communication_receive_buffer:
 1384 002c 00000000 		.space	4
 1385              		.type	type, %object
 1386              		.size	type, 1
 1387              	type:
 1388 0030 00       		.space	1
 1389 0031 000000   		.space	3
ARM GAS  C:\Users\ISAKVO~1\AppData\Local\Temp\ccR1W42h.s 			page 60


 1390              		.type	communication_send_buffer, %object
 1391              		.size	communication_send_buffer, 11
 1392              	communication_send_buffer:
 1393 0034 00000000 		.space	11
 1393      00000000 
 1393      000000
 1394              		.type	figure_index.15747, %object
 1395              		.size	figure_index.15747, 1
 1396              	figure_index.15747:
 1397 003f 00       		.space	1
 1398              		.text
 1399              	.Letext0:
 1400              		.file 6 "c:\\cypress\\psoc creator\\4.4\\psoc creator\\import\\gnu\\arm\\5.4.1\\arm-none-eabi\\inc
 1401              		.file 7 "c:\\cypress\\psoc creator\\4.4\\psoc creator\\import\\gnu\\arm\\5.4.1\\arm-none-eabi\\inc
 1402              		.file 8 "Generated_Source\\PSoC6\\pdl\\devices/psoc6/include/ip/cyip_scb.h"
 1403              		.file 9 "Generated_Source\\PSoC6\\pdl\\devices/psoc6/include/psoc6_01_config.h"
 1404              		.file 10 "Generated_Source\\PSoC6\\pdl\\drivers/peripheral/device/cy_device.h"
 1405              		.file 11 "Generated_Source\\PSoC6\\pdl\\drivers/peripheral/syslib/cy_syslib.h"
 1406              		.file 12 "c:\\cypress\\psoc creator\\4.4\\psoc creator\\import\\gnu\\arm\\5.4.1\\arm-none-eabi\\in
 1407              		.file 13 "c:\\cypress\\psoc creator\\4.4\\psoc creator\\import\\gnu\\arm\\5.4.1\\arm-none-eabi\\in
 1408              		.file 14 "c:\\cypress\\psoc creator\\4.4\\psoc creator\\import\\gnu\\arm\\5.4.1\\lib\\gcc\\arm-non
 1409              		.file 15 "c:\\cypress\\psoc creator\\4.4\\psoc creator\\import\\gnu\\arm\\5.4.1\\arm-none-eabi\\in
 1410              		.file 16 "types.h"
 1411              		.file 17 "Generated_Source\\PSoC6/UART.h"
 1412              		.file 18 "Generated_Source\\PSoC6\\pdl\\cmsis/include/core_cm4.h"
 1413              		.file 19 "constants.h"
 1414              		.file 20 "c:\\cypress\\psoc creator\\4.4\\psoc creator\\import\\gnu\\arm\\5.4.1\\arm-none-eabi\\in
 1415              		.file 21 "Generated_Source\\PSoC6\\pdl\\drivers/peripheral/scb/cy_scb_common.h"
 1416              		.file 22 "c:\\cypress\\psoc creator\\4.4\\psoc creator\\import\\gnu\\arm\\5.4.1\\arm-none-eabi\\in
 1417              		.file 23 "c:\\cypress\\psoc creator\\4.4\\psoc creator\\import\\gnu\\arm\\5.4.1\\arm-none-eabi\\in
 1418              		.section	.debug_info,"",%progbits
 1419              	.Ldebug_info0:
 1420 0000 C6200000 		.4byte	0x20c6
 1421 0004 0400     		.2byte	0x4
 1422 0006 00000000 		.4byte	.Ldebug_abbrev0
 1423 000a 04       		.byte	0x4
 1424 000b 01       		.uleb128 0x1
 1425 000c F2010000 		.4byte	.LASF366
 1426 0010 0C       		.byte	0xc
 1427 0011 73000000 		.4byte	.LASF367
 1428 0015 1D000000 		.4byte	.LASF368
 1429 0019 48010000 		.4byte	.Ldebug_ranges0+0x148
 1430 001d 00000000 		.4byte	0
 1431 0021 00000000 		.4byte	.Ldebug_line0
 1432 0025 02       		.uleb128 0x2
 1433 0026 08       		.byte	0x8
 1434 0027 07       		.byte	0x7
 1435 0028 DF040000 		.4byte	.LASF0
 1436 002c 03       		.uleb128 0x3
 1437 002d 04       		.byte	0x4
 1438 002e 05       		.byte	0x5
 1439 002f 696E7400 		.ascii	"int\000"
 1440 0033 02       		.uleb128 0x2
 1441 0034 04       		.byte	0x4
 1442 0035 07       		.byte	0x7
 1443 0036 6C010000 		.4byte	.LASF1
 1444 003a 02       		.uleb128 0x2
ARM GAS  C:\Users\ISAKVO~1\AppData\Local\Temp\ccR1W42h.s 			page 61


 1445 003b 02       		.byte	0x2
 1446 003c 05       		.byte	0x5
 1447 003d E7020000 		.4byte	.LASF2
 1448 0041 02       		.uleb128 0x2
 1449 0042 01       		.byte	0x1
 1450 0043 06       		.byte	0x6
 1451 0044 69100000 		.4byte	.LASF3
 1452 0048 04       		.uleb128 0x4
 1453 0049 080D0000 		.4byte	.LASF5
 1454 004d 06       		.byte	0x6
 1455 004e 1D       		.byte	0x1d
 1456 004f 53000000 		.4byte	0x53
 1457 0053 02       		.uleb128 0x2
 1458 0054 01       		.byte	0x1
 1459 0055 08       		.byte	0x8
 1460 0056 D00E0000 		.4byte	.LASF4
 1461 005a 04       		.uleb128 0x4
 1462 005b 3F090000 		.4byte	.LASF6
 1463 005f 06       		.byte	0x6
 1464 0060 29       		.byte	0x29
 1465 0061 3A000000 		.4byte	0x3a
 1466 0065 04       		.uleb128 0x4
 1467 0066 D0050000 		.4byte	.LASF7
 1468 006a 06       		.byte	0x6
 1469 006b 2B       		.byte	0x2b
 1470 006c 70000000 		.4byte	0x70
 1471 0070 02       		.uleb128 0x2
 1472 0071 02       		.byte	0x2
 1473 0072 07       		.byte	0x7
 1474 0073 A90A0000 		.4byte	.LASF8
 1475 0077 04       		.uleb128 0x4
 1476 0078 E8010000 		.4byte	.LASF9
 1477 007c 06       		.byte	0x6
 1478 007d 3F       		.byte	0x3f
 1479 007e 82000000 		.4byte	0x82
 1480 0082 02       		.uleb128 0x2
 1481 0083 04       		.byte	0x4
 1482 0084 05       		.byte	0x5
 1483 0085 100C0000 		.4byte	.LASF10
 1484 0089 04       		.uleb128 0x4
 1485 008a DE0E0000 		.4byte	.LASF11
 1486 008e 06       		.byte	0x6
 1487 008f 41       		.byte	0x41
 1488 0090 94000000 		.4byte	0x94
 1489 0094 02       		.uleb128 0x2
 1490 0095 04       		.byte	0x4
 1491 0096 07       		.byte	0x7
 1492 0097 0F0E0000 		.4byte	.LASF12
 1493 009b 02       		.uleb128 0x2
 1494 009c 08       		.byte	0x8
 1495 009d 05       		.byte	0x5
 1496 009e C4080000 		.4byte	.LASF13
 1497 00a2 04       		.uleb128 0x4
 1498 00a3 35080000 		.4byte	.LASF14
 1499 00a7 07       		.byte	0x7
 1500 00a8 18       		.byte	0x18
 1501 00a9 48000000 		.4byte	0x48
ARM GAS  C:\Users\ISAKVO~1\AppData\Local\Temp\ccR1W42h.s 			page 62


 1502 00ad 04       		.uleb128 0x4
 1503 00ae 44050000 		.4byte	.LASF15
 1504 00b2 07       		.byte	0x7
 1505 00b3 20       		.byte	0x20
 1506 00b4 5A000000 		.4byte	0x5a
 1507 00b8 04       		.uleb128 0x4
 1508 00b9 D20A0000 		.4byte	.LASF16
 1509 00bd 07       		.byte	0x7
 1510 00be 24       		.byte	0x24
 1511 00bf 65000000 		.4byte	0x65
 1512 00c3 04       		.uleb128 0x4
 1513 00c4 5B0E0000 		.4byte	.LASF17
 1514 00c8 07       		.byte	0x7
 1515 00c9 2C       		.byte	0x2c
 1516 00ca 77000000 		.4byte	0x77
 1517 00ce 04       		.uleb128 0x4
 1518 00cf 87040000 		.4byte	.LASF18
 1519 00d3 07       		.byte	0x7
 1520 00d4 30       		.byte	0x30
 1521 00d5 89000000 		.4byte	0x89
 1522 00d9 02       		.uleb128 0x2
 1523 00da 04       		.byte	0x4
 1524 00db 07       		.byte	0x7
 1525 00dc 610B0000 		.4byte	.LASF19
 1526 00e0 05       		.uleb128 0x5
 1527 00e1 CE000000 		.4byte	0xce
 1528 00e5 06       		.uleb128 0x6
 1529 00e6 E0000000 		.4byte	0xe0
 1530 00ea 07       		.uleb128 0x7
 1531 00eb E5000000 		.4byte	0xe5
 1532 00ef FA000000 		.4byte	0xfa
 1533 00f3 08       		.uleb128 0x8
 1534 00f4 D9000000 		.4byte	0xd9
 1535 00f8 03       		.byte	0x3
 1536 00f9 00       		.byte	0
 1537 00fa 07       		.uleb128 0x7
 1538 00fb E5000000 		.4byte	0xe5
 1539 00ff 0A010000 		.4byte	0x10a
 1540 0103 08       		.uleb128 0x8
 1541 0104 D9000000 		.4byte	0xd9
 1542 0108 05       		.byte	0x5
 1543 0109 00       		.byte	0
 1544 010a 07       		.uleb128 0x7
 1545 010b E5000000 		.4byte	0xe5
 1546 010f 1A010000 		.4byte	0x11a
 1547 0113 08       		.uleb128 0x8
 1548 0114 D9000000 		.4byte	0xd9
 1549 0118 7F       		.byte	0x7f
 1550 0119 00       		.byte	0
 1551 011a 07       		.uleb128 0x7
 1552 011b E5000000 		.4byte	0xe5
 1553 011f 2A010000 		.4byte	0x12a
 1554 0123 08       		.uleb128 0x8
 1555 0124 D9000000 		.4byte	0xd9
 1556 0128 0C       		.byte	0xc
 1557 0129 00       		.byte	0
 1558 012a 07       		.uleb128 0x7
ARM GAS  C:\Users\ISAKVO~1\AppData\Local\Temp\ccR1W42h.s 			page 63


 1559 012b E5000000 		.4byte	0xe5
 1560 012f 3A010000 		.4byte	0x13a
 1561 0133 08       		.uleb128 0x8
 1562 0134 D9000000 		.4byte	0xd9
 1563 0138 1E       		.byte	0x1e
 1564 0139 00       		.byte	0
 1565 013a 07       		.uleb128 0x7
 1566 013b E5000000 		.4byte	0xe5
 1567 013f 4A010000 		.4byte	0x14a
 1568 0143 08       		.uleb128 0x8
 1569 0144 D9000000 		.4byte	0xd9
 1570 0148 02       		.byte	0x2
 1571 0149 00       		.byte	0
 1572 014a 07       		.uleb128 0x7
 1573 014b E5000000 		.4byte	0xe5
 1574 014f 5A010000 		.4byte	0x15a
 1575 0153 08       		.uleb128 0x8
 1576 0154 D9000000 		.4byte	0xd9
 1577 0158 0B       		.byte	0xb
 1578 0159 00       		.byte	0
 1579 015a 07       		.uleb128 0x7
 1580 015b E5000000 		.4byte	0xe5
 1581 015f 6A010000 		.4byte	0x16a
 1582 0163 08       		.uleb128 0x8
 1583 0164 D9000000 		.4byte	0xd9
 1584 0168 0A       		.byte	0xa
 1585 0169 00       		.byte	0
 1586 016a 07       		.uleb128 0x7
 1587 016b E5000000 		.4byte	0xe5
 1588 016f 7A010000 		.4byte	0x17a
 1589 0173 08       		.uleb128 0x8
 1590 0174 D9000000 		.4byte	0xd9
 1591 0178 2E       		.byte	0x2e
 1592 0179 00       		.byte	0
 1593 017a 07       		.uleb128 0x7
 1594 017b E5000000 		.4byte	0xe5
 1595 017f 8A010000 		.4byte	0x18a
 1596 0183 08       		.uleb128 0x8
 1597 0184 D9000000 		.4byte	0xd9
 1598 0188 2D       		.byte	0x2d
 1599 0189 00       		.byte	0
 1600 018a 07       		.uleb128 0x7
 1601 018b E0000000 		.4byte	0xe0
 1602 018f 9B010000 		.4byte	0x19b
 1603 0193 09       		.uleb128 0x9
 1604 0194 D9000000 		.4byte	0xd9
 1605 0198 FF01     		.2byte	0x1ff
 1606 019a 00       		.byte	0
 1607 019b 07       		.uleb128 0x7
 1608 019c E5000000 		.4byte	0xe5
 1609 01a0 AB010000 		.4byte	0x1ab
 1610 01a4 08       		.uleb128 0x8
 1611 01a5 D9000000 		.4byte	0xd9
 1612 01a9 62       		.byte	0x62
 1613 01aa 00       		.byte	0
 1614 01ab 0A       		.uleb128 0xa
 1615 01ac D00F     		.2byte	0xfd0
ARM GAS  C:\Users\ISAKVO~1\AppData\Local\Temp\ccR1W42h.s 			page 64


 1616 01ae 08       		.byte	0x8
 1617 01af 21       		.byte	0x21
 1618 01b0 15050000 		.4byte	0x515
 1619 01b4 0B       		.uleb128 0xb
 1620 01b5 39120000 		.4byte	.LASF20
 1621 01b9 08       		.byte	0x8
 1622 01ba 22       		.byte	0x22
 1623 01bb E0000000 		.4byte	0xe0
 1624 01bf 00       		.byte	0
 1625 01c0 0B       		.uleb128 0xb
 1626 01c1 88110000 		.4byte	.LASF21
 1627 01c5 08       		.byte	0x8
 1628 01c6 23       		.byte	0x23
 1629 01c7 E5000000 		.4byte	0xe5
 1630 01cb 04       		.byte	0x4
 1631 01cc 0B       		.uleb128 0xb
 1632 01cd E1100000 		.4byte	.LASF22
 1633 01d1 08       		.byte	0x8
 1634 01d2 24       		.byte	0x24
 1635 01d3 E0000000 		.4byte	0xe0
 1636 01d7 08       		.byte	0x8
 1637 01d8 0B       		.uleb128 0xb
 1638 01d9 EB000000 		.4byte	.LASF23
 1639 01dd 08       		.byte	0x8
 1640 01de 25       		.byte	0x25
 1641 01df E5000000 		.4byte	0xe5
 1642 01e3 0C       		.byte	0xc
 1643 01e4 0B       		.uleb128 0xb
 1644 01e5 52000000 		.4byte	.LASF24
 1645 01e9 08       		.byte	0x8
 1646 01ea 26       		.byte	0x26
 1647 01eb 1A050000 		.4byte	0x51a
 1648 01ef 10       		.byte	0x10
 1649 01f0 0B       		.uleb128 0xb
 1650 01f1 740D0000 		.4byte	.LASF25
 1651 01f5 08       		.byte	0x8
 1652 01f6 27       		.byte	0x27
 1653 01f7 E0000000 		.4byte	0xe0
 1654 01fb 20       		.byte	0x20
 1655 01fc 0B       		.uleb128 0xb
 1656 01fd AB0E0000 		.4byte	.LASF26
 1657 0201 08       		.byte	0x8
 1658 0202 28       		.byte	0x28
 1659 0203 E5000000 		.4byte	0xe5
 1660 0207 24       		.byte	0x24
 1661 0208 0B       		.uleb128 0xb
 1662 0209 6F110000 		.4byte	.LASF27
 1663 020d 08       		.byte	0x8
 1664 020e 29       		.byte	0x29
 1665 020f 24050000 		.4byte	0x524
 1666 0213 28       		.byte	0x28
 1667 0214 0B       		.uleb128 0xb
 1668 0215 80100000 		.4byte	.LASF28
 1669 0219 08       		.byte	0x8
 1670 021a 2A       		.byte	0x2a
 1671 021b E0000000 		.4byte	0xe0
 1672 021f 40       		.byte	0x40
ARM GAS  C:\Users\ISAKVO~1\AppData\Local\Temp\ccR1W42h.s 			page 65


 1673 0220 0B       		.uleb128 0xb
 1674 0221 F0050000 		.4byte	.LASF29
 1675 0225 08       		.byte	0x8
 1676 0226 2B       		.byte	0x2b
 1677 0227 E0000000 		.4byte	0xe0
 1678 022b 44       		.byte	0x44
 1679 022c 0B       		.uleb128 0xb
 1680 022d D3030000 		.4byte	.LASF30
 1681 0231 08       		.byte	0x8
 1682 0232 2C       		.byte	0x2c
 1683 0233 E0000000 		.4byte	0xe0
 1684 0237 48       		.byte	0x48
 1685 0238 0B       		.uleb128 0xb
 1686 0239 C10C0000 		.4byte	.LASF31
 1687 023d 08       		.byte	0x8
 1688 023e 2D       		.byte	0x2d
 1689 023f E5000000 		.4byte	0xe5
 1690 0243 4C       		.byte	0x4c
 1691 0244 0B       		.uleb128 0xb
 1692 0245 49090000 		.4byte	.LASF32
 1693 0249 08       		.byte	0x8
 1694 024a 2E       		.byte	0x2e
 1695 024b E0000000 		.4byte	0xe0
 1696 024f 50       		.byte	0x50
 1697 0250 0B       		.uleb128 0xb
 1698 0251 B60B0000 		.4byte	.LASF33
 1699 0255 08       		.byte	0x8
 1700 0256 2F       		.byte	0x2f
 1701 0257 2E050000 		.4byte	0x52e
 1702 025b 54       		.byte	0x54
 1703 025c 0B       		.uleb128 0xb
 1704 025d F90D0000 		.4byte	.LASF34
 1705 0261 08       		.byte	0x8
 1706 0262 30       		.byte	0x30
 1707 0263 E0000000 		.4byte	0xe0
 1708 0267 60       		.byte	0x60
 1709 0268 0B       		.uleb128 0xb
 1710 0269 260C0000 		.4byte	.LASF35
 1711 026d 08       		.byte	0x8
 1712 026e 31       		.byte	0x31
 1713 026f E5000000 		.4byte	0xe5
 1714 0273 64       		.byte	0x64
 1715 0274 0B       		.uleb128 0xb
 1716 0275 420D0000 		.4byte	.LASF36
 1717 0279 08       		.byte	0x8
 1718 027a 32       		.byte	0x32
 1719 027b E0000000 		.4byte	0xe0
 1720 027f 68       		.byte	0x68
 1721 0280 0B       		.uleb128 0xb
 1722 0281 700B0000 		.4byte	.LASF37
 1723 0285 08       		.byte	0x8
 1724 0286 33       		.byte	0x33
 1725 0287 E0000000 		.4byte	0xe0
 1726 028b 6C       		.byte	0x6c
 1727 028c 0B       		.uleb128 0xb
 1728 028d 4B040000 		.4byte	.LASF38
 1729 0291 08       		.byte	0x8
ARM GAS  C:\Users\ISAKVO~1\AppData\Local\Temp\ccR1W42h.s 			page 66


 1730 0292 34       		.byte	0x34
 1731 0293 E0000000 		.4byte	0xe0
 1732 0297 70       		.byte	0x70
 1733 0298 0B       		.uleb128 0xb
 1734 0299 C00B0000 		.4byte	.LASF39
 1735 029d 08       		.byte	0x8
 1736 029e 35       		.byte	0x35
 1737 029f 38050000 		.4byte	0x538
 1738 02a3 74       		.byte	0x74
 1739 02a4 0C       		.uleb128 0xc
 1740 02a5 27100000 		.4byte	.LASF40
 1741 02a9 08       		.byte	0x8
 1742 02aa 36       		.byte	0x36
 1743 02ab E0000000 		.4byte	0xe0
 1744 02af 0002     		.2byte	0x200
 1745 02b1 0C       		.uleb128 0xc
 1746 02b2 E00F0000 		.4byte	.LASF41
 1747 02b6 08       		.byte	0x8
 1748 02b7 37       		.byte	0x37
 1749 02b8 E0000000 		.4byte	0xe0
 1750 02bc 0402     		.2byte	0x204
 1751 02be 0C       		.uleb128 0xc
 1752 02bf 2D010000 		.4byte	.LASF42
 1753 02c3 08       		.byte	0x8
 1754 02c4 38       		.byte	0x38
 1755 02c5 E5000000 		.4byte	0xe5
 1756 02c9 0802     		.2byte	0x208
 1757 02cb 0C       		.uleb128 0xc
 1758 02cc CA0B0000 		.4byte	.LASF43
 1759 02d0 08       		.byte	0x8
 1760 02d1 39       		.byte	0x39
 1761 02d2 42050000 		.4byte	0x542
 1762 02d6 0C02     		.2byte	0x20c
 1763 02d8 0C       		.uleb128 0xc
 1764 02d9 D50F0000 		.4byte	.LASF44
 1765 02dd 08       		.byte	0x8
 1766 02de 3A       		.byte	0x3a
 1767 02df E0000000 		.4byte	0xe0
 1768 02e3 4002     		.2byte	0x240
 1769 02e5 0C       		.uleb128 0xc
 1770 02e6 D40B0000 		.4byte	.LASF45
 1771 02ea 08       		.byte	0x8
 1772 02eb 3B       		.byte	0x3b
 1773 02ec 4C050000 		.4byte	0x54c
 1774 02f0 4402     		.2byte	0x244
 1775 02f2 0C       		.uleb128 0xc
 1776 02f3 200D0000 		.4byte	.LASF46
 1777 02f7 08       		.byte	0x8
 1778 02f8 3C       		.byte	0x3c
 1779 02f9 E0000000 		.4byte	0xe0
 1780 02fd 0003     		.2byte	0x300
 1781 02ff 0C       		.uleb128 0xc
 1782 0300 DB010000 		.4byte	.LASF47
 1783 0304 08       		.byte	0x8
 1784 0305 3D       		.byte	0x3d
 1785 0306 E0000000 		.4byte	0xe0
 1786 030a 0403     		.2byte	0x304
ARM GAS  C:\Users\ISAKVO~1\AppData\Local\Temp\ccR1W42h.s 			page 67


 1787 030c 0C       		.uleb128 0xc
 1788 030d BF0F0000 		.4byte	.LASF48
 1789 0311 08       		.byte	0x8
 1790 0312 3E       		.byte	0x3e
 1791 0313 E5000000 		.4byte	0xe5
 1792 0317 0803     		.2byte	0x308
 1793 0319 0C       		.uleb128 0xc
 1794 031a DE0B0000 		.4byte	.LASF49
 1795 031e 08       		.byte	0x8
 1796 031f 3F       		.byte	0x3f
 1797 0320 E5000000 		.4byte	0xe5
 1798 0324 0C03     		.2byte	0x30c
 1799 0326 0C       		.uleb128 0xc
 1800 0327 AA060000 		.4byte	.LASF50
 1801 032b 08       		.byte	0x8
 1802 032c 40       		.byte	0x40
 1803 032d E0000000 		.4byte	0xe0
 1804 0331 1003     		.2byte	0x310
 1805 0333 0C       		.uleb128 0xc
 1806 0334 E80B0000 		.4byte	.LASF51
 1807 0338 08       		.byte	0x8
 1808 0339 41       		.byte	0x41
 1809 033a 56050000 		.4byte	0x556
 1810 033e 1403     		.2byte	0x314
 1811 0340 0C       		.uleb128 0xc
 1812 0341 21090000 		.4byte	.LASF52
 1813 0345 08       		.byte	0x8
 1814 0346 42       		.byte	0x42
 1815 0347 E5000000 		.4byte	0xe5
 1816 034b 4003     		.2byte	0x340
 1817 034d 0C       		.uleb128 0xc
 1818 034e 6C040000 		.4byte	.LASF53
 1819 0352 08       		.byte	0x8
 1820 0353 43       		.byte	0x43
 1821 0354 E5000000 		.4byte	0xe5
 1822 0358 4403     		.2byte	0x344
 1823 035a 0C       		.uleb128 0xc
 1824 035b F20B0000 		.4byte	.LASF54
 1825 035f 08       		.byte	0x8
 1826 0360 44       		.byte	0x44
 1827 0361 60050000 		.4byte	0x560
 1828 0365 4803     		.2byte	0x348
 1829 0367 0C       		.uleb128 0xc
 1830 0368 FF110000 		.4byte	.LASF55
 1831 036c 08       		.byte	0x8
 1832 036d 45       		.byte	0x45
 1833 036e 65050000 		.4byte	0x565
 1834 0372 0004     		.2byte	0x400
 1835 0374 0C       		.uleb128 0xc
 1836 0375 FC0B0000 		.4byte	.LASF56
 1837 0379 08       		.byte	0x8
 1838 037a 46       		.byte	0x46
 1839 037b 6F050000 		.4byte	0x56f
 1840 037f 000C     		.2byte	0xc00
 1841 0381 0C       		.uleb128 0xc
 1842 0382 79010000 		.4byte	.LASF57
 1843 0386 08       		.byte	0x8
ARM GAS  C:\Users\ISAKVO~1\AppData\Local\Temp\ccR1W42h.s 			page 68


 1844 0387 47       		.byte	0x47
 1845 0388 E5000000 		.4byte	0xe5
 1846 038c 000E     		.2byte	0xe00
 1847 038e 0C       		.uleb128 0xc
 1848 038f 670F0000 		.4byte	.LASF58
 1849 0393 08       		.byte	0x8
 1850 0394 48       		.byte	0x48
 1851 0395 79050000 		.4byte	0x579
 1852 0399 040E     		.2byte	0xe04
 1853 039b 0C       		.uleb128 0xc
 1854 039c E3060000 		.4byte	.LASF59
 1855 03a0 08       		.byte	0x8
 1856 03a1 49       		.byte	0x49
 1857 03a2 E0000000 		.4byte	0xe0
 1858 03a6 800E     		.2byte	0xe80
 1859 03a8 0C       		.uleb128 0xc
 1860 03a9 720F0000 		.4byte	.LASF60
 1861 03ad 08       		.byte	0x8
 1862 03ae 4A       		.byte	0x4a
 1863 03af E5000000 		.4byte	0xe5
 1864 03b3 840E     		.2byte	0xe84
 1865 03b5 0C       		.uleb128 0xc
 1866 03b6 DB0A0000 		.4byte	.LASF61
 1867 03ba 08       		.byte	0x8
 1868 03bb 4B       		.byte	0x4b
 1869 03bc E0000000 		.4byte	0xe0
 1870 03c0 880E     		.2byte	0xe88
 1871 03c2 0C       		.uleb128 0xc
 1872 03c3 E7070000 		.4byte	.LASF62
 1873 03c7 08       		.byte	0x8
 1874 03c8 4C       		.byte	0x4c
 1875 03c9 E5000000 		.4byte	0xe5
 1876 03cd 8C0E     		.2byte	0xe8c
 1877 03cf 0C       		.uleb128 0xc
 1878 03d0 7D0F0000 		.4byte	.LASF63
 1879 03d4 08       		.byte	0x8
 1880 03d5 4D       		.byte	0x4d
 1881 03d6 83050000 		.4byte	0x583
 1882 03da 900E     		.2byte	0xe90
 1883 03dc 0C       		.uleb128 0xc
 1884 03dd 4B060000 		.4byte	.LASF64
 1885 03e1 08       		.byte	0x8
 1886 03e2 4E       		.byte	0x4e
 1887 03e3 E0000000 		.4byte	0xe0
 1888 03e7 C00E     		.2byte	0xec0
 1889 03e9 0C       		.uleb128 0xc
 1890 03ea 880F0000 		.4byte	.LASF65
 1891 03ee 08       		.byte	0x8
 1892 03ef 4F       		.byte	0x4f
 1893 03f0 E5000000 		.4byte	0xe5
 1894 03f4 C40E     		.2byte	0xec4
 1895 03f6 0C       		.uleb128 0xc
 1896 03f7 280B0000 		.4byte	.LASF66
 1897 03fb 08       		.byte	0x8
 1898 03fc 50       		.byte	0x50
 1899 03fd E0000000 		.4byte	0xe0
 1900 0401 C80E     		.2byte	0xec8
ARM GAS  C:\Users\ISAKVO~1\AppData\Local\Temp\ccR1W42h.s 			page 69


 1901 0403 0C       		.uleb128 0xc
 1902 0404 4C0D0000 		.4byte	.LASF67
 1903 0408 08       		.byte	0x8
 1904 0409 51       		.byte	0x51
 1905 040a E5000000 		.4byte	0xe5
 1906 040e CC0E     		.2byte	0xecc
 1907 0410 0C       		.uleb128 0xc
 1908 0411 930F0000 		.4byte	.LASF68
 1909 0415 08       		.byte	0x8
 1910 0416 52       		.byte	0x52
 1911 0417 8D050000 		.4byte	0x58d
 1912 041b D00E     		.2byte	0xed0
 1913 041d 0C       		.uleb128 0xc
 1914 041e 210E0000 		.4byte	.LASF69
 1915 0422 08       		.byte	0x8
 1916 0423 53       		.byte	0x53
 1917 0424 E0000000 		.4byte	0xe0
 1918 0428 000F     		.2byte	0xf00
 1919 042a 0C       		.uleb128 0xc
 1920 042b B0040000 		.4byte	.LASF70
 1921 042f 08       		.byte	0x8
 1922 0430 54       		.byte	0x54
 1923 0431 E0000000 		.4byte	0xe0
 1924 0435 040F     		.2byte	0xf04
 1925 0437 0C       		.uleb128 0xc
 1926 0438 750E0000 		.4byte	.LASF71
 1927 043c 08       		.byte	0x8
 1928 043d 55       		.byte	0x55
 1929 043e E0000000 		.4byte	0xe0
 1930 0442 080F     		.2byte	0xf08
 1931 0444 0C       		.uleb128 0xc
 1932 0445 18050000 		.4byte	.LASF72
 1933 0449 08       		.byte	0x8
 1934 044a 56       		.byte	0x56
 1935 044b E5000000 		.4byte	0xe5
 1936 044f 0C0F     		.2byte	0xf0c
 1937 0451 0C       		.uleb128 0xc
 1938 0452 9E0F0000 		.4byte	.LASF73
 1939 0456 08       		.byte	0x8
 1940 0457 57       		.byte	0x57
 1941 0458 97050000 		.4byte	0x597
 1942 045c 100F     		.2byte	0xf10
 1943 045e 0C       		.uleb128 0xc
 1944 045f 540E0000 		.4byte	.LASF74
 1945 0463 08       		.byte	0x8
 1946 0464 58       		.byte	0x58
 1947 0465 E0000000 		.4byte	0xe0
 1948 0469 400F     		.2byte	0xf40
 1949 046b 0C       		.uleb128 0xc
 1950 046c C1020000 		.4byte	.LASF75
 1951 0470 08       		.byte	0x8
 1952 0471 59       		.byte	0x59
 1953 0472 E0000000 		.4byte	0xe0
 1954 0476 440F     		.2byte	0xf44
 1955 0478 0C       		.uleb128 0xc
 1956 0479 CA070000 		.4byte	.LASF76
 1957 047d 08       		.byte	0x8
ARM GAS  C:\Users\ISAKVO~1\AppData\Local\Temp\ccR1W42h.s 			page 70


 1958 047e 5A       		.byte	0x5a
 1959 047f E0000000 		.4byte	0xe0
 1960 0483 480F     		.2byte	0xf48
 1961 0485 0C       		.uleb128 0xc
 1962 0486 EF060000 		.4byte	.LASF77
 1963 048a 08       		.byte	0x8
 1964 048b 5B       		.byte	0x5b
 1965 048c E5000000 		.4byte	0xe5
 1966 0490 4C0F     		.2byte	0xf4c
 1967 0492 0C       		.uleb128 0xc
 1968 0493 A90F0000 		.4byte	.LASF78
 1969 0497 08       		.byte	0x8
 1970 0498 5C       		.byte	0x5c
 1971 0499 A1050000 		.4byte	0x5a1
 1972 049d 500F     		.2byte	0xf50
 1973 049f 0C       		.uleb128 0xc
 1974 04a0 AF0C0000 		.4byte	.LASF79
 1975 04a4 08       		.byte	0x8
 1976 04a5 5D       		.byte	0x5d
 1977 04a6 E0000000 		.4byte	0xe0
 1978 04aa 800F     		.2byte	0xf80
 1979 04ac 0C       		.uleb128 0xc
 1980 04ad CC020000 		.4byte	.LASF80
 1981 04b1 08       		.byte	0x8
 1982 04b2 5E       		.byte	0x5e
 1983 04b3 E0000000 		.4byte	0xe0
 1984 04b7 840F     		.2byte	0xf84
 1985 04b9 0C       		.uleb128 0xc
 1986 04ba FB000000 		.4byte	.LASF81
 1987 04be 08       		.byte	0x8
 1988 04bf 5F       		.byte	0x5f
 1989 04c0 E0000000 		.4byte	0xe0
 1990 04c4 880F     		.2byte	0xf88
 1991 04c6 0C       		.uleb128 0xc
 1992 04c7 440C0000 		.4byte	.LASF82
 1993 04cb 08       		.byte	0x8
 1994 04cc 60       		.byte	0x60
 1995 04cd E5000000 		.4byte	0xe5
 1996 04d1 8C0F     		.2byte	0xf8c
 1997 04d3 0C       		.uleb128 0xc
 1998 04d4 B40F0000 		.4byte	.LASF83
 1999 04d8 08       		.byte	0x8
 2000 04d9 61       		.byte	0x61
 2001 04da AB050000 		.4byte	0x5ab
 2002 04de 900F     		.2byte	0xf90
 2003 04e0 0C       		.uleb128 0xc
 2004 04e1 6F0A0000 		.4byte	.LASF84
 2005 04e5 08       		.byte	0x8
 2006 04e6 62       		.byte	0x62
 2007 04e7 E0000000 		.4byte	0xe0
 2008 04eb C00F     		.2byte	0xfc0
 2009 04ed 0C       		.uleb128 0xc
 2010 04ee 63110000 		.4byte	.LASF85
 2011 04f2 08       		.byte	0x8
 2012 04f3 63       		.byte	0x63
 2013 04f4 E0000000 		.4byte	0xe0
 2014 04f8 C40F     		.2byte	0xfc4
ARM GAS  C:\Users\ISAKVO~1\AppData\Local\Temp\ccR1W42h.s 			page 71


 2015 04fa 0C       		.uleb128 0xc
 2016 04fb 98100000 		.4byte	.LASF86
 2017 04ff 08       		.byte	0x8
 2018 0500 64       		.byte	0x64
 2019 0501 E0000000 		.4byte	0xe0
 2020 0505 C80F     		.2byte	0xfc8
 2021 0507 0C       		.uleb128 0xc
 2022 0508 D8020000 		.4byte	.LASF87
 2023 050c 08       		.byte	0x8
 2024 050d 65       		.byte	0x65
 2025 050e E5000000 		.4byte	0xe5
 2026 0512 CC0F     		.2byte	0xfcc
 2027 0514 00       		.byte	0
 2028 0515 05       		.uleb128 0x5
 2029 0516 EA000000 		.4byte	0xea
 2030 051a 06       		.uleb128 0x6
 2031 051b 15050000 		.4byte	0x515
 2032 051f 05       		.uleb128 0x5
 2033 0520 FA000000 		.4byte	0xfa
 2034 0524 06       		.uleb128 0x6
 2035 0525 1F050000 		.4byte	0x51f
 2036 0529 05       		.uleb128 0x5
 2037 052a 3A010000 		.4byte	0x13a
 2038 052e 06       		.uleb128 0x6
 2039 052f 29050000 		.4byte	0x529
 2040 0533 05       		.uleb128 0x5
 2041 0534 9B010000 		.4byte	0x19b
 2042 0538 06       		.uleb128 0x6
 2043 0539 33050000 		.4byte	0x533
 2044 053d 05       		.uleb128 0x5
 2045 053e 1A010000 		.4byte	0x11a
 2046 0542 06       		.uleb128 0x6
 2047 0543 3D050000 		.4byte	0x53d
 2048 0547 05       		.uleb128 0x5
 2049 0548 6A010000 		.4byte	0x16a
 2050 054c 06       		.uleb128 0x6
 2051 054d 47050000 		.4byte	0x547
 2052 0551 05       		.uleb128 0x5
 2053 0552 5A010000 		.4byte	0x15a
 2054 0556 06       		.uleb128 0x6
 2055 0557 51050000 		.4byte	0x551
 2056 055b 05       		.uleb128 0x5
 2057 055c 7A010000 		.4byte	0x17a
 2058 0560 06       		.uleb128 0x6
 2059 0561 5B050000 		.4byte	0x55b
 2060 0565 05       		.uleb128 0x5
 2061 0566 8A010000 		.4byte	0x18a
 2062 056a 05       		.uleb128 0x5
 2063 056b 0A010000 		.4byte	0x10a
 2064 056f 06       		.uleb128 0x6
 2065 0570 6A050000 		.4byte	0x56a
 2066 0574 05       		.uleb128 0x5
 2067 0575 2A010000 		.4byte	0x12a
 2068 0579 06       		.uleb128 0x6
 2069 057a 74050000 		.4byte	0x574
 2070 057e 05       		.uleb128 0x5
 2071 057f 4A010000 		.4byte	0x14a
ARM GAS  C:\Users\ISAKVO~1\AppData\Local\Temp\ccR1W42h.s 			page 72


 2072 0583 06       		.uleb128 0x6
 2073 0584 7E050000 		.4byte	0x57e
 2074 0588 05       		.uleb128 0x5
 2075 0589 4A010000 		.4byte	0x14a
 2076 058d 06       		.uleb128 0x6
 2077 058e 88050000 		.4byte	0x588
 2078 0592 05       		.uleb128 0x5
 2079 0593 4A010000 		.4byte	0x14a
 2080 0597 06       		.uleb128 0x6
 2081 0598 92050000 		.4byte	0x592
 2082 059c 05       		.uleb128 0x5
 2083 059d 4A010000 		.4byte	0x14a
 2084 05a1 06       		.uleb128 0x6
 2085 05a2 9C050000 		.4byte	0x59c
 2086 05a6 05       		.uleb128 0x5
 2087 05a7 4A010000 		.4byte	0x14a
 2088 05ab 06       		.uleb128 0x6
 2089 05ac A6050000 		.4byte	0x5a6
 2090 05b0 04       		.uleb128 0x4
 2091 05b1 9F070000 		.4byte	.LASF88
 2092 05b5 08       		.byte	0x8
 2093 05b6 66       		.byte	0x66
 2094 05b7 AB010000 		.4byte	0x1ab
 2095 05bb 0D       		.uleb128 0xd
 2096 05bc 38040000 		.4byte	.LASF89
 2097 05c0 09       		.byte	0x9
 2098 05c1 4F06     		.2byte	0x64f
 2099 05c3 B0050000 		.4byte	0x5b0
 2100 05c7 02       		.uleb128 0x2
 2101 05c8 08       		.byte	0x8
 2102 05c9 04       		.byte	0x4
 2103 05ca C60A0000 		.4byte	.LASF90
 2104 05ce 0E       		.uleb128 0xe
 2105 05cf B8       		.byte	0xb8
 2106 05d0 0A       		.byte	0xa
 2107 05d1 34       		.byte	0x34
 2108 05d2 DF090000 		.4byte	0x9df
 2109 05d6 0B       		.uleb128 0xb
 2110 05d7 AC020000 		.4byte	.LASF91
 2111 05db 0A       		.byte	0xa
 2112 05dc 37       		.byte	0x37
 2113 05dd CE000000 		.4byte	0xce
 2114 05e1 00       		.byte	0
 2115 05e2 0B       		.uleb128 0xb
 2116 05e3 85070000 		.4byte	.LASF92
 2117 05e7 0A       		.byte	0xa
 2118 05e8 38       		.byte	0x38
 2119 05e9 CE000000 		.4byte	0xce
 2120 05ed 04       		.byte	0x4
 2121 05ee 0B       		.uleb128 0xb
 2122 05ef 08010000 		.4byte	.LASF93
 2123 05f3 0A       		.byte	0xa
 2124 05f4 39       		.byte	0x39
 2125 05f5 CE000000 		.4byte	0xce
 2126 05f9 08       		.byte	0x8
 2127 05fa 0B       		.uleb128 0xb
 2128 05fb DC000000 		.4byte	.LASF94
ARM GAS  C:\Users\ISAKVO~1\AppData\Local\Temp\ccR1W42h.s 			page 73


 2129 05ff 0A       		.byte	0xa
 2130 0600 3A       		.byte	0x3a
 2131 0601 CE000000 		.4byte	0xce
 2132 0605 0C       		.byte	0xc
 2133 0606 0B       		.uleb128 0xb
 2134 0607 EC0A0000 		.4byte	.LASF95
 2135 060b 0A       		.byte	0xa
 2136 060c 3B       		.byte	0x3b
 2137 060d CE000000 		.4byte	0xce
 2138 0611 10       		.byte	0x10
 2139 0612 0B       		.uleb128 0xb
 2140 0613 8B090000 		.4byte	.LASF96
 2141 0617 0A       		.byte	0xa
 2142 0618 3C       		.byte	0x3c
 2143 0619 CE000000 		.4byte	0xce
 2144 061d 14       		.byte	0x14
 2145 061e 0B       		.uleb128 0xb
 2146 061f DA060000 		.4byte	.LASF97
 2147 0623 0A       		.byte	0xa
 2148 0624 3D       		.byte	0x3d
 2149 0625 CE000000 		.4byte	0xce
 2150 0629 18       		.byte	0x18
 2151 062a 0B       		.uleb128 0xb
 2152 062b 40110000 		.4byte	.LASF98
 2153 062f 0A       		.byte	0xa
 2154 0630 3E       		.byte	0x3e
 2155 0631 CE000000 		.4byte	0xce
 2156 0635 1C       		.byte	0x1c
 2157 0636 0B       		.uleb128 0xb
 2158 0637 D2080000 		.4byte	.LASF99
 2159 063b 0A       		.byte	0xa
 2160 063c 3F       		.byte	0x3f
 2161 063d CE000000 		.4byte	0xce
 2162 0641 20       		.byte	0x20
 2163 0642 0B       		.uleb128 0xb
 2164 0643 E9080000 		.4byte	.LASF100
 2165 0647 0A       		.byte	0xa
 2166 0648 40       		.byte	0x40
 2167 0649 CE000000 		.4byte	0xce
 2168 064d 24       		.byte	0x24
 2169 064e 0B       		.uleb128 0xb
 2170 064f 190C0000 		.4byte	.LASF101
 2171 0653 0A       		.byte	0xa
 2172 0654 43       		.byte	0x43
 2173 0655 A2000000 		.4byte	0xa2
 2174 0659 28       		.byte	0x28
 2175 065a 0B       		.uleb128 0xb
 2176 065b 02050000 		.4byte	.LASF102
 2177 065f 0A       		.byte	0xa
 2178 0660 44       		.byte	0x44
 2179 0661 A2000000 		.4byte	0xa2
 2180 0665 29       		.byte	0x29
 2181 0666 0B       		.uleb128 0xb
 2182 0667 1E0B0000 		.4byte	.LASF103
 2183 066b 0A       		.byte	0xa
 2184 066c 45       		.byte	0x45
 2185 066d A2000000 		.4byte	0xa2
ARM GAS  C:\Users\ISAKVO~1\AppData\Local\Temp\ccR1W42h.s 			page 74


 2186 0671 2A       		.byte	0x2a
 2187 0672 0B       		.uleb128 0xb
 2188 0673 530C0000 		.4byte	.LASF104
 2189 0677 0A       		.byte	0xa
 2190 0678 46       		.byte	0x46
 2191 0679 A2000000 		.4byte	0xa2
 2192 067d 2B       		.byte	0x2b
 2193 067e 0B       		.uleb128 0xb
 2194 067f 310C0000 		.4byte	.LASF105
 2195 0683 0A       		.byte	0xa
 2196 0684 47       		.byte	0x47
 2197 0685 A2000000 		.4byte	0xa2
 2198 0689 2C       		.byte	0x2c
 2199 068a 0B       		.uleb128 0xb
 2200 068b 020E0000 		.4byte	.LASF106
 2201 068f 0A       		.byte	0xa
 2202 0690 48       		.byte	0x48
 2203 0691 A2000000 		.4byte	0xa2
 2204 0695 2D       		.byte	0x2d
 2205 0696 0B       		.uleb128 0xb
 2206 0697 0D120000 		.4byte	.LASF107
 2207 069b 0A       		.byte	0xa
 2208 069c 49       		.byte	0x49
 2209 069d A2000000 		.4byte	0xa2
 2210 06a1 2E       		.byte	0x2e
 2211 06a2 0B       		.uleb128 0xb
 2212 06a3 27110000 		.4byte	.LASF108
 2213 06a7 0A       		.byte	0xa
 2214 06a8 4A       		.byte	0x4a
 2215 06a9 A2000000 		.4byte	0xa2
 2216 06ad 2F       		.byte	0x2f
 2217 06ae 0B       		.uleb128 0xb
 2218 06af C7030000 		.4byte	.LASF109
 2219 06b3 0A       		.byte	0xa
 2220 06b4 4B       		.byte	0x4b
 2221 06b5 A2000000 		.4byte	0xa2
 2222 06b9 30       		.byte	0x30
 2223 06ba 0B       		.uleb128 0xb
 2224 06bb 57070000 		.4byte	.LASF110
 2225 06bf 0A       		.byte	0xa
 2226 06c0 4E       		.byte	0x4e
 2227 06c1 A2000000 		.4byte	0xa2
 2228 06c5 31       		.byte	0x31
 2229 06c6 0B       		.uleb128 0xb
 2230 06c7 8A100000 		.4byte	.LASF111
 2231 06cb 0A       		.byte	0xa
 2232 06cc 4F       		.byte	0x4f
 2233 06cd A2000000 		.4byte	0xa2
 2234 06d1 32       		.byte	0x32
 2235 06d2 0B       		.uleb128 0xb
 2236 06d3 DA090000 		.4byte	.LASF112
 2237 06d7 0A       		.byte	0xa
 2238 06d8 50       		.byte	0x50
 2239 06d9 A2000000 		.4byte	0xa2
 2240 06dd 33       		.byte	0x33
 2241 06de 0B       		.uleb128 0xb
 2242 06df DD0D0000 		.4byte	.LASF113
ARM GAS  C:\Users\ISAKVO~1\AppData\Local\Temp\ccR1W42h.s 			page 75


 2243 06e3 0A       		.byte	0xa
 2244 06e4 51       		.byte	0x51
 2245 06e5 A2000000 		.4byte	0xa2
 2246 06e9 34       		.byte	0x34
 2247 06ea 0B       		.uleb128 0xb
 2248 06eb 5C100000 		.4byte	.LASF114
 2249 06ef 0A       		.byte	0xa
 2250 06f0 52       		.byte	0x52
 2251 06f1 AD000000 		.4byte	0xad
 2252 06f5 36       		.byte	0x36
 2253 06f6 0B       		.uleb128 0xb
 2254 06f7 B6020000 		.4byte	.LASF115
 2255 06fb 0A       		.byte	0xa
 2256 06fc 53       		.byte	0x53
 2257 06fd AD000000 		.4byte	0xad
 2258 0701 38       		.byte	0x38
 2259 0702 0B       		.uleb128 0xb
 2260 0703 AE090000 		.4byte	.LASF116
 2261 0707 0A       		.byte	0xa
 2262 0708 54       		.byte	0x54
 2263 0709 AD000000 		.4byte	0xad
 2264 070d 3A       		.byte	0x3a
 2265 070e 0B       		.uleb128 0xb
 2266 070f 79110000 		.4byte	.LASF117
 2267 0713 0A       		.byte	0xa
 2268 0714 55       		.byte	0x55
 2269 0715 A2000000 		.4byte	0xa2
 2270 0719 3C       		.byte	0x3c
 2271 071a 0B       		.uleb128 0xb
 2272 071b 40060000 		.4byte	.LASF118
 2273 071f 0A       		.byte	0xa
 2274 0720 56       		.byte	0x56
 2275 0721 A2000000 		.4byte	0xa2
 2276 0725 3D       		.byte	0x3d
 2277 0726 0B       		.uleb128 0xb
 2278 0727 100B0000 		.4byte	.LASF119
 2279 072b 0A       		.byte	0xa
 2280 072c 57       		.byte	0x57
 2281 072d A2000000 		.4byte	0xa2
 2282 0731 3E       		.byte	0x3e
 2283 0732 0B       		.uleb128 0xb
 2284 0733 A7000000 		.4byte	.LASF120
 2285 0737 0A       		.byte	0xa
 2286 0738 58       		.byte	0x58
 2287 0739 A2000000 		.4byte	0xa2
 2288 073d 3F       		.byte	0x3f
 2289 073e 0B       		.uleb128 0xb
 2290 073f 84010000 		.4byte	.LASF121
 2291 0743 0A       		.byte	0xa
 2292 0744 59       		.byte	0x59
 2293 0745 A2000000 		.4byte	0xa2
 2294 0749 40       		.byte	0x40
 2295 074a 0B       		.uleb128 0xb
 2296 074b 430A0000 		.4byte	.LASF122
 2297 074f 0A       		.byte	0xa
 2298 0750 5A       		.byte	0x5a
 2299 0751 A2000000 		.4byte	0xa2
ARM GAS  C:\Users\ISAKVO~1\AppData\Local\Temp\ccR1W42h.s 			page 76


 2300 0755 41       		.byte	0x41
 2301 0756 0B       		.uleb128 0xb
 2302 0757 2F100000 		.4byte	.LASF123
 2303 075b 0A       		.byte	0xa
 2304 075c 5B       		.byte	0x5b
 2305 075d A2000000 		.4byte	0xa2
 2306 0761 42       		.byte	0x42
 2307 0762 0B       		.uleb128 0xb
 2308 0763 33070000 		.4byte	.LASF124
 2309 0767 0A       		.byte	0xa
 2310 0768 5C       		.byte	0x5c
 2311 0769 A2000000 		.4byte	0xa2
 2312 076d 43       		.byte	0x43
 2313 076e 0B       		.uleb128 0xb
 2314 076f D6070000 		.4byte	.LASF125
 2315 0773 0A       		.byte	0xa
 2316 0774 5D       		.byte	0x5d
 2317 0775 A2000000 		.4byte	0xa2
 2318 0779 44       		.byte	0x44
 2319 077a 0B       		.uleb128 0xb
 2320 077b 610C0000 		.4byte	.LASF126
 2321 077f 0A       		.byte	0xa
 2322 0780 5E       		.byte	0x5e
 2323 0781 CE000000 		.4byte	0xce
 2324 0785 48       		.byte	0x48
 2325 0786 0B       		.uleb128 0xb
 2326 0787 64030000 		.4byte	.LASF127
 2327 078b 0A       		.byte	0xa
 2328 078c 5F       		.byte	0x5f
 2329 078d CE000000 		.4byte	0xce
 2330 0791 4C       		.byte	0x4c
 2331 0792 0B       		.uleb128 0xb
 2332 0793 FB0F0000 		.4byte	.LASF128
 2333 0797 0A       		.byte	0xa
 2334 0798 60       		.byte	0x60
 2335 0799 A2000000 		.4byte	0xa2
 2336 079d 50       		.byte	0x50
 2337 079e 0B       		.uleb128 0xb
 2338 079f B60E0000 		.4byte	.LASF129
 2339 07a3 0A       		.byte	0xa
 2340 07a4 61       		.byte	0x61
 2341 07a5 A2000000 		.4byte	0xa2
 2342 07a9 51       		.byte	0x51
 2343 07aa 0B       		.uleb128 0xb
 2344 07ab 09090000 		.4byte	.LASF130
 2345 07af 0A       		.byte	0xa
 2346 07b0 62       		.byte	0x62
 2347 07b1 A2000000 		.4byte	0xa2
 2348 07b5 52       		.byte	0x52
 2349 07b6 0B       		.uleb128 0xb
 2350 07b7 26050000 		.4byte	.LASF131
 2351 07bb 0A       		.byte	0xa
 2352 07bc 63       		.byte	0x63
 2353 07bd A2000000 		.4byte	0xa2
 2354 07c1 53       		.byte	0x53
 2355 07c2 0B       		.uleb128 0xb
 2356 07c3 08060000 		.4byte	.LASF132
ARM GAS  C:\Users\ISAKVO~1\AppData\Local\Temp\ccR1W42h.s 			page 77


 2357 07c7 0A       		.byte	0xa
 2358 07c8 64       		.byte	0x64
 2359 07c9 A2000000 		.4byte	0xa2
 2360 07cd 54       		.byte	0x54
 2361 07ce 0B       		.uleb128 0xb
 2362 07cf B3060000 		.4byte	.LASF133
 2363 07d3 0A       		.byte	0xa
 2364 07d4 65       		.byte	0x65
 2365 07d5 A2000000 		.4byte	0xa2
 2366 07d9 55       		.byte	0x55
 2367 07da 0B       		.uleb128 0xb
 2368 07db 00000000 		.4byte	.LASF134
 2369 07df 0A       		.byte	0xa
 2370 07e0 66       		.byte	0x66
 2371 07e1 A2000000 		.4byte	0xa2
 2372 07e5 56       		.byte	0x56
 2373 07e6 0B       		.uleb128 0xb
 2374 07e7 70050000 		.4byte	.LASF135
 2375 07eb 0A       		.byte	0xa
 2376 07ec 67       		.byte	0x67
 2377 07ed A2000000 		.4byte	0xa2
 2378 07f1 57       		.byte	0x57
 2379 07f2 0B       		.uleb128 0xb
 2380 07f3 2C060000 		.4byte	.LASF136
 2381 07f7 0A       		.byte	0xa
 2382 07f8 68       		.byte	0x68
 2383 07f9 A2000000 		.4byte	0xa2
 2384 07fd 58       		.byte	0x58
 2385 07fe 0B       		.uleb128 0xb
 2386 07ff A2110000 		.4byte	.LASF137
 2387 0803 0A       		.byte	0xa
 2388 0804 69       		.byte	0x69
 2389 0805 A2000000 		.4byte	0xa2
 2390 0809 59       		.byte	0x59
 2391 080a 0B       		.uleb128 0xb
 2392 080b 75100000 		.4byte	.LASF138
 2393 080f 0A       		.byte	0xa
 2394 0810 6E       		.byte	0x6e
 2395 0811 B8000000 		.4byte	0xb8
 2396 0815 5A       		.byte	0x5a
 2397 0816 0B       		.uleb128 0xb
 2398 0817 24010000 		.4byte	.LASF139
 2399 081b 0A       		.byte	0xa
 2400 081c 6F       		.byte	0x6f
 2401 081d B8000000 		.4byte	0xb8
 2402 0821 5C       		.byte	0x5c
 2403 0822 0B       		.uleb128 0xb
 2404 0823 DA080000 		.4byte	.LASF140
 2405 0827 0A       		.byte	0xa
 2406 0828 70       		.byte	0x70
 2407 0829 A2000000 		.4byte	0xa2
 2408 082d 5E       		.byte	0x5e
 2409 082e 0B       		.uleb128 0xb
 2410 082f A5100000 		.4byte	.LASF141
 2411 0833 0A       		.byte	0xa
 2412 0834 71       		.byte	0x71
 2413 0835 A2000000 		.4byte	0xa2
ARM GAS  C:\Users\ISAKVO~1\AppData\Local\Temp\ccR1W42h.s 			page 78


 2414 0839 5F       		.byte	0x5f
 2415 083a 0B       		.uleb128 0xb
 2416 083b 46070000 		.4byte	.LASF142
 2417 083f 0A       		.byte	0xa
 2418 0840 72       		.byte	0x72
 2419 0841 A2000000 		.4byte	0xa2
 2420 0845 60       		.byte	0x60
 2421 0846 0B       		.uleb128 0xb
 2422 0847 24080000 		.4byte	.LASF143
 2423 084b 0A       		.byte	0xa
 2424 084c 73       		.byte	0x73
 2425 084d CE000000 		.4byte	0xce
 2426 0851 64       		.byte	0x64
 2427 0852 0B       		.uleb128 0xb
 2428 0853 390B0000 		.4byte	.LASF144
 2429 0857 0A       		.byte	0xa
 2430 0858 76       		.byte	0x76
 2431 0859 B8000000 		.4byte	0xb8
 2432 085d 68       		.byte	0x68
 2433 085e 0B       		.uleb128 0xb
 2434 085f F50A0000 		.4byte	.LASF145
 2435 0863 0A       		.byte	0xa
 2436 0864 77       		.byte	0x77
 2437 0865 B8000000 		.4byte	0xb8
 2438 0869 6A       		.byte	0x6a
 2439 086a 0B       		.uleb128 0xb
 2440 086b 95090000 		.4byte	.LASF146
 2441 086f 0A       		.byte	0xa
 2442 0870 78       		.byte	0x78
 2443 0871 B8000000 		.4byte	0xb8
 2444 0875 6C       		.byte	0x6c
 2445 0876 0B       		.uleb128 0xb
 2446 0877 27030000 		.4byte	.LASF147
 2447 087b 0A       		.byte	0xa
 2448 087c 79       		.byte	0x79
 2449 087d B8000000 		.4byte	0xb8
 2450 0881 6E       		.byte	0x6e
 2451 0882 0B       		.uleb128 0xb
 2452 0883 49080000 		.4byte	.LASF148
 2453 0887 0A       		.byte	0xa
 2454 0888 7B       		.byte	0x7b
 2455 0889 A2000000 		.4byte	0xa2
 2456 088d 70       		.byte	0x70
 2457 088e 0B       		.uleb128 0xb
 2458 088f 0D040000 		.4byte	.LASF149
 2459 0893 0A       		.byte	0xa
 2460 0894 7C       		.byte	0x7c
 2461 0895 A2000000 		.4byte	0xa2
 2462 0899 71       		.byte	0x71
 2463 089a 0B       		.uleb128 0xb
 2464 089b 48030000 		.4byte	.LASF150
 2465 089f 0A       		.byte	0xa
 2466 08a0 7D       		.byte	0x7d
 2467 08a1 A2000000 		.4byte	0xa2
 2468 08a5 72       		.byte	0x72
 2469 08a6 0B       		.uleb128 0xb
 2470 08a7 91010000 		.4byte	.LASF151
ARM GAS  C:\Users\ISAKVO~1\AppData\Local\Temp\ccR1W42h.s 			page 79


 2471 08ab 0A       		.byte	0xa
 2472 08ac 7E       		.byte	0x7e
 2473 08ad A2000000 		.4byte	0xa2
 2474 08b1 73       		.byte	0x73
 2475 08b2 0B       		.uleb128 0xb
 2476 08b3 A40B0000 		.4byte	.LASF152
 2477 08b7 0A       		.byte	0xa
 2478 08b8 80       		.byte	0x80
 2479 08b9 B8000000 		.4byte	0xb8
 2480 08bd 74       		.byte	0x74
 2481 08be 0B       		.uleb128 0xb
 2482 08bf 7D0A0000 		.4byte	.LASF153
 2483 08c3 0A       		.byte	0xa
 2484 08c4 81       		.byte	0x81
 2485 08c5 B8000000 		.4byte	0xb8
 2486 08c9 76       		.byte	0x76
 2487 08ca 0B       		.uleb128 0xb
 2488 08cb 67080000 		.4byte	.LASF154
 2489 08cf 0A       		.byte	0xa
 2490 08d0 82       		.byte	0x82
 2491 08d1 B8000000 		.4byte	0xb8
 2492 08d5 78       		.byte	0x78
 2493 08d6 0B       		.uleb128 0xb
 2494 08d7 8F050000 		.4byte	.LASF155
 2495 08db 0A       		.byte	0xa
 2496 08dc 83       		.byte	0x83
 2497 08dd B8000000 		.4byte	0xb8
 2498 08e1 7A       		.byte	0x7a
 2499 08e2 0B       		.uleb128 0xb
 2500 08e3 5F0D0000 		.4byte	.LASF156
 2501 08e7 0A       		.byte	0xa
 2502 08e8 86       		.byte	0x86
 2503 08e9 A2000000 		.4byte	0xa2
 2504 08ed 7C       		.byte	0x7c
 2505 08ee 0B       		.uleb128 0xb
 2506 08ef 240F0000 		.4byte	.LASF157
 2507 08f3 0A       		.byte	0xa
 2508 08f4 87       		.byte	0x87
 2509 08f5 A2000000 		.4byte	0xa2
 2510 08f9 7D       		.byte	0x7d
 2511 08fa 0B       		.uleb128 0xb
 2512 08fb 5D050000 		.4byte	.LASF158
 2513 08ff 0A       		.byte	0xa
 2514 0900 88       		.byte	0x88
 2515 0901 A2000000 		.4byte	0xa2
 2516 0905 7E       		.byte	0x7e
 2517 0906 0B       		.uleb128 0xb
 2518 0907 C3040000 		.4byte	.LASF159
 2519 090b 0A       		.byte	0xa
 2520 090c 89       		.byte	0x89
 2521 090d A2000000 		.4byte	0xa2
 2522 0911 7F       		.byte	0x7f
 2523 0912 0B       		.uleb128 0xb
 2524 0913 A4050000 		.4byte	.LASF160
 2525 0917 0A       		.byte	0xa
 2526 0918 8A       		.byte	0x8a
 2527 0919 A2000000 		.4byte	0xa2
ARM GAS  C:\Users\ISAKVO~1\AppData\Local\Temp\ccR1W42h.s 			page 80


 2528 091d 80       		.byte	0x80
 2529 091e 0B       		.uleb128 0xb
 2530 091f 90000000 		.4byte	.LASF161
 2531 0923 0A       		.byte	0xa
 2532 0924 8D       		.byte	0x8d
 2533 0925 CE000000 		.4byte	0xce
 2534 0929 84       		.byte	0x84
 2535 092a 0B       		.uleb128 0xb
 2536 092b 980D0000 		.4byte	.LASF162
 2537 092f 0A       		.byte	0xa
 2538 0930 8E       		.byte	0x8e
 2539 0931 CE000000 		.4byte	0xce
 2540 0935 88       		.byte	0x88
 2541 0936 0B       		.uleb128 0xb
 2542 0937 200A0000 		.4byte	.LASF163
 2543 093b 0A       		.byte	0xa
 2544 093c 8F       		.byte	0x8f
 2545 093d CE000000 		.4byte	0xce
 2546 0941 8C       		.byte	0x8c
 2547 0942 0B       		.uleb128 0xb
 2548 0943 960E0000 		.4byte	.LASF164
 2549 0947 0A       		.byte	0xa
 2550 0948 90       		.byte	0x90
 2551 0949 CE000000 		.4byte	0xce
 2552 094d 90       		.byte	0x90
 2553 094e 0B       		.uleb128 0xb
 2554 094f 8F0B0000 		.4byte	.LASF165
 2555 0953 0A       		.byte	0xa
 2556 0954 91       		.byte	0x91
 2557 0955 CE000000 		.4byte	0xce
 2558 0959 94       		.byte	0x94
 2559 095a 0B       		.uleb128 0xb
 2560 095b 22040000 		.4byte	.LASF166
 2561 095f 0A       		.byte	0xa
 2562 0960 92       		.byte	0x92
 2563 0961 CE000000 		.4byte	0xce
 2564 0965 98       		.byte	0x98
 2565 0966 0B       		.uleb128 0xb
 2566 0967 C20D0000 		.4byte	.LASF167
 2567 096b 0A       		.byte	0xa
 2568 096c 93       		.byte	0x93
 2569 096d CE000000 		.4byte	0xce
 2570 0971 9C       		.byte	0x9c
 2571 0972 0B       		.uleb128 0xb
 2572 0973 1D070000 		.4byte	.LASF168
 2573 0977 0A       		.byte	0xa
 2574 0978 94       		.byte	0x94
 2575 0979 CE000000 		.4byte	0xce
 2576 097d A0       		.byte	0xa0
 2577 097e 0B       		.uleb128 0xb
 2578 097f 830D0000 		.4byte	.LASF169
 2579 0983 0A       		.byte	0xa
 2580 0984 95       		.byte	0x95
 2581 0985 B8000000 		.4byte	0xb8
 2582 0989 A4       		.byte	0xa4
 2583 098a 0B       		.uleb128 0xb
 2584 098b 7A0B0000 		.4byte	.LASF170
ARM GAS  C:\Users\ISAKVO~1\AppData\Local\Temp\ccR1W42h.s 			page 81


 2585 098f 0A       		.byte	0xa
 2586 0990 96       		.byte	0x96
 2587 0991 B8000000 		.4byte	0xb8
 2588 0995 A6       		.byte	0xa6
 2589 0996 0B       		.uleb128 0xb
 2590 0997 E8030000 		.4byte	.LASF171
 2591 099b 0A       		.byte	0xa
 2592 099c 97       		.byte	0x97
 2593 099d B8000000 		.4byte	0xb8
 2594 09a1 A8       		.byte	0xa8
 2595 09a2 0B       		.uleb128 0xb
 2596 09a3 B6080000 		.4byte	.LASF172
 2597 09a7 0A       		.byte	0xa
 2598 09a8 98       		.byte	0x98
 2599 09a9 B8000000 		.4byte	0xb8
 2600 09ad AA       		.byte	0xaa
 2601 09ae 0B       		.uleb128 0xb
 2602 09af 80030000 		.4byte	.LASF173
 2603 09b3 0A       		.byte	0xa
 2604 09b4 99       		.byte	0x99
 2605 09b5 B8000000 		.4byte	0xb8
 2606 09b9 AC       		.byte	0xac
 2607 09ba 0B       		.uleb128 0xb
 2608 09bb 530A0000 		.4byte	.LASF174
 2609 09bf 0A       		.byte	0xa
 2610 09c0 9A       		.byte	0x9a
 2611 09c1 B8000000 		.4byte	0xb8
 2612 09c5 AE       		.byte	0xae
 2613 09c6 0B       		.uleb128 0xb
 2614 09c7 8E030000 		.4byte	.LASF175
 2615 09cb 0A       		.byte	0xa
 2616 09cc 9D       		.byte	0x9d
 2617 09cd B8000000 		.4byte	0xb8
 2618 09d1 B0       		.byte	0xb0
 2619 09d2 0B       		.uleb128 0xb
 2620 09d3 E90E0000 		.4byte	.LASF176
 2621 09d7 0A       		.byte	0xa
 2622 09d8 9E       		.byte	0x9e
 2623 09d9 CE000000 		.4byte	0xce
 2624 09dd B4       		.byte	0xb4
 2625 09de 00       		.byte	0
 2626 09df 04       		.uleb128 0x4
 2627 09e0 EF100000 		.4byte	.LASF177
 2628 09e4 0A       		.byte	0xa
 2629 09e5 9F       		.byte	0x9f
 2630 09e6 CE050000 		.4byte	0x5ce
 2631 09ea 0F       		.uleb128 0xf
 2632 09eb 04       		.byte	0x4
 2633 09ec F0090000 		.4byte	0x9f0
 2634 09f0 10       		.uleb128 0x10
 2635 09f1 0D       		.uleb128 0xd
 2636 09f2 8E0C0000 		.4byte	.LASF178
 2637 09f6 0B       		.byte	0xb
 2638 09f7 F601     		.2byte	0x1f6
 2639 09f9 FD090000 		.4byte	0x9fd
 2640 09fd 02       		.uleb128 0x2
 2641 09fe 01       		.byte	0x1
ARM GAS  C:\Users\ISAKVO~1\AppData\Local\Temp\ccR1W42h.s 			page 82


 2642 09ff 08       		.byte	0x8
 2643 0a00 90070000 		.4byte	.LASF179
 2644 0a04 02       		.uleb128 0x2
 2645 0a05 04       		.byte	0x4
 2646 0a06 04       		.byte	0x4
 2647 0a07 4E0E0000 		.4byte	.LASF180
 2648 0a0b 02       		.uleb128 0x2
 2649 0a0c 08       		.byte	0x8
 2650 0a0d 04       		.byte	0x4
 2651 0a0e 39110000 		.4byte	.LASF181
 2652 0a12 11       		.uleb128 0x11
 2653 0a13 04       		.byte	0x4
 2654 0a14 02       		.uleb128 0x2
 2655 0a15 01       		.byte	0x1
 2656 0a16 02       		.byte	0x2
 2657 0a17 99060000 		.4byte	.LASF182
 2658 0a1b 0F       		.uleb128 0xf
 2659 0a1c 04       		.byte	0x4
 2660 0a1d 210A0000 		.4byte	0xa21
 2661 0a21 12       		.uleb128 0x12
 2662 0a22 2C0A0000 		.4byte	0xa2c
 2663 0a26 13       		.uleb128 0x13
 2664 0a27 CE000000 		.4byte	0xce
 2665 0a2b 00       		.byte	0
 2666 0a2c 0D       		.uleb128 0xd
 2667 0a2d 81080000 		.4byte	.LASF183
 2668 0a31 05       		.byte	0x5
 2669 0a32 D901     		.2byte	0x1d9
 2670 0a34 1B0A0000 		.4byte	0xa1b
 2671 0a38 14       		.uleb128 0x14
 2672 0a39 5B000000 		.4byte	.LASF210
 2673 0a3d 38       		.byte	0x38
 2674 0a3e 05       		.byte	0x5
 2675 0a3f 7502     		.2byte	0x275
 2676 0a41 FC0A0000 		.4byte	0xafc
 2677 0a45 15       		.uleb128 0x15
 2678 0a46 C5000000 		.4byte	.LASF184
 2679 0a4a 05       		.byte	0x5
 2680 0a4b 7802     		.2byte	0x278
 2681 0a4d E0000000 		.4byte	0xe0
 2682 0a51 00       		.byte	0
 2683 0a52 15       		.uleb128 0x15
 2684 0a53 18060000 		.4byte	.LASF185
 2685 0a57 05       		.byte	0x5
 2686 0a58 7902     		.2byte	0x279
 2687 0a5a E0000000 		.4byte	0xe0
 2688 0a5e 04       		.byte	0x4
 2689 0a5f 15       		.uleb128 0x15
 2690 0a60 BC0A0000 		.4byte	.LASF186
 2691 0a64 05       		.byte	0x5
 2692 0a65 7B02     		.2byte	0x27b
 2693 0a67 120A0000 		.4byte	0xa12
 2694 0a6b 08       		.byte	0x8
 2695 0a6c 15       		.uleb128 0x15
 2696 0a6d F1020000 		.4byte	.LASF187
 2697 0a71 05       		.byte	0x5
 2698 0a72 7C02     		.2byte	0x27c
ARM GAS  C:\Users\ISAKVO~1\AppData\Local\Temp\ccR1W42h.s 			page 83


 2699 0a74 CE000000 		.4byte	0xce
 2700 0a78 0C       		.byte	0xc
 2701 0a79 15       		.uleb128 0x15
 2702 0a7a CC090000 		.4byte	.LASF188
 2703 0a7e 05       		.byte	0x5
 2704 0a7f 7D02     		.2byte	0x27d
 2705 0a81 E0000000 		.4byte	0xe0
 2706 0a85 10       		.byte	0x10
 2707 0a86 15       		.uleb128 0x15
 2708 0a87 BC070000 		.4byte	.LASF189
 2709 0a8b 05       		.byte	0x5
 2710 0a8c 7E02     		.2byte	0x27e
 2711 0a8e E0000000 		.4byte	0xe0
 2712 0a92 14       		.byte	0x14
 2713 0a93 15       		.uleb128 0x15
 2714 0a94 E8110000 		.4byte	.LASF190
 2715 0a98 05       		.byte	0x5
 2716 0a99 8002     		.2byte	0x280
 2717 0a9b 120A0000 		.4byte	0xa12
 2718 0a9f 18       		.byte	0x18
 2719 0aa0 15       		.uleb128 0x15
 2720 0aa1 2F120000 		.4byte	.LASF191
 2721 0aa5 05       		.byte	0x5
 2722 0aa6 8102     		.2byte	0x281
 2723 0aa8 CE000000 		.4byte	0xce
 2724 0aac 1C       		.byte	0x1c
 2725 0aad 15       		.uleb128 0x15
 2726 0aae 0D080000 		.4byte	.LASF192
 2727 0ab2 05       		.byte	0x5
 2728 0ab3 8202     		.2byte	0x282
 2729 0ab5 E0000000 		.4byte	0xe0
 2730 0ab9 20       		.byte	0x20
 2731 0aba 15       		.uleb128 0x15
 2732 0abb 770A0000 		.4byte	.LASF193
 2733 0abf 05       		.byte	0x5
 2734 0ac0 8402     		.2byte	0x284
 2735 0ac2 120A0000 		.4byte	0xa12
 2736 0ac6 24       		.byte	0x24
 2737 0ac7 15       		.uleb128 0x15
 2738 0ac8 0B0A0000 		.4byte	.LASF194
 2739 0acc 05       		.byte	0x5
 2740 0acd 8502     		.2byte	0x285
 2741 0acf CE000000 		.4byte	0xce
 2742 0ad3 28       		.byte	0x28
 2743 0ad4 15       		.uleb128 0x15
 2744 0ad5 DD0C0000 		.4byte	.LASF195
 2745 0ad9 05       		.byte	0x5
 2746 0ada 8602     		.2byte	0x286
 2747 0adc E0000000 		.4byte	0xe0
 2748 0ae0 2C       		.byte	0x2c
 2749 0ae1 15       		.uleb128 0x15
 2750 0ae2 5E060000 		.4byte	.LASF196
 2751 0ae6 05       		.byte	0x5
 2752 0ae7 8B02     		.2byte	0x28b
 2753 0ae9 2C0A0000 		.4byte	0xa2c
 2754 0aed 30       		.byte	0x30
 2755 0aee 15       		.uleb128 0x15
ARM GAS  C:\Users\ISAKVO~1\AppData\Local\Temp\ccR1W42h.s 			page 84


 2756 0aef 16080000 		.4byte	.LASF197
 2757 0af3 05       		.byte	0x5
 2758 0af4 8E02     		.2byte	0x28e
 2759 0af6 CE000000 		.4byte	0xce
 2760 0afa 34       		.byte	0x34
 2761 0afb 00       		.byte	0
 2762 0afc 0D       		.uleb128 0xd
 2763 0afd 4D0F0000 		.4byte	.LASF198
 2764 0b01 05       		.byte	0x5
 2765 0b02 9102     		.2byte	0x291
 2766 0b04 380A0000 		.4byte	0xa38
 2767 0b08 04       		.uleb128 0x4
 2768 0b09 15030000 		.4byte	.LASF199
 2769 0b0d 0C       		.byte	0xc
 2770 0b0e 07       		.byte	0x7
 2771 0b0f 2C000000 		.4byte	0x2c
 2772 0b13 04       		.uleb128 0x4
 2773 0b14 A5020000 		.4byte	.LASF200
 2774 0b18 0D       		.byte	0xd
 2775 0b19 2C       		.byte	0x2c
 2776 0b1a 82000000 		.4byte	0x82
 2777 0b1e 04       		.uleb128 0x4
 2778 0b1f E0030000 		.4byte	.LASF201
 2779 0b23 0D       		.byte	0xd
 2780 0b24 72       		.byte	0x72
 2781 0b25 82000000 		.4byte	0x82
 2782 0b29 0D       		.uleb128 0xd
 2783 0b2a 5D040000 		.4byte	.LASF202
 2784 0b2e 0E       		.byte	0xe
 2785 0b2f 6501     		.2byte	0x165
 2786 0b31 33000000 		.4byte	0x33
 2787 0b35 16       		.uleb128 0x16
 2788 0b36 04       		.byte	0x4
 2789 0b37 0D       		.byte	0xd
 2790 0b38 A6       		.byte	0xa6
 2791 0b39 540B0000 		.4byte	0xb54
 2792 0b3d 17       		.uleb128 0x17
 2793 0b3e 1E080000 		.4byte	.LASF203
 2794 0b42 0D       		.byte	0xd
 2795 0b43 A8       		.byte	0xa8
 2796 0b44 290B0000 		.4byte	0xb29
 2797 0b48 17       		.uleb128 0x17
 2798 0b49 9B0C0000 		.4byte	.LASF204
 2799 0b4d 0D       		.byte	0xd
 2800 0b4e A9       		.byte	0xa9
 2801 0b4f 540B0000 		.4byte	0xb54
 2802 0b53 00       		.byte	0
 2803 0b54 07       		.uleb128 0x7
 2804 0b55 53000000 		.4byte	0x53
 2805 0b59 640B0000 		.4byte	0xb64
 2806 0b5d 08       		.uleb128 0x8
 2807 0b5e D9000000 		.4byte	0xd9
 2808 0b62 03       		.byte	0x3
 2809 0b63 00       		.byte	0
 2810 0b64 0E       		.uleb128 0xe
 2811 0b65 08       		.byte	0x8
 2812 0b66 0D       		.byte	0xd
ARM GAS  C:\Users\ISAKVO~1\AppData\Local\Temp\ccR1W42h.s 			page 85


 2813 0b67 A3       		.byte	0xa3
 2814 0b68 850B0000 		.4byte	0xb85
 2815 0b6c 0B       		.uleb128 0xb
 2816 0b6d D7040000 		.4byte	.LASF205
 2817 0b71 0D       		.byte	0xd
 2818 0b72 A5       		.byte	0xa5
 2819 0b73 2C000000 		.4byte	0x2c
 2820 0b77 00       		.byte	0
 2821 0b78 0B       		.uleb128 0xb
 2822 0b79 3E070000 		.4byte	.LASF206
 2823 0b7d 0D       		.byte	0xd
 2824 0b7e AA       		.byte	0xaa
 2825 0b7f 350B0000 		.4byte	0xb35
 2826 0b83 04       		.byte	0x4
 2827 0b84 00       		.byte	0
 2828 0b85 04       		.uleb128 0x4
 2829 0b86 9F060000 		.4byte	.LASF207
 2830 0b8a 0D       		.byte	0xd
 2831 0b8b AB       		.byte	0xab
 2832 0b8c 640B0000 		.4byte	0xb64
 2833 0b90 04       		.uleb128 0x4
 2834 0b91 14000000 		.4byte	.LASF208
 2835 0b95 0D       		.byte	0xd
 2836 0b96 AF       		.byte	0xaf
 2837 0b97 080B0000 		.4byte	0xb08
 2838 0b9b 04       		.uleb128 0x4
 2839 0b9c AF0D0000 		.4byte	.LASF209
 2840 0ba0 0F       		.byte	0xf
 2841 0ba1 16       		.byte	0x16
 2842 0ba2 94000000 		.4byte	0x94
 2843 0ba6 18       		.uleb128 0x18
 2844 0ba7 43040000 		.4byte	.LASF211
 2845 0bab 18       		.byte	0x18
 2846 0bac 0F       		.byte	0xf
 2847 0bad 2D       		.byte	0x2d
 2848 0bae F90B0000 		.4byte	0xbf9
 2849 0bb2 0B       		.uleb128 0xb
 2850 0bb3 C7060000 		.4byte	.LASF212
 2851 0bb7 0F       		.byte	0xf
 2852 0bb8 2F       		.byte	0x2f
 2853 0bb9 F90B0000 		.4byte	0xbf9
 2854 0bbd 00       		.byte	0
 2855 0bbe 19       		.uleb128 0x19
 2856 0bbf 5F6B00   		.ascii	"_k\000"
 2857 0bc2 0F       		.byte	0xf
 2858 0bc3 30       		.byte	0x30
 2859 0bc4 2C000000 		.4byte	0x2c
 2860 0bc8 04       		.byte	0x4
 2861 0bc9 0B       		.uleb128 0xb
 2862 0bca 300D0000 		.4byte	.LASF213
 2863 0bce 0F       		.byte	0xf
 2864 0bcf 30       		.byte	0x30
 2865 0bd0 2C000000 		.4byte	0x2c
 2866 0bd4 08       		.byte	0x8
 2867 0bd5 0B       		.uleb128 0xb
 2868 0bd6 780C0000 		.4byte	.LASF214
 2869 0bda 0F       		.byte	0xf
ARM GAS  C:\Users\ISAKVO~1\AppData\Local\Temp\ccR1W42h.s 			page 86


 2870 0bdb 30       		.byte	0x30
 2871 0bdc 2C000000 		.4byte	0x2c
 2872 0be0 0C       		.byte	0xc
 2873 0be1 0B       		.uleb128 0xb
 2874 0be2 C0050000 		.4byte	.LASF215
 2875 0be6 0F       		.byte	0xf
 2876 0be7 30       		.byte	0x30
 2877 0be8 2C000000 		.4byte	0x2c
 2878 0bec 10       		.byte	0x10
 2879 0bed 19       		.uleb128 0x19
 2880 0bee 5F7800   		.ascii	"_x\000"
 2881 0bf1 0F       		.byte	0xf
 2882 0bf2 31       		.byte	0x31
 2883 0bf3 FF0B0000 		.4byte	0xbff
 2884 0bf7 14       		.byte	0x14
 2885 0bf8 00       		.byte	0
 2886 0bf9 0F       		.uleb128 0xf
 2887 0bfa 04       		.byte	0x4
 2888 0bfb A60B0000 		.4byte	0xba6
 2889 0bff 07       		.uleb128 0x7
 2890 0c00 9B0B0000 		.4byte	0xb9b
 2891 0c04 0F0C0000 		.4byte	0xc0f
 2892 0c08 08       		.uleb128 0x8
 2893 0c09 D9000000 		.4byte	0xd9
 2894 0c0d 00       		.byte	0
 2895 0c0e 00       		.byte	0
 2896 0c0f 18       		.uleb128 0x18
 2897 0c10 D80D0000 		.4byte	.LASF216
 2898 0c14 24       		.byte	0x24
 2899 0c15 0F       		.byte	0xf
 2900 0c16 35       		.byte	0x35
 2901 0c17 880C0000 		.4byte	0xc88
 2902 0c1b 0B       		.uleb128 0xb
 2903 0c1c 8D0E0000 		.4byte	.LASF217
 2904 0c20 0F       		.byte	0xf
 2905 0c21 37       		.byte	0x37
 2906 0c22 2C000000 		.4byte	0x2c
 2907 0c26 00       		.byte	0
 2908 0c27 0B       		.uleb128 0xb
 2909 0c28 ED090000 		.4byte	.LASF218
 2910 0c2c 0F       		.byte	0xf
 2911 0c2d 38       		.byte	0x38
 2912 0c2e 2C000000 		.4byte	0x2c
 2913 0c32 04       		.byte	0x4
 2914 0c33 0B       		.uleb128 0xb
 2915 0c34 9A040000 		.4byte	.LASF219
 2916 0c38 0F       		.byte	0xf
 2917 0c39 39       		.byte	0x39
 2918 0c3a 2C000000 		.4byte	0x2c
 2919 0c3e 08       		.byte	0x8
 2920 0c3f 0B       		.uleb128 0xb
 2921 0c40 95070000 		.4byte	.LASF220
 2922 0c44 0F       		.byte	0xf
 2923 0c45 3A       		.byte	0x3a
 2924 0c46 2C000000 		.4byte	0x2c
 2925 0c4a 0C       		.byte	0xc
 2926 0c4b 0B       		.uleb128 0xb
ARM GAS  C:\Users\ISAKVO~1\AppData\Local\Temp\ccR1W42h.s 			page 87


 2927 0c4c A00A0000 		.4byte	.LASF221
 2928 0c50 0F       		.byte	0xf
 2929 0c51 3B       		.byte	0x3b
 2930 0c52 2C000000 		.4byte	0x2c
 2931 0c56 10       		.byte	0x10
 2932 0c57 0B       		.uleb128 0xb
 2933 0c58 B70C0000 		.4byte	.LASF222
 2934 0c5c 0F       		.byte	0xf
 2935 0c5d 3C       		.byte	0x3c
 2936 0c5e 2C000000 		.4byte	0x2c
 2937 0c62 14       		.byte	0x14
 2938 0c63 0B       		.uleb128 0xb
 2939 0c64 53040000 		.4byte	.LASF223
 2940 0c68 0F       		.byte	0xf
 2941 0c69 3D       		.byte	0x3d
 2942 0c6a 2C000000 		.4byte	0x2c
 2943 0c6e 18       		.byte	0x18
 2944 0c6f 0B       		.uleb128 0xb
 2945 0c70 FD060000 		.4byte	.LASF224
 2946 0c74 0F       		.byte	0xf
 2947 0c75 3E       		.byte	0x3e
 2948 0c76 2C000000 		.4byte	0x2c
 2949 0c7a 1C       		.byte	0x1c
 2950 0c7b 0B       		.uleb128 0xb
 2951 0c7c 150A0000 		.4byte	.LASF225
 2952 0c80 0F       		.byte	0xf
 2953 0c81 3F       		.byte	0x3f
 2954 0c82 2C000000 		.4byte	0x2c
 2955 0c86 20       		.byte	0x20
 2956 0c87 00       		.byte	0
 2957 0c88 1A       		.uleb128 0x1a
 2958 0c89 CE000000 		.4byte	.LASF226
 2959 0c8d 0801     		.2byte	0x108
 2960 0c8f 0F       		.byte	0xf
 2961 0c90 48       		.byte	0x48
 2962 0c91 C80C0000 		.4byte	0xcc8
 2963 0c95 0B       		.uleb128 0xb
 2964 0c96 54100000 		.4byte	.LASF227
 2965 0c9a 0F       		.byte	0xf
 2966 0c9b 49       		.byte	0x49
 2967 0c9c C80C0000 		.4byte	0xcc8
 2968 0ca0 00       		.byte	0
 2969 0ca1 0B       		.uleb128 0xb
 2970 0ca2 810E0000 		.4byte	.LASF228
 2971 0ca6 0F       		.byte	0xf
 2972 0ca7 4A       		.byte	0x4a
 2973 0ca8 C80C0000 		.4byte	0xcc8
 2974 0cac 80       		.byte	0x80
 2975 0cad 0C       		.uleb128 0xc
 2976 0cae 1E110000 		.4byte	.LASF229
 2977 0cb2 0F       		.byte	0xf
 2978 0cb3 4C       		.byte	0x4c
 2979 0cb4 9B0B0000 		.4byte	0xb9b
 2980 0cb8 0001     		.2byte	0x100
 2981 0cba 0C       		.uleb128 0xc
 2982 0cbb D8110000 		.4byte	.LASF230
 2983 0cbf 0F       		.byte	0xf
ARM GAS  C:\Users\ISAKVO~1\AppData\Local\Temp\ccR1W42h.s 			page 88


 2984 0cc0 4F       		.byte	0x4f
 2985 0cc1 9B0B0000 		.4byte	0xb9b
 2986 0cc5 0401     		.2byte	0x104
 2987 0cc7 00       		.byte	0
 2988 0cc8 07       		.uleb128 0x7
 2989 0cc9 120A0000 		.4byte	0xa12
 2990 0ccd D80C0000 		.4byte	0xcd8
 2991 0cd1 08       		.uleb128 0x8
 2992 0cd2 D9000000 		.4byte	0xd9
 2993 0cd6 1F       		.byte	0x1f
 2994 0cd7 00       		.byte	0
 2995 0cd8 1A       		.uleb128 0x1a
 2996 0cd9 490B0000 		.4byte	.LASF231
 2997 0cdd 9001     		.2byte	0x190
 2998 0cdf 0F       		.byte	0xf
 2999 0ce0 5B       		.byte	0x5b
 3000 0ce1 160D0000 		.4byte	0xd16
 3001 0ce5 0B       		.uleb128 0xb
 3002 0ce6 C7060000 		.4byte	.LASF212
 3003 0cea 0F       		.byte	0xf
 3004 0ceb 5C       		.byte	0x5c
 3005 0cec 160D0000 		.4byte	0xd16
 3006 0cf0 00       		.byte	0
 3007 0cf1 0B       		.uleb128 0xb
 3008 0cf2 67060000 		.4byte	.LASF232
 3009 0cf6 0F       		.byte	0xf
 3010 0cf7 5D       		.byte	0x5d
 3011 0cf8 2C000000 		.4byte	0x2c
 3012 0cfc 04       		.byte	0x4
 3013 0cfd 0B       		.uleb128 0xb
 3014 0cfe 00040000 		.4byte	.LASF233
 3015 0d02 0F       		.byte	0xf
 3016 0d03 5F       		.byte	0x5f
 3017 0d04 1C0D0000 		.4byte	0xd1c
 3018 0d08 08       		.byte	0x8
 3019 0d09 0B       		.uleb128 0xb
 3020 0d0a CE000000 		.4byte	.LASF226
 3021 0d0e 0F       		.byte	0xf
 3022 0d0f 60       		.byte	0x60
 3023 0d10 880C0000 		.4byte	0xc88
 3024 0d14 88       		.byte	0x88
 3025 0d15 00       		.byte	0
 3026 0d16 0F       		.uleb128 0xf
 3027 0d17 04       		.byte	0x4
 3028 0d18 D80C0000 		.4byte	0xcd8
 3029 0d1c 07       		.uleb128 0x7
 3030 0d1d EA090000 		.4byte	0x9ea
 3031 0d21 2C0D0000 		.4byte	0xd2c
 3032 0d25 08       		.uleb128 0x8
 3033 0d26 D9000000 		.4byte	0xd9
 3034 0d2a 1F       		.byte	0x1f
 3035 0d2b 00       		.byte	0
 3036 0d2c 18       		.uleb128 0x18
 3037 0d2d CE0F0000 		.4byte	.LASF234
 3038 0d31 08       		.byte	0x8
 3039 0d32 0F       		.byte	0xf
 3040 0d33 73       		.byte	0x73
ARM GAS  C:\Users\ISAKVO~1\AppData\Local\Temp\ccR1W42h.s 			page 89


 3041 0d34 510D0000 		.4byte	0xd51
 3042 0d38 0B       		.uleb128 0xb
 3043 0d39 F4080000 		.4byte	.LASF235
 3044 0d3d 0F       		.byte	0xf
 3045 0d3e 74       		.byte	0x74
 3046 0d3f 510D0000 		.4byte	0xd51
 3047 0d43 00       		.byte	0
 3048 0d44 0B       		.uleb128 0xb
 3049 0d45 33110000 		.4byte	.LASF236
 3050 0d49 0F       		.byte	0xf
 3051 0d4a 75       		.byte	0x75
 3052 0d4b 2C000000 		.4byte	0x2c
 3053 0d4f 04       		.byte	0x4
 3054 0d50 00       		.byte	0
 3055 0d51 0F       		.uleb128 0xf
 3056 0d52 04       		.byte	0x4
 3057 0d53 53000000 		.4byte	0x53
 3058 0d57 18       		.uleb128 0x18
 3059 0d58 B8050000 		.4byte	.LASF237
 3060 0d5c 68       		.byte	0x68
 3061 0d5d 0F       		.byte	0xf
 3062 0d5e B3       		.byte	0xb3
 3063 0d5f 810E0000 		.4byte	0xe81
 3064 0d63 19       		.uleb128 0x19
 3065 0d64 5F7000   		.ascii	"_p\000"
 3066 0d67 0F       		.byte	0xf
 3067 0d68 B4       		.byte	0xb4
 3068 0d69 510D0000 		.4byte	0xd51
 3069 0d6d 00       		.byte	0
 3070 0d6e 19       		.uleb128 0x19
 3071 0d6f 5F7200   		.ascii	"_r\000"
 3072 0d72 0F       		.byte	0xf
 3073 0d73 B5       		.byte	0xb5
 3074 0d74 2C000000 		.4byte	0x2c
 3075 0d78 04       		.byte	0x4
 3076 0d79 19       		.uleb128 0x19
 3077 0d7a 5F7700   		.ascii	"_w\000"
 3078 0d7d 0F       		.byte	0xf
 3079 0d7e B6       		.byte	0xb6
 3080 0d7f 2C000000 		.4byte	0x2c
 3081 0d83 08       		.byte	0x8
 3082 0d84 0B       		.uleb128 0xb
 3083 0d85 B1010000 		.4byte	.LASF238
 3084 0d89 0F       		.byte	0xf
 3085 0d8a B7       		.byte	0xb7
 3086 0d8b 3A000000 		.4byte	0x3a
 3087 0d8f 0C       		.byte	0xc
 3088 0d90 0B       		.uleb128 0xb
 3089 0d91 2C090000 		.4byte	.LASF239
 3090 0d95 0F       		.byte	0xf
 3091 0d96 B8       		.byte	0xb8
 3092 0d97 3A000000 		.4byte	0x3a
 3093 0d9b 0E       		.byte	0xe
 3094 0d9c 19       		.uleb128 0x19
 3095 0d9d 5F626600 		.ascii	"_bf\000"
 3096 0da1 0F       		.byte	0xf
 3097 0da2 B9       		.byte	0xb9
ARM GAS  C:\Users\ISAKVO~1\AppData\Local\Temp\ccR1W42h.s 			page 90


 3098 0da3 2C0D0000 		.4byte	0xd2c
 3099 0da7 10       		.byte	0x10
 3100 0da8 0B       		.uleb128 0xb
 3101 0da9 A8010000 		.4byte	.LASF240
 3102 0dad 0F       		.byte	0xf
 3103 0dae BA       		.byte	0xba
 3104 0daf 2C000000 		.4byte	0x2c
 3105 0db3 18       		.byte	0x18
 3106 0db4 0B       		.uleb128 0xb
 3107 0db5 05040000 		.4byte	.LASF241
 3108 0db9 0F       		.byte	0xf
 3109 0dba C1       		.byte	0xc1
 3110 0dbb 120A0000 		.4byte	0xa12
 3111 0dbf 1C       		.byte	0x1c
 3112 0dc0 0B       		.uleb128 0xb
 3113 0dc1 5E030000 		.4byte	.LASF242
 3114 0dc5 0F       		.byte	0xf
 3115 0dc6 C3       		.byte	0xc3
 3116 0dc7 DD0F0000 		.4byte	0xfdd
 3117 0dcb 20       		.byte	0x20
 3118 0dcc 0B       		.uleb128 0xb
 3119 0dcd E4000000 		.4byte	.LASF243
 3120 0dd1 0F       		.byte	0xf
 3121 0dd2 C5       		.byte	0xc5
 3122 0dd3 0C100000 		.4byte	0x100c
 3123 0dd7 24       		.byte	0x24
 3124 0dd8 0B       		.uleb128 0xb
 3125 0dd9 07120000 		.4byte	.LASF244
 3126 0ddd 0F       		.byte	0xf
 3127 0dde C8       		.byte	0xc8
 3128 0ddf 30100000 		.4byte	0x1030
 3129 0de3 28       		.byte	0x28
 3130 0de4 0B       		.uleb128 0xb
 3131 0de5 42080000 		.4byte	.LASF245
 3132 0de9 0F       		.byte	0xf
 3133 0dea C9       		.byte	0xc9
 3134 0deb 4A100000 		.4byte	0x104a
 3135 0def 2C       		.byte	0x2c
 3136 0df0 19       		.uleb128 0x19
 3137 0df1 5F756200 		.ascii	"_ub\000"
 3138 0df5 0F       		.byte	0xf
 3139 0df6 CC       		.byte	0xcc
 3140 0df7 2C0D0000 		.4byte	0xd2c
 3141 0dfb 30       		.byte	0x30
 3142 0dfc 19       		.uleb128 0x19
 3143 0dfd 5F757000 		.ascii	"_up\000"
 3144 0e01 0F       		.byte	0xf
 3145 0e02 CD       		.byte	0xcd
 3146 0e03 510D0000 		.4byte	0xd51
 3147 0e07 38       		.byte	0x38
 3148 0e08 19       		.uleb128 0x19
 3149 0e09 5F757200 		.ascii	"_ur\000"
 3150 0e0d 0F       		.byte	0xf
 3151 0e0e CE       		.byte	0xce
 3152 0e0f 2C000000 		.4byte	0x2c
 3153 0e13 3C       		.byte	0x3c
 3154 0e14 0B       		.uleb128 0xb
ARM GAS  C:\Users\ISAKVO~1\AppData\Local\Temp\ccR1W42h.s 			page 91


 3155 0e15 EA050000 		.4byte	.LASF246
 3156 0e19 0F       		.byte	0xf
 3157 0e1a D1       		.byte	0xd1
 3158 0e1b 50100000 		.4byte	0x1050
 3159 0e1f 40       		.byte	0x40
 3160 0e20 0B       		.uleb128 0xb
 3161 0e21 8F110000 		.4byte	.LASF247
 3162 0e25 0F       		.byte	0xf
 3163 0e26 D2       		.byte	0xd2
 3164 0e27 60100000 		.4byte	0x1060
 3165 0e2b 43       		.byte	0x43
 3166 0e2c 19       		.uleb128 0x19
 3167 0e2d 5F6C6200 		.ascii	"_lb\000"
 3168 0e31 0F       		.byte	0xf
 3169 0e32 D5       		.byte	0xd5
 3170 0e33 2C0D0000 		.4byte	0xd2c
 3171 0e37 44       		.byte	0x44
 3172 0e38 0B       		.uleb128 0xb
 3173 0e39 FA070000 		.4byte	.LASF248
 3174 0e3d 0F       		.byte	0xf
 3175 0e3e D8       		.byte	0xd8
 3176 0e3f 2C000000 		.4byte	0x2c
 3177 0e43 4C       		.byte	0x4c
 3178 0e44 0B       		.uleb128 0xb
 3179 0e45 E2050000 		.4byte	.LASF249
 3180 0e49 0F       		.byte	0xf
 3181 0e4a D9       		.byte	0xd9
 3182 0e4b 130B0000 		.4byte	0xb13
 3183 0e4f 50       		.byte	0x50
 3184 0e50 0B       		.uleb128 0xb
 3185 0e51 950C0000 		.4byte	.LASF250
 3186 0e55 0F       		.byte	0xf
 3187 0e56 DC       		.byte	0xdc
 3188 0e57 9F0E0000 		.4byte	0xe9f
 3189 0e5b 54       		.byte	0x54
 3190 0e5c 0B       		.uleb128 0xb
 3191 0e5d 7D0D0000 		.4byte	.LASF251
 3192 0e61 0F       		.byte	0xf
 3193 0e62 E0       		.byte	0xe0
 3194 0e63 900B0000 		.4byte	0xb90
 3195 0e67 58       		.byte	0x58
 3196 0e68 0B       		.uleb128 0xb
 3197 0e69 510B0000 		.4byte	.LASF252
 3198 0e6d 0F       		.byte	0xf
 3199 0e6e E2       		.byte	0xe2
 3200 0e6f 850B0000 		.4byte	0xb85
 3201 0e73 5C       		.byte	0x5c
 3202 0e74 0B       		.uleb128 0xb
 3203 0e75 D0110000 		.4byte	.LASF253
 3204 0e79 0F       		.byte	0xf
 3205 0e7a E3       		.byte	0xe3
 3206 0e7b 2C000000 		.4byte	0x2c
 3207 0e7f 64       		.byte	0x64
 3208 0e80 00       		.byte	0
 3209 0e81 1B       		.uleb128 0x1b
 3210 0e82 2C000000 		.4byte	0x2c
 3211 0e86 9F0E0000 		.4byte	0xe9f
ARM GAS  C:\Users\ISAKVO~1\AppData\Local\Temp\ccR1W42h.s 			page 92


 3212 0e8a 13       		.uleb128 0x13
 3213 0e8b 9F0E0000 		.4byte	0xe9f
 3214 0e8f 13       		.uleb128 0x13
 3215 0e90 120A0000 		.4byte	0xa12
 3216 0e94 13       		.uleb128 0x13
 3217 0e95 D70F0000 		.4byte	0xfd7
 3218 0e99 13       		.uleb128 0x13
 3219 0e9a 2C000000 		.4byte	0x2c
 3220 0e9e 00       		.byte	0
 3221 0e9f 0F       		.uleb128 0xf
 3222 0ea0 04       		.byte	0x4
 3223 0ea1 A50E0000 		.4byte	0xea5
 3224 0ea5 1C       		.uleb128 0x1c
 3225 0ea6 5A0B0000 		.4byte	.LASF254
 3226 0eaa 2804     		.2byte	0x428
 3227 0eac 0F       		.byte	0xf
 3228 0ead 3802     		.2byte	0x238
 3229 0eaf D70F0000 		.4byte	0xfd7
 3230 0eb3 15       		.uleb128 0x15
 3231 0eb4 3C010000 		.4byte	.LASF255
 3232 0eb8 0F       		.byte	0xf
 3233 0eb9 3A02     		.2byte	0x23a
 3234 0ebb 2C000000 		.4byte	0x2c
 3235 0ebf 00       		.byte	0
 3236 0ec0 15       		.uleb128 0x15
 3237 0ec1 A0080000 		.4byte	.LASF256
 3238 0ec5 0F       		.byte	0xf
 3239 0ec6 3F02     		.2byte	0x23f
 3240 0ec8 B7100000 		.4byte	0x10b7
 3241 0ecc 04       		.byte	0x4
 3242 0ecd 15       		.uleb128 0x15
 3243 0ece B4030000 		.4byte	.LASF257
 3244 0ed2 0F       		.byte	0xf
 3245 0ed3 3F02     		.2byte	0x23f
 3246 0ed5 B7100000 		.4byte	0x10b7
 3247 0ed9 08       		.byte	0x8
 3248 0eda 15       		.uleb128 0x15
 3249 0edb 18120000 		.4byte	.LASF258
 3250 0edf 0F       		.byte	0xf
 3251 0ee0 3F02     		.2byte	0x23f
 3252 0ee2 B7100000 		.4byte	0x10b7
 3253 0ee6 0C       		.byte	0xc
 3254 0ee7 15       		.uleb128 0x15
 3255 0ee8 610A0000 		.4byte	.LASF259
 3256 0eec 0F       		.byte	0xf
 3257 0eed 4102     		.2byte	0x241
 3258 0eef 2C000000 		.4byte	0x2c
 3259 0ef3 10       		.byte	0x10
 3260 0ef4 15       		.uleb128 0x15
 3261 0ef5 21060000 		.4byte	.LASF260
 3262 0ef9 0F       		.byte	0xf
 3263 0efa 4202     		.2byte	0x242
 3264 0efc 99120000 		.4byte	0x1299
 3265 0f00 14       		.byte	0x14
 3266 0f01 15       		.uleb128 0x15
 3267 0f02 3C0E0000 		.4byte	.LASF261
 3268 0f06 0F       		.byte	0xf
ARM GAS  C:\Users\ISAKVO~1\AppData\Local\Temp\ccR1W42h.s 			page 93


 3269 0f07 4402     		.2byte	0x244
 3270 0f09 2C000000 		.4byte	0x2c
 3271 0f0d 30       		.byte	0x30
 3272 0f0e 15       		.uleb128 0x15
 3273 0f0f 7E0C0000 		.4byte	.LASF262
 3274 0f13 0F       		.byte	0xf
 3275 0f14 4502     		.2byte	0x245
 3276 0f16 01100000 		.4byte	0x1001
 3277 0f1a 34       		.byte	0x34
 3278 0f1b 15       		.uleb128 0x15
 3279 0f1c B70D0000 		.4byte	.LASF263
 3280 0f20 0F       		.byte	0xf
 3281 0f21 4702     		.2byte	0x247
 3282 0f23 2C000000 		.4byte	0x2c
 3283 0f27 38       		.byte	0x38
 3284 0f28 15       		.uleb128 0x15
 3285 0f29 A4090000 		.4byte	.LASF264
 3286 0f2d 0F       		.byte	0xf
 3287 0f2e 4902     		.2byte	0x249
 3288 0f30 B4120000 		.4byte	0x12b4
 3289 0f34 3C       		.byte	0x3c
 3290 0f35 15       		.uleb128 0x15
 3291 0f36 64040000 		.4byte	.LASF265
 3292 0f3a 0F       		.byte	0xf
 3293 0f3b 4C02     		.2byte	0x24c
 3294 0f3d F90B0000 		.4byte	0xbf9
 3295 0f41 40       		.byte	0x40
 3296 0f42 15       		.uleb128 0x15
 3297 0f43 03080000 		.4byte	.LASF266
 3298 0f47 0F       		.byte	0xf
 3299 0f48 4D02     		.2byte	0x24d
 3300 0f4a 2C000000 		.4byte	0x2c
 3301 0f4e 44       		.byte	0x44
 3302 0f4f 15       		.uleb128 0x15
 3303 0f50 62070000 		.4byte	.LASF267
 3304 0f54 0F       		.byte	0xf
 3305 0f55 4E02     		.2byte	0x24e
 3306 0f57 F90B0000 		.4byte	0xbf9
 3307 0f5b 48       		.byte	0x48
 3308 0f5c 15       		.uleb128 0x15
 3309 0f5d FA080000 		.4byte	.LASF268
 3310 0f61 0F       		.byte	0xf
 3311 0f62 4F02     		.2byte	0x24f
 3312 0f64 BA120000 		.4byte	0x12ba
 3313 0f68 4C       		.byte	0x4c
 3314 0f69 15       		.uleb128 0x15
 3315 0f6a 280D0000 		.4byte	.LASF269
 3316 0f6e 0F       		.byte	0xf
 3317 0f6f 5202     		.2byte	0x252
 3318 0f71 2C000000 		.4byte	0x2c
 3319 0f75 50       		.byte	0x50
 3320 0f76 15       		.uleb128 0x15
 3321 0f77 C80E0000 		.4byte	.LASF270
 3322 0f7b 0F       		.byte	0xf
 3323 0f7c 5302     		.2byte	0x253
 3324 0f7e D70F0000 		.4byte	0xfd7
 3325 0f82 54       		.byte	0x54
ARM GAS  C:\Users\ISAKVO~1\AppData\Local\Temp\ccR1W42h.s 			page 94


 3326 0f83 15       		.uleb128 0x15
 3327 0f84 120D0000 		.4byte	.LASF271
 3328 0f88 0F       		.byte	0xf
 3329 0f89 7602     		.2byte	0x276
 3330 0f8b 77120000 		.4byte	0x1277
 3331 0f8f 58       		.byte	0x58
 3332 0f90 1D       		.uleb128 0x1d
 3333 0f91 490B0000 		.4byte	.LASF231
 3334 0f95 0F       		.byte	0xf
 3335 0f96 7A02     		.2byte	0x27a
 3336 0f98 160D0000 		.4byte	0xd16
 3337 0f9c 4801     		.2byte	0x148
 3338 0f9e 1D       		.uleb128 0x1d
 3339 0f9f 070B0000 		.4byte	.LASF272
 3340 0fa3 0F       		.byte	0xf
 3341 0fa4 7B02     		.2byte	0x27b
 3342 0fa6 D80C0000 		.4byte	0xcd8
 3343 0faa 4C01     		.2byte	0x14c
 3344 0fac 1D       		.uleb128 0x1d
 3345 0fad 5D080000 		.4byte	.LASF273
 3346 0fb1 0F       		.byte	0xf
 3347 0fb2 7F02     		.2byte	0x27f
 3348 0fb4 CB120000 		.4byte	0x12cb
 3349 0fb8 DC02     		.2byte	0x2dc
 3350 0fba 1D       		.uleb128 0x1d
 3351 0fbb F30F0000 		.4byte	.LASF274
 3352 0fbf 0F       		.byte	0xf
 3353 0fc0 8402     		.2byte	0x284
 3354 0fc2 7C100000 		.4byte	0x107c
 3355 0fc6 E002     		.2byte	0x2e0
 3356 0fc8 1D       		.uleb128 0x1d
 3357 0fc9 730C0000 		.4byte	.LASF275
 3358 0fcd 0F       		.byte	0xf
 3359 0fce 8502     		.2byte	0x285
 3360 0fd0 D7120000 		.4byte	0x12d7
 3361 0fd4 EC02     		.2byte	0x2ec
 3362 0fd6 00       		.byte	0
 3363 0fd7 0F       		.uleb128 0xf
 3364 0fd8 04       		.byte	0x4
 3365 0fd9 FD090000 		.4byte	0x9fd
 3366 0fdd 0F       		.uleb128 0xf
 3367 0fde 04       		.byte	0x4
 3368 0fdf 810E0000 		.4byte	0xe81
 3369 0fe3 1B       		.uleb128 0x1b
 3370 0fe4 2C000000 		.4byte	0x2c
 3371 0fe8 01100000 		.4byte	0x1001
 3372 0fec 13       		.uleb128 0x13
 3373 0fed 9F0E0000 		.4byte	0xe9f
 3374 0ff1 13       		.uleb128 0x13
 3375 0ff2 120A0000 		.4byte	0xa12
 3376 0ff6 13       		.uleb128 0x13
 3377 0ff7 01100000 		.4byte	0x1001
 3378 0ffb 13       		.uleb128 0x13
 3379 0ffc 2C000000 		.4byte	0x2c
 3380 1000 00       		.byte	0
 3381 1001 0F       		.uleb128 0xf
 3382 1002 04       		.byte	0x4
ARM GAS  C:\Users\ISAKVO~1\AppData\Local\Temp\ccR1W42h.s 			page 95


 3383 1003 07100000 		.4byte	0x1007
 3384 1007 06       		.uleb128 0x6
 3385 1008 FD090000 		.4byte	0x9fd
 3386 100c 0F       		.uleb128 0xf
 3387 100d 04       		.byte	0x4
 3388 100e E30F0000 		.4byte	0xfe3
 3389 1012 1B       		.uleb128 0x1b
 3390 1013 1E0B0000 		.4byte	0xb1e
 3391 1017 30100000 		.4byte	0x1030
 3392 101b 13       		.uleb128 0x13
 3393 101c 9F0E0000 		.4byte	0xe9f
 3394 1020 13       		.uleb128 0x13
 3395 1021 120A0000 		.4byte	0xa12
 3396 1025 13       		.uleb128 0x13
 3397 1026 1E0B0000 		.4byte	0xb1e
 3398 102a 13       		.uleb128 0x13
 3399 102b 2C000000 		.4byte	0x2c
 3400 102f 00       		.byte	0
 3401 1030 0F       		.uleb128 0xf
 3402 1031 04       		.byte	0x4
 3403 1032 12100000 		.4byte	0x1012
 3404 1036 1B       		.uleb128 0x1b
 3405 1037 2C000000 		.4byte	0x2c
 3406 103b 4A100000 		.4byte	0x104a
 3407 103f 13       		.uleb128 0x13
 3408 1040 9F0E0000 		.4byte	0xe9f
 3409 1044 13       		.uleb128 0x13
 3410 1045 120A0000 		.4byte	0xa12
 3411 1049 00       		.byte	0
 3412 104a 0F       		.uleb128 0xf
 3413 104b 04       		.byte	0x4
 3414 104c 36100000 		.4byte	0x1036
 3415 1050 07       		.uleb128 0x7
 3416 1051 53000000 		.4byte	0x53
 3417 1055 60100000 		.4byte	0x1060
 3418 1059 08       		.uleb128 0x8
 3419 105a D9000000 		.4byte	0xd9
 3420 105e 02       		.byte	0x2
 3421 105f 00       		.byte	0
 3422 1060 07       		.uleb128 0x7
 3423 1061 53000000 		.4byte	0x53
 3424 1065 70100000 		.4byte	0x1070
 3425 1069 08       		.uleb128 0x8
 3426 106a D9000000 		.4byte	0xd9
 3427 106e 00       		.byte	0
 3428 106f 00       		.byte	0
 3429 1070 0D       		.uleb128 0xd
 3430 1071 DB050000 		.4byte	.LASF276
 3431 1075 0F       		.byte	0xf
 3432 1076 1D01     		.2byte	0x11d
 3433 1078 570D0000 		.4byte	0xd57
 3434 107c 14       		.uleb128 0x14
 3435 107d ED0F0000 		.4byte	.LASF277
 3436 1081 0C       		.byte	0xc
 3437 1082 0F       		.byte	0xf
 3438 1083 2101     		.2byte	0x121
 3439 1085 B1100000 		.4byte	0x10b1
ARM GAS  C:\Users\ISAKVO~1\AppData\Local\Temp\ccR1W42h.s 			page 96


 3440 1089 15       		.uleb128 0x15
 3441 108a C7060000 		.4byte	.LASF212
 3442 108e 0F       		.byte	0xf
 3443 108f 2301     		.2byte	0x123
 3444 1091 B1100000 		.4byte	0x10b1
 3445 1095 00       		.byte	0
 3446 1096 15       		.uleb128 0x15
 3447 1097 350E0000 		.4byte	.LASF278
 3448 109b 0F       		.byte	0xf
 3449 109c 2401     		.2byte	0x124
 3450 109e 2C000000 		.4byte	0x2c
 3451 10a2 04       		.byte	0x4
 3452 10a3 15       		.uleb128 0x15
 3453 10a4 29120000 		.4byte	.LASF279
 3454 10a8 0F       		.byte	0xf
 3455 10a9 2501     		.2byte	0x125
 3456 10ab B7100000 		.4byte	0x10b7
 3457 10af 08       		.byte	0x8
 3458 10b0 00       		.byte	0
 3459 10b1 0F       		.uleb128 0xf
 3460 10b2 04       		.byte	0x4
 3461 10b3 7C100000 		.4byte	0x107c
 3462 10b7 0F       		.uleb128 0xf
 3463 10b8 04       		.byte	0x4
 3464 10b9 70100000 		.4byte	0x1070
 3465 10bd 14       		.uleb128 0x14
 3466 10be 10050000 		.4byte	.LASF280
 3467 10c2 0E       		.byte	0xe
 3468 10c3 0F       		.byte	0xf
 3469 10c4 3D01     		.2byte	0x13d
 3470 10c6 F2100000 		.4byte	0x10f2
 3471 10ca 15       		.uleb128 0x15
 3472 10cb EE110000 		.4byte	.LASF281
 3473 10cf 0F       		.byte	0xf
 3474 10d0 3E01     		.2byte	0x13e
 3475 10d2 F2100000 		.4byte	0x10f2
 3476 10d6 00       		.byte	0
 3477 10d7 15       		.uleb128 0x15
 3478 10d8 79060000 		.4byte	.LASF282
 3479 10dc 0F       		.byte	0xf
 3480 10dd 3F01     		.2byte	0x13f
 3481 10df F2100000 		.4byte	0x10f2
 3482 10e3 06       		.byte	0x6
 3483 10e4 15       		.uleb128 0x15
 3484 10e5 04090000 		.4byte	.LASF283
 3485 10e9 0F       		.byte	0xf
 3486 10ea 4001     		.2byte	0x140
 3487 10ec 70000000 		.4byte	0x70
 3488 10f0 0C       		.byte	0xc
 3489 10f1 00       		.byte	0
 3490 10f2 07       		.uleb128 0x7
 3491 10f3 70000000 		.4byte	0x70
 3492 10f7 02110000 		.4byte	0x1102
 3493 10fb 08       		.uleb128 0x8
 3494 10fc D9000000 		.4byte	0xd9
 3495 1100 02       		.byte	0x2
 3496 1101 00       		.byte	0
ARM GAS  C:\Users\ISAKVO~1\AppData\Local\Temp\ccR1W42h.s 			page 97


 3497 1102 1E       		.uleb128 0x1e
 3498 1103 D0       		.byte	0xd0
 3499 1104 0F       		.byte	0xf
 3500 1105 5702     		.2byte	0x257
 3501 1107 03120000 		.4byte	0x1203
 3502 110b 15       		.uleb128 0x15
 3503 110c 95110000 		.4byte	.LASF284
 3504 1110 0F       		.byte	0xf
 3505 1111 5902     		.2byte	0x259
 3506 1113 33000000 		.4byte	0x33
 3507 1117 00       		.byte	0
 3508 1118 15       		.uleb128 0x15
 3509 1119 0C100000 		.4byte	.LASF285
 3510 111d 0F       		.byte	0xf
 3511 111e 5A02     		.2byte	0x25a
 3512 1120 D70F0000 		.4byte	0xfd7
 3513 1124 04       		.byte	0x4
 3514 1125 15       		.uleb128 0x15
 3515 1126 6C060000 		.4byte	.LASF286
 3516 112a 0F       		.byte	0xf
 3517 112b 5B02     		.2byte	0x25b
 3518 112d 03120000 		.4byte	0x1203
 3519 1131 08       		.byte	0x8
 3520 1132 15       		.uleb128 0x15
 3521 1133 EE0C0000 		.4byte	.LASF287
 3522 1137 0F       		.byte	0xf
 3523 1138 5C02     		.2byte	0x25c
 3524 113a 0F0C0000 		.4byte	0xc0f
 3525 113e 24       		.byte	0x24
 3526 113f 15       		.uleb128 0x15
 3527 1140 A7080000 		.4byte	.LASF288
 3528 1144 0F       		.byte	0xf
 3529 1145 5D02     		.2byte	0x25d
 3530 1147 2C000000 		.4byte	0x2c
 3531 114b 48       		.byte	0x48
 3532 114c 15       		.uleb128 0x15
 3533 114d F4110000 		.4byte	.LASF289
 3534 1151 0F       		.byte	0xf
 3535 1152 5E02     		.2byte	0x25e
 3536 1154 25000000 		.4byte	0x25
 3537 1158 50       		.byte	0x50
 3538 1159 15       		.uleb128 0x15
 3539 115a 1F010000 		.4byte	.LASF290
 3540 115e 0F       		.byte	0xf
 3541 115f 5F02     		.2byte	0x25f
 3542 1161 BD100000 		.4byte	0x10bd
 3543 1165 58       		.byte	0x58
 3544 1166 15       		.uleb128 0x15
 3545 1167 78070000 		.4byte	.LASF291
 3546 116b 0F       		.byte	0xf
 3547 116c 6002     		.2byte	0x260
 3548 116e 850B0000 		.4byte	0xb85
 3549 1172 68       		.byte	0x68
 3550 1173 15       		.uleb128 0x15
 3551 1174 19100000 		.4byte	.LASF292
 3552 1178 0F       		.byte	0xf
 3553 1179 6102     		.2byte	0x261
ARM GAS  C:\Users\ISAKVO~1\AppData\Local\Temp\ccR1W42h.s 			page 98


 3554 117b 850B0000 		.4byte	0xb85
 3555 117f 70       		.byte	0x70
 3556 1180 15       		.uleb128 0x15
 3557 1181 11010000 		.4byte	.LASF293
 3558 1185 0F       		.byte	0xf
 3559 1186 6202     		.2byte	0x262
 3560 1188 850B0000 		.4byte	0xb85
 3561 118c 78       		.byte	0x78
 3562 118d 15       		.uleb128 0x15
 3563 118e 380D0000 		.4byte	.LASF294
 3564 1192 0F       		.byte	0xf
 3565 1193 6302     		.2byte	0x263
 3566 1195 13120000 		.4byte	0x1213
 3567 1199 80       		.byte	0x80
 3568 119a 15       		.uleb128 0x15
 3569 119b 60010000 		.4byte	.LASF295
 3570 119f 0F       		.byte	0xf
 3571 11a0 6402     		.2byte	0x264
 3572 11a2 23120000 		.4byte	0x1223
 3573 11a6 88       		.byte	0x88
 3574 11a7 15       		.uleb128 0x15
 3575 11a8 350F0000 		.4byte	.LASF296
 3576 11ac 0F       		.byte	0xf
 3577 11ad 6502     		.2byte	0x265
 3578 11af 2C000000 		.4byte	0x2c
 3579 11b3 A0       		.byte	0xa0
 3580 11b4 15       		.uleb128 0x15
 3581 11b5 72030000 		.4byte	.LASF297
 3582 11b9 0F       		.byte	0xf
 3583 11ba 6602     		.2byte	0x266
 3584 11bc 850B0000 		.4byte	0xb85
 3585 11c0 A4       		.byte	0xa4
 3586 11c1 15       		.uleb128 0x15
 3587 11c2 AD070000 		.4byte	.LASF298
 3588 11c6 0F       		.byte	0xf
 3589 11c7 6702     		.2byte	0x267
 3590 11c9 850B0000 		.4byte	0xb85
 3591 11cd AC       		.byte	0xac
 3592 11ce 15       		.uleb128 0x15
 3593 11cf 4C050000 		.4byte	.LASF299
 3594 11d3 0F       		.byte	0xf
 3595 11d4 6802     		.2byte	0x268
 3596 11d6 850B0000 		.4byte	0xb85
 3597 11da B4       		.byte	0xb4
 3598 11db 15       		.uleb128 0x15
 3599 11dc 9C030000 		.4byte	.LASF300
 3600 11e0 0F       		.byte	0xf
 3601 11e1 6902     		.2byte	0x269
 3602 11e3 850B0000 		.4byte	0xb85
 3603 11e7 BC       		.byte	0xbc
 3604 11e8 15       		.uleb128 0x15
 3605 11e9 67070000 		.4byte	.LASF301
 3606 11ed 0F       		.byte	0xf
 3607 11ee 6A02     		.2byte	0x26a
 3608 11f0 850B0000 		.4byte	0xb85
 3609 11f4 C4       		.byte	0xc4
 3610 11f5 15       		.uleb128 0x15
ARM GAS  C:\Users\ISAKVO~1\AppData\Local\Temp\ccR1W42h.s 			page 99


 3611 11f6 660A0000 		.4byte	.LASF302
 3612 11fa 0F       		.byte	0xf
 3613 11fb 6B02     		.2byte	0x26b
 3614 11fd 2C000000 		.4byte	0x2c
 3615 1201 CC       		.byte	0xcc
 3616 1202 00       		.byte	0
 3617 1203 07       		.uleb128 0x7
 3618 1204 FD090000 		.4byte	0x9fd
 3619 1208 13120000 		.4byte	0x1213
 3620 120c 08       		.uleb128 0x8
 3621 120d D9000000 		.4byte	0xd9
 3622 1211 19       		.byte	0x19
 3623 1212 00       		.byte	0
 3624 1213 07       		.uleb128 0x7
 3625 1214 FD090000 		.4byte	0x9fd
 3626 1218 23120000 		.4byte	0x1223
 3627 121c 08       		.uleb128 0x8
 3628 121d D9000000 		.4byte	0xd9
 3629 1221 07       		.byte	0x7
 3630 1222 00       		.byte	0
 3631 1223 07       		.uleb128 0x7
 3632 1224 FD090000 		.4byte	0x9fd
 3633 1228 33120000 		.4byte	0x1233
 3634 122c 08       		.uleb128 0x8
 3635 122d D9000000 		.4byte	0xd9
 3636 1231 17       		.byte	0x17
 3637 1232 00       		.byte	0
 3638 1233 1E       		.uleb128 0x1e
 3639 1234 F0       		.byte	0xf0
 3640 1235 0F       		.byte	0xf
 3641 1236 7002     		.2byte	0x270
 3642 1238 57120000 		.4byte	0x1257
 3643 123c 15       		.uleb128 0x15
 3644 123d 3D050000 		.4byte	.LASF303
 3645 1241 0F       		.byte	0xf
 3646 1242 7302     		.2byte	0x273
 3647 1244 57120000 		.4byte	0x1257
 3648 1248 00       		.byte	0
 3649 1249 15       		.uleb128 0x15
 3650 124a 20120000 		.4byte	.LASF304
 3651 124e 0F       		.byte	0xf
 3652 124f 7402     		.2byte	0x274
 3653 1251 67120000 		.4byte	0x1267
 3654 1255 78       		.byte	0x78
 3655 1256 00       		.byte	0
 3656 1257 07       		.uleb128 0x7
 3657 1258 510D0000 		.4byte	0xd51
 3658 125c 67120000 		.4byte	0x1267
 3659 1260 08       		.uleb128 0x8
 3660 1261 D9000000 		.4byte	0xd9
 3661 1265 1D       		.byte	0x1d
 3662 1266 00       		.byte	0
 3663 1267 07       		.uleb128 0x7
 3664 1268 33000000 		.4byte	0x33
 3665 126c 77120000 		.4byte	0x1277
 3666 1270 08       		.uleb128 0x8
 3667 1271 D9000000 		.4byte	0xd9
ARM GAS  C:\Users\ISAKVO~1\AppData\Local\Temp\ccR1W42h.s 			page 100


 3668 1275 1D       		.byte	0x1d
 3669 1276 00       		.byte	0
 3670 1277 1F       		.uleb128 0x1f
 3671 1278 F0       		.byte	0xf0
 3672 1279 0F       		.byte	0xf
 3673 127a 5502     		.2byte	0x255
 3674 127c 99120000 		.4byte	0x1299
 3675 1280 20       		.uleb128 0x20
 3676 1281 5A0B0000 		.4byte	.LASF254
 3677 1285 0F       		.byte	0xf
 3678 1286 6C02     		.2byte	0x26c
 3679 1288 02110000 		.4byte	0x1102
 3680 128c 20       		.uleb128 0x20
 3681 128d BB040000 		.4byte	.LASF305
 3682 1291 0F       		.byte	0xf
 3683 1292 7502     		.2byte	0x275
 3684 1294 33120000 		.4byte	0x1233
 3685 1298 00       		.byte	0
 3686 1299 07       		.uleb128 0x7
 3687 129a FD090000 		.4byte	0x9fd
 3688 129e A9120000 		.4byte	0x12a9
 3689 12a2 08       		.uleb128 0x8
 3690 12a3 D9000000 		.4byte	0xd9
 3691 12a7 18       		.byte	0x18
 3692 12a8 00       		.byte	0
 3693 12a9 12       		.uleb128 0x12
 3694 12aa B4120000 		.4byte	0x12b4
 3695 12ae 13       		.uleb128 0x13
 3696 12af 9F0E0000 		.4byte	0xe9f
 3697 12b3 00       		.byte	0
 3698 12b4 0F       		.uleb128 0xf
 3699 12b5 04       		.byte	0x4
 3700 12b6 A9120000 		.4byte	0x12a9
 3701 12ba 0F       		.uleb128 0xf
 3702 12bb 04       		.byte	0x4
 3703 12bc F90B0000 		.4byte	0xbf9
 3704 12c0 12       		.uleb128 0x12
 3705 12c1 CB120000 		.4byte	0x12cb
 3706 12c5 13       		.uleb128 0x13
 3707 12c6 2C000000 		.4byte	0x2c
 3708 12ca 00       		.byte	0
 3709 12cb 0F       		.uleb128 0xf
 3710 12cc 04       		.byte	0x4
 3711 12cd D1120000 		.4byte	0x12d1
 3712 12d1 0F       		.uleb128 0xf
 3713 12d2 04       		.byte	0x4
 3714 12d3 C0120000 		.4byte	0x12c0
 3715 12d7 07       		.uleb128 0x7
 3716 12d8 70100000 		.4byte	0x1070
 3717 12dc E7120000 		.4byte	0x12e7
 3718 12e0 08       		.uleb128 0x8
 3719 12e1 D9000000 		.4byte	0xd9
 3720 12e5 02       		.byte	0x2
 3721 12e6 00       		.byte	0
 3722 12e7 21       		.uleb128 0x21
 3723 12e8 75333200 		.ascii	"u32\000"
 3724 12ec 10       		.byte	0x10
ARM GAS  C:\Users\ISAKVO~1\AppData\Local\Temp\ccR1W42h.s 			page 101


 3725 12ed 0C       		.byte	0xc
 3726 12ee CE000000 		.4byte	0xce
 3727 12f2 21       		.uleb128 0x21
 3728 12f3 753800   		.ascii	"u8\000"
 3729 12f6 10       		.byte	0x10
 3730 12f7 0E       		.byte	0xe
 3731 12f8 A2000000 		.4byte	0xa2
 3732 12fc 22       		.uleb128 0x22
 3733 12fd 350A0000 		.4byte	.LASF308
 3734 1301 01       		.byte	0x1
 3735 1302 53000000 		.4byte	0x53
 3736 1306 10       		.byte	0x10
 3737 1307 14       		.byte	0x14
 3738 1308 1F130000 		.4byte	0x131f
 3739 130c 23       		.uleb128 0x23
 3740 130d EE0D0000 		.4byte	.LASF306
 3741 1311 00       		.byte	0
 3742 1312 24       		.uleb128 0x24
 3743 1313 4E4F4400 		.ascii	"NOD\000"
 3744 1317 01       		.byte	0x1
 3745 1318 23       		.uleb128 0x23
 3746 1319 6A0B0000 		.4byte	.LASF307
 3747 131d FF       		.byte	0xff
 3748 131e 00       		.byte	0
 3749 131f 22       		.uleb128 0x22
 3750 1320 D5100000 		.4byte	.LASF309
 3751 1324 01       		.byte	0x1
 3752 1325 53000000 		.4byte	0x53
 3753 1329 10       		.byte	0x10
 3754 132a 1B       		.byte	0x1b
 3755 132b 48130000 		.4byte	0x1348
 3756 132f 23       		.uleb128 0x23
 3757 1330 E0110000 		.4byte	.LASF310
 3758 1334 00       		.byte	0
 3759 1335 23       		.uleb128 0x23
 3760 1336 FD050000 		.4byte	.LASF311
 3761 133a 01       		.byte	0x1
 3762 133b 23       		.uleb128 0x23
 3763 133c 060C0000 		.4byte	.LASF312
 3764 1340 02       		.byte	0x2
 3765 1341 23       		.uleb128 0x23
 3766 1342 7E040000 		.4byte	.LASF313
 3767 1346 03       		.byte	0x3
 3768 1347 00       		.byte	0
 3769 1348 04       		.uleb128 0x4
 3770 1349 59110000 		.4byte	.LASF314
 3771 134d 10       		.byte	0x10
 3772 134e 21       		.byte	0x21
 3773 134f 1F130000 		.4byte	0x131f
 3774 1353 25       		.uleb128 0x25
 3775 1354 FF020000 		.4byte	.LASF317
 3776 1358 11       		.byte	0x11
 3777 1359 5001     		.2byte	0x150
 3778 135b 03       		.byte	0x3
 3779 135c 79130000 		.4byte	0x1379
 3780 1360 26       		.uleb128 0x26
 3781 1361 E6090000 		.4byte	.LASF315
ARM GAS  C:\Users\ISAKVO~1\AppData\Local\Temp\ccR1W42h.s 			page 102


 3782 1365 11       		.byte	0x11
 3783 1366 5001     		.2byte	0x150
 3784 1368 120A0000 		.4byte	0xa12
 3785 136c 26       		.uleb128 0x26
 3786 136d F6090000 		.4byte	.LASF316
 3787 1371 11       		.byte	0x11
 3788 1372 5001     		.2byte	0x150
 3789 1374 CE000000 		.4byte	0xce
 3790 1378 00       		.byte	0
 3791 1379 27       		.uleb128 0x27
 3792 137a AB030000 		.4byte	.LASF318
 3793 137e 04       		.byte	0x4
 3794 137f 43       		.byte	0x43
 3795 1380 03       		.byte	0x3
 3796 1381 91130000 		.4byte	0x1391
 3797 1385 28       		.uleb128 0x28
 3798 1386 6E0E0000 		.4byte	.LASF319
 3799 138a 04       		.byte	0x4
 3800 138b 43       		.byte	0x43
 3801 138c 91130000 		.4byte	0x1391
 3802 1390 00       		.byte	0
 3803 1391 0F       		.uleb128 0xf
 3804 1392 04       		.byte	0x4
 3805 1393 F2120000 		.4byte	0x12f2
 3806 1397 27       		.uleb128 0x27
 3807 1398 280E0000 		.4byte	.LASF320
 3808 139c 04       		.byte	0x4
 3809 139d 31       		.byte	0x31
 3810 139e 03       		.byte	0x3
 3811 139f C2130000 		.4byte	0x13c2
 3812 13a3 29       		.uleb128 0x29
 3813 13a4 B4130000 		.4byte	0x13b4
 3814 13a8 2A       		.uleb128 0x2a
 3815 13a9 B8010000 		.4byte	.LASF321
 3816 13ad 04       		.byte	0x4
 3817 13ae 33       		.byte	0x33
 3818 13af F2120000 		.4byte	0x12f2
 3819 13b3 00       		.byte	0
 3820 13b4 2B       		.uleb128 0x2b
 3821 13b5 2A       		.uleb128 0x2a
 3822 13b6 B8010000 		.4byte	.LASF321
 3823 13ba 04       		.byte	0x4
 3824 13bb 39       		.byte	0x39
 3825 13bc F2120000 		.4byte	0x12f2
 3826 13c0 00       		.byte	0
 3827 13c1 00       		.byte	0
 3828 13c2 27       		.uleb128 0x27
 3829 13c3 48100000 		.4byte	.LASF322
 3830 13c7 04       		.byte	0x4
 3831 13c8 1D       		.byte	0x1d
 3832 13c9 03       		.byte	0x3
 3833 13ca E5130000 		.4byte	0x13e5
 3834 13ce 2B       		.uleb128 0x2b
 3835 13cf 2C       		.uleb128 0x2c
 3836 13d0 6900     		.ascii	"i\000"
 3837 13d2 04       		.byte	0x4
 3838 13d3 1F       		.byte	0x1f
ARM GAS  C:\Users\ISAKVO~1\AppData\Local\Temp\ccR1W42h.s 			page 103


 3839 13d4 F2120000 		.4byte	0x12f2
 3840 13d8 2B       		.uleb128 0x2b
 3841 13d9 2C       		.uleb128 0x2c
 3842 13da 6A00     		.ascii	"j\000"
 3843 13dc 04       		.byte	0x4
 3844 13dd 20       		.byte	0x20
 3845 13de F2120000 		.4byte	0x12f2
 3846 13e2 00       		.byte	0
 3847 13e3 00       		.byte	0
 3848 13e4 00       		.byte	0
 3849 13e5 25       		.uleb128 0x25
 3850 13e6 07070000 		.4byte	.LASF323
 3851 13ea 11       		.byte	0x11
 3852 13eb AD01     		.2byte	0x1ad
 3853 13ed 03       		.byte	0x3
 3854 13ee 0B140000 		.4byte	0x140b
 3855 13f2 26       		.uleb128 0x26
 3856 13f3 E6090000 		.4byte	.LASF315
 3857 13f7 11       		.byte	0x11
 3858 13f8 AD01     		.2byte	0x1ad
 3859 13fa 120A0000 		.4byte	0xa12
 3860 13fe 26       		.uleb128 0x26
 3861 13ff F6090000 		.4byte	.LASF316
 3862 1403 11       		.byte	0x11
 3863 1404 AD01     		.2byte	0x1ad
 3864 1406 CE000000 		.4byte	0xce
 3865 140a 00       		.byte	0
 3866 140b 27       		.uleb128 0x27
 3867 140c C5050000 		.4byte	.LASF324
 3868 1410 04       		.byte	0x4
 3869 1411 26       		.byte	0x26
 3870 1412 03       		.byte	0x3
 3871 1413 35140000 		.4byte	0x1435
 3872 1417 2D       		.uleb128 0x2d
 3873 1418 7800     		.ascii	"x\000"
 3874 141a 04       		.byte	0x4
 3875 141b 26       		.byte	0x26
 3876 141c F2120000 		.4byte	0x12f2
 3877 1420 2D       		.uleb128 0x2d
 3878 1421 7900     		.ascii	"y\000"
 3879 1423 04       		.byte	0x4
 3880 1424 26       		.byte	0x26
 3881 1425 F2120000 		.4byte	0x12f2
 3882 1429 2A       		.uleb128 0x2a
 3883 142a 32090000 		.4byte	.LASF325
 3884 142e 04       		.byte	0x4
 3885 142f 28       		.byte	0x28
 3886 1430 F2120000 		.4byte	0x12f2
 3887 1434 00       		.byte	0
 3888 1435 2E       		.uleb128 0x2e
 3889 1436 FF100000 		.4byte	.LASF326
 3890 143a 02       		.byte	0x2
 3891 143b 81       		.byte	0x81
 3892 143c 03       		.byte	0x3
 3893 143d 2F       		.uleb128 0x2f
 3894 143e C3090000 		.4byte	.LASF369
 3895 1442 04       		.byte	0x4
ARM GAS  C:\Users\ISAKVO~1\AppData\Local\Temp\ccR1W42h.s 			page 104


 3896 1443 FF       		.byte	0xff
 3897 1444 03       		.byte	0x3
 3898 1445 2E       		.uleb128 0x2e
 3899 1446 BC030000 		.4byte	.LASF327
 3900 144a 04       		.byte	0x4
 3901 144b 7C       		.byte	0x7c
 3902 144c 03       		.byte	0x3
 3903 144d 2E       		.uleb128 0x2e
 3904 144e 34030000 		.4byte	.LASF328
 3905 1452 03       		.byte	0x3
 3906 1453 0E       		.byte	0xe
 3907 1454 03       		.byte	0x3
 3908 1455 27       		.uleb128 0x27
 3909 1456 0C110000 		.4byte	.LASF329
 3910 145a 04       		.byte	0x4
 3911 145b 51       		.byte	0x51
 3912 145c 03       		.byte	0x3
 3913 145d 6D140000 		.4byte	0x146d
 3914 1461 2A       		.uleb128 0x2a
 3915 1462 170D0000 		.4byte	.LASF330
 3916 1466 04       		.byte	0x4
 3917 1467 53       		.byte	0x53
 3918 1468 F2120000 		.4byte	0x12f2
 3919 146c 00       		.byte	0
 3920 146d 27       		.uleb128 0x27
 3921 146e 900A0000 		.4byte	.LASF331
 3922 1472 03       		.byte	0x3
 3923 1473 14       		.byte	0x14
 3924 1474 03       		.byte	0x3
 3925 1475 9D140000 		.4byte	0x149d
 3926 1479 28       		.uleb128 0x28
 3927 147a E6090000 		.4byte	.LASF315
 3928 147e 03       		.byte	0x3
 3929 147f 14       		.byte	0x14
 3930 1480 91130000 		.4byte	0x1391
 3931 1484 28       		.uleb128 0x28
 3932 1485 3D0C0000 		.4byte	.LASF332
 3933 1489 03       		.byte	0x3
 3934 148a 14       		.byte	0x14
 3935 148b F2120000 		.4byte	0x12f2
 3936 148f 2B       		.uleb128 0x2b
 3937 1490 2A       		.uleb128 0x2a
 3938 1491 B8010000 		.4byte	.LASF321
 3939 1495 03       		.byte	0x3
 3940 1496 1D       		.byte	0x1d
 3941 1497 F2120000 		.4byte	0x12f2
 3942 149b 00       		.byte	0
 3943 149c 00       		.byte	0
 3944 149d 25       		.uleb128 0x25
 3945 149e 070F0000 		.4byte	.LASF333
 3946 14a2 05       		.byte	0x5
 3947 14a3 E204     		.2byte	0x4e2
 3948 14a5 03       		.byte	0x3
 3949 14a6 CF140000 		.4byte	0x14cf
 3950 14aa 26       		.uleb128 0x26
 3951 14ab 38050000 		.4byte	.LASF334
 3952 14af 05       		.byte	0x5
ARM GAS  C:\Users\ISAKVO~1\AppData\Local\Temp\ccR1W42h.s 			page 105


 3953 14b0 E204     		.2byte	0x4e2
 3954 14b2 CF140000 		.4byte	0x14cf
 3955 14b6 26       		.uleb128 0x26
 3956 14b7 E6090000 		.4byte	.LASF315
 3957 14bb 05       		.byte	0x5
 3958 14bc E204     		.2byte	0x4e2
 3959 14be 120A0000 		.4byte	0xa12
 3960 14c2 26       		.uleb128 0x26
 3961 14c3 F6090000 		.4byte	.LASF316
 3962 14c7 05       		.byte	0x5
 3963 14c8 E204     		.2byte	0x4e2
 3964 14ca CE000000 		.4byte	0xce
 3965 14ce 00       		.byte	0
 3966 14cf 0F       		.uleb128 0xf
 3967 14d0 04       		.byte	0x4
 3968 14d1 D5140000 		.4byte	0x14d5
 3969 14d5 06       		.uleb128 0x6
 3970 14d6 BB050000 		.4byte	0x5bb
 3971 14da 27       		.uleb128 0x27
 3972 14db 90040000 		.4byte	.LASF335
 3973 14df 04       		.byte	0x4
 3974 14e0 D7       		.byte	0xd7
 3975 14e1 03       		.byte	0x3
 3976 14e2 3D150000 		.4byte	0x153d
 3977 14e6 29       		.uleb128 0x29
 3978 14e7 F7140000 		.4byte	0x14f7
 3979 14eb 2A       		.uleb128 0x2a
 3980 14ec B8010000 		.4byte	.LASF321
 3981 14f0 04       		.byte	0x4
 3982 14f1 D9       		.byte	0xd9
 3983 14f2 F2120000 		.4byte	0x12f2
 3984 14f6 00       		.byte	0
 3985 14f7 2B       		.uleb128 0x2b
 3986 14f8 2C       		.uleb128 0x2c
 3987 14f9 6900     		.ascii	"i\000"
 3988 14fb 04       		.byte	0x4
 3989 14fc E7       		.byte	0xe7
 3990 14fd F2120000 		.4byte	0x12f2
 3991 1501 2B       		.uleb128 0x2b
 3992 1502 2A       		.uleb128 0x2a
 3993 1503 F6040000 		.4byte	.LASF336
 3994 1507 04       		.byte	0x4
 3995 1508 E9       		.byte	0xe9
 3996 1509 E7120000 		.4byte	0x12e7
 3997 150d 29       		.uleb128 0x29
 3998 150e 1C150000 		.4byte	0x151c
 3999 1512 2C       		.uleb128 0x2c
 4000 1513 6A00     		.ascii	"j\000"
 4001 1515 04       		.byte	0x4
 4002 1516 EB       		.byte	0xeb
 4003 1517 F2120000 		.4byte	0x12f2
 4004 151b 00       		.byte	0
 4005 151c 29       		.uleb128 0x29
 4006 151d 2D150000 		.4byte	0x152d
 4007 1521 2A       		.uleb128 0x2a
 4008 1522 B8010000 		.4byte	.LASF321
 4009 1526 04       		.byte	0x4
ARM GAS  C:\Users\ISAKVO~1\AppData\Local\Temp\ccR1W42h.s 			page 106


 4010 1527 F2       		.byte	0xf2
 4011 1528 F2120000 		.4byte	0x12f2
 4012 152c 00       		.byte	0
 4013 152d 2B       		.uleb128 0x2b
 4014 152e 2A       		.uleb128 0x2a
 4015 152f B8010000 		.4byte	.LASF321
 4016 1533 04       		.byte	0x4
 4017 1534 F9       		.byte	0xf9
 4018 1535 F2120000 		.4byte	0x12f2
 4019 1539 00       		.byte	0
 4020 153a 00       		.byte	0
 4021 153b 00       		.byte	0
 4022 153c 00       		.byte	0
 4023 153d 27       		.uleb128 0x27
 4024 153e A20C0000 		.4byte	.LASF337
 4025 1542 04       		.byte	0x4
 4026 1543 84       		.byte	0x84
 4027 1544 03       		.byte	0x3
 4028 1545 5E150000 		.4byte	0x155e
 4029 1549 2B       		.uleb128 0x2b
 4030 154a 2C       		.uleb128 0x2c
 4031 154b 7800     		.ascii	"x\000"
 4032 154d 04       		.byte	0x4
 4033 154e B2       		.byte	0xb2
 4034 154f F2120000 		.4byte	0x12f2
 4035 1553 2C       		.uleb128 0x2c
 4036 1554 7900     		.ascii	"y\000"
 4037 1556 04       		.byte	0x4
 4038 1557 B3       		.byte	0xb3
 4039 1558 F2120000 		.4byte	0x12f2
 4040 155c 00       		.byte	0
 4041 155d 00       		.byte	0
 4042 155e 2E       		.uleb128 0x2e
 4043 155f 420F0000 		.4byte	.LASF338
 4044 1563 04       		.byte	0x4
 4045 1564 72       		.byte	0x72
 4046 1565 03       		.byte	0x3
 4047 1566 27       		.uleb128 0x27
 4048 1567 D00C0000 		.4byte	.LASF339
 4049 156b 03       		.byte	0x3
 4050 156c 24       		.byte	0x24
 4051 156d 03       		.byte	0x3
 4052 156e 96150000 		.4byte	0x1596
 4053 1572 28       		.uleb128 0x28
 4054 1573 E6090000 		.4byte	.LASF315
 4055 1577 03       		.byte	0x3
 4056 1578 24       		.byte	0x24
 4057 1579 91130000 		.4byte	0x1391
 4058 157d 28       		.uleb128 0x28
 4059 157e 3D0C0000 		.4byte	.LASF332
 4060 1582 03       		.byte	0x3
 4061 1583 24       		.byte	0x24
 4062 1584 F2120000 		.4byte	0x12f2
 4063 1588 2B       		.uleb128 0x2b
 4064 1589 2A       		.uleb128 0x2a
 4065 158a B8010000 		.4byte	.LASF321
 4066 158e 03       		.byte	0x3
ARM GAS  C:\Users\ISAKVO~1\AppData\Local\Temp\ccR1W42h.s 			page 107


 4067 158f 2B       		.byte	0x2b
 4068 1590 F2120000 		.4byte	0x12f2
 4069 1594 00       		.byte	0
 4070 1595 00       		.byte	0
 4071 1596 25       		.uleb128 0x25
 4072 1597 BE010000 		.4byte	.LASF340
 4073 159b 05       		.byte	0x5
 4074 159c 8D05     		.2byte	0x58d
 4075 159e 03       		.byte	0x3
 4076 159f C8150000 		.4byte	0x15c8
 4077 15a3 26       		.uleb128 0x26
 4078 15a4 38050000 		.4byte	.LASF334
 4079 15a8 05       		.byte	0x5
 4080 15a9 8D05     		.2byte	0x58d
 4081 15ab C8150000 		.4byte	0x15c8
 4082 15af 26       		.uleb128 0x26
 4083 15b0 E6090000 		.4byte	.LASF315
 4084 15b4 05       		.byte	0x5
 4085 15b5 8D05     		.2byte	0x58d
 4086 15b7 120A0000 		.4byte	0xa12
 4087 15bb 26       		.uleb128 0x26
 4088 15bc F6090000 		.4byte	.LASF316
 4089 15c0 05       		.byte	0x5
 4090 15c1 8D05     		.2byte	0x58d
 4091 15c3 CE000000 		.4byte	0xce
 4092 15c7 00       		.byte	0
 4093 15c8 0F       		.uleb128 0xf
 4094 15c9 04       		.byte	0x4
 4095 15ca BB050000 		.4byte	0x5bb
 4096 15ce 30       		.uleb128 0x30
 4097 15cf F40D0000 		.4byte	.LASF370
 4098 15d3 01       		.byte	0x1
 4099 15d4 06       		.byte	0x6
 4100 15d5 2C000000 		.4byte	0x2c
 4101 15d9 00000000 		.4byte	.LFB494
 4102 15dd C8050000 		.4byte	.LFE494-.LFB494
 4103 15e1 01       		.uleb128 0x1
 4104 15e2 9C       		.byte	0x9c
 4105 15e3 F51E0000 		.4byte	0x1ef5
 4106 15e7 31       		.uleb128 0x31
 4107 15e8 35140000 		.4byte	0x1435
 4108 15ec 02000000 		.4byte	.LBB147
 4109 15f0 02000000 		.4byte	.LBE147-.LBB147
 4110 15f4 01       		.byte	0x1
 4111 15f5 08       		.byte	0x8
 4112 15f6 32       		.uleb128 0x32
 4113 15f7 45140000 		.4byte	0x1445
 4114 15fb 04000000 		.4byte	.LBB149
 4115 15ff 0E010000 		.4byte	.LBE149-.LBB149
 4116 1603 01       		.byte	0x1
 4117 1604 0A       		.byte	0xa
 4118 1605 D5170000 		.4byte	0x17d5
 4119 1609 32       		.uleb128 0x32
 4120 160a 4D140000 		.4byte	0x144d
 4121 160e 04000000 		.4byte	.LBB150
 4122 1612 14000000 		.4byte	.LBE150-.LBB150
 4123 1616 04       		.byte	0x4
ARM GAS  C:\Users\ISAKVO~1\AppData\Local\Temp\ccR1W42h.s 			page 108


 4124 1617 7E       		.byte	0x7e
 4125 1618 3F160000 		.4byte	0x163f
 4126 161c 33       		.uleb128 0x33
 4127 161d 08000000 		.4byte	.LVL0
 4128 1621 7B200000 		.4byte	0x207b
 4129 1625 34       		.uleb128 0x34
 4130 1626 18000000 		.4byte	.LVL1
 4131 162a 86200000 		.4byte	0x2086
 4132 162e 35       		.uleb128 0x35
 4133 162f 01       		.uleb128 0x1
 4134 1630 51       		.byte	0x51
 4135 1631 01       		.uleb128 0x1
 4136 1632 30       		.byte	0x30
 4137 1633 35       		.uleb128 0x35
 4138 1634 01       		.uleb128 0x1
 4139 1635 52       		.byte	0x52
 4140 1636 01       		.uleb128 0x1
 4141 1637 32       		.byte	0x32
 4142 1638 35       		.uleb128 0x35
 4143 1639 01       		.uleb128 0x1
 4144 163a 53       		.byte	0x53
 4145 163b 01       		.uleb128 0x1
 4146 163c 30       		.byte	0x30
 4147 163d 00       		.byte	0
 4148 163e 00       		.byte	0
 4149 163f 32       		.uleb128 0x32
 4150 1640 C2130000 		.4byte	0x13c2
 4151 1644 18000000 		.4byte	.LBB152
 4152 1648 28000000 		.4byte	.LBE152-.LBB152
 4153 164c 04       		.byte	0x4
 4154 164d 7F       		.byte	0x7f
 4155 164e 75160000 		.4byte	0x1675
 4156 1652 36       		.uleb128 0x36
 4157 1653 18000000 		.4byte	.LBB153
 4158 1657 28000000 		.4byte	.LBE153-.LBB153
 4159 165b 37       		.uleb128 0x37
 4160 165c CF130000 		.4byte	0x13cf
 4161 1660 00000000 		.4byte	.LLST0
 4162 1664 38       		.uleb128 0x38
 4163 1665 00000000 		.4byte	.Ldebug_ranges0+0
 4164 1669 37       		.uleb128 0x37
 4165 166a D9130000 		.4byte	0x13d9
 4166 166e 1E000000 		.4byte	.LLST1
 4167 1672 00       		.byte	0
 4168 1673 00       		.byte	0
 4169 1674 00       		.byte	0
 4170 1675 32       		.uleb128 0x32
 4171 1676 97130000 		.4byte	0x1397
 4172 167a 40000000 		.4byte	.LBB156
 4173 167e 3A000000 		.4byte	.LBE156-.LBB156
 4174 1682 04       		.byte	0x4
 4175 1683 80       		.byte	0x80
 4176 1684 B3160000 		.4byte	0x16b3
 4177 1688 39       		.uleb128 0x39
 4178 1689 40000000 		.4byte	.LBB157
 4179 168d 14000000 		.4byte	.LBE157-.LBB157
 4180 1691 9F160000 		.4byte	0x169f
ARM GAS  C:\Users\ISAKVO~1\AppData\Local\Temp\ccR1W42h.s 			page 109


 4181 1695 37       		.uleb128 0x37
 4182 1696 A8130000 		.4byte	0x13a8
 4183 169a 47000000 		.4byte	.LLST2
 4184 169e 00       		.byte	0
 4185 169f 36       		.uleb128 0x36
 4186 16a0 54000000 		.4byte	.LBB158
 4187 16a4 26000000 		.4byte	.LBE158-.LBB158
 4188 16a8 37       		.uleb128 0x37
 4189 16a9 B5130000 		.4byte	0x13b5
 4190 16ad 65000000 		.4byte	.LLST3
 4191 16b1 00       		.byte	0
 4192 16b2 00       		.byte	0
 4193 16b3 3A       		.uleb128 0x3a
 4194 16b4 55140000 		.4byte	0x1455
 4195 16b8 7A000000 		.4byte	.LBB159
 4196 16bc 98000000 		.4byte	.LBE159-.LBB159
 4197 16c0 04       		.byte	0x4
 4198 16c1 81       		.byte	0x81
 4199 16c2 36       		.uleb128 0x36
 4200 16c3 7A000000 		.4byte	.LBB160
 4201 16c7 98000000 		.4byte	.LBE160-.LBB160
 4202 16cb 37       		.uleb128 0x37
 4203 16cc 61140000 		.4byte	0x1461
 4204 16d0 83000000 		.4byte	.LLST4
 4205 16d4 32       		.uleb128 0x32
 4206 16d5 6D140000 		.4byte	0x146d
 4207 16d9 7E000000 		.4byte	.LBB161
 4208 16dd 40000000 		.4byte	.LBE161-.LBB161
 4209 16e1 04       		.byte	0x4
 4210 16e2 57       		.byte	0x57
 4211 16e3 79170000 		.4byte	0x1779
 4212 16e7 3B       		.uleb128 0x3b
 4213 16e8 84140000 		.4byte	0x1484
 4214 16ec AC000000 		.4byte	.LLST5
 4215 16f0 3B       		.uleb128 0x3b
 4216 16f1 79140000 		.4byte	0x1479
 4217 16f5 C0000000 		.4byte	.LLST6
 4218 16f9 32       		.uleb128 0x32
 4219 16fa 53130000 		.4byte	0x1353
 4220 16fe 7E000000 		.4byte	.LBB163
 4221 1702 0E000000 		.4byte	.LBE163-.LBB163
 4222 1706 03       		.byte	0x3
 4223 1707 18       		.byte	0x18
 4224 1708 69170000 		.4byte	0x1769
 4225 170c 3B       		.uleb128 0x3b
 4226 170d 6C130000 		.4byte	0x136c
 4227 1711 D8000000 		.4byte	.LLST7
 4228 1715 3B       		.uleb128 0x3b
 4229 1716 60130000 		.4byte	0x1360
 4230 171a EC000000 		.4byte	.LLST8
 4231 171e 3C       		.uleb128 0x3c
 4232 171f 9D140000 		.4byte	0x149d
 4233 1723 7E000000 		.4byte	.LBB164
 4234 1727 0E000000 		.4byte	.LBE164-.LBB164
 4235 172b 11       		.byte	0x11
 4236 172c 5201     		.2byte	0x152
 4237 172e 3B       		.uleb128 0x3b
ARM GAS  C:\Users\ISAKVO~1\AppData\Local\Temp\ccR1W42h.s 			page 110


 4238 172f C2140000 		.4byte	0x14c2
 4239 1733 D8000000 		.4byte	.LLST7
 4240 1737 3B       		.uleb128 0x3b
 4241 1738 B6140000 		.4byte	0x14b6
 4242 173c EC000000 		.4byte	.LLST8
 4243 1740 3B       		.uleb128 0x3b
 4244 1741 AA140000 		.4byte	0x14aa
 4245 1745 04010000 		.4byte	.LLST11
 4246 1749 34       		.uleb128 0x34
 4247 174a 8C000000 		.4byte	.LVL17
 4248 174e 91200000 		.4byte	0x2091
 4249 1752 35       		.uleb128 0x35
 4250 1753 01       		.uleb128 0x1
 4251 1754 50       		.byte	0x50
 4252 1755 05       		.uleb128 0x5
 4253 1756 0C       		.byte	0xc
 4254 1757 00006640 		.4byte	0x40660000
 4255 175b 35       		.uleb128 0x35
 4256 175c 01       		.uleb128 0x1
 4257 175d 51       		.byte	0x51
 4258 175e 02       		.uleb128 0x2
 4259 175f 75       		.byte	0x75
 4260 1760 2C       		.sleb128 44
 4261 1761 35       		.uleb128 0x35
 4262 1762 01       		.uleb128 0x1
 4263 1763 52       		.byte	0x52
 4264 1764 01       		.uleb128 0x1
 4265 1765 34       		.byte	0x34
 4266 1766 00       		.byte	0
 4267 1767 00       		.byte	0
 4268 1768 00       		.byte	0
 4269 1769 38       		.uleb128 0x38
 4270 176a 18000000 		.4byte	.Ldebug_ranges0+0x18
 4271 176e 37       		.uleb128 0x37
 4272 176f 90140000 		.4byte	0x1490
 4273 1773 1C010000 		.4byte	.LLST12
 4274 1777 00       		.byte	0
 4275 1778 00       		.byte	0
 4276 1779 3D       		.uleb128 0x3d
 4277 177a CC000000 		.4byte	.LVL24
 4278 177e 9C200000 		.4byte	0x209c
 4279 1782 98170000 		.4byte	0x1798
 4280 1786 35       		.uleb128 0x35
 4281 1787 01       		.uleb128 0x1
 4282 1788 50       		.byte	0x50
 4283 1789 02       		.uleb128 0x2
 4284 178a 75       		.byte	0x75
 4285 178b 18       		.sleb128 24
 4286 178c 35       		.uleb128 0x35
 4287 178d 01       		.uleb128 0x1
 4288 178e 51       		.byte	0x51
 4289 178f 02       		.uleb128 0x2
 4290 1790 75       		.byte	0x75
 4291 1791 1C       		.sleb128 28
 4292 1792 35       		.uleb128 0x35
 4293 1793 01       		.uleb128 0x1
 4294 1794 52       		.byte	0x52
ARM GAS  C:\Users\ISAKVO~1\AppData\Local\Temp\ccR1W42h.s 			page 111


 4295 1795 01       		.uleb128 0x1
 4296 1796 32       		.byte	0x32
 4297 1797 00       		.byte	0
 4298 1798 3D       		.uleb128 0x3d
 4299 1799 E6000000 		.4byte	.LVL28
 4300 179d 9C200000 		.4byte	0x209c
 4301 17a1 B7170000 		.4byte	0x17b7
 4302 17a5 35       		.uleb128 0x35
 4303 17a6 01       		.uleb128 0x1
 4304 17a7 50       		.byte	0x50
 4305 17a8 02       		.uleb128 0x2
 4306 17a9 75       		.byte	0x75
 4307 17aa 18       		.sleb128 24
 4308 17ab 35       		.uleb128 0x35
 4309 17ac 01       		.uleb128 0x1
 4310 17ad 51       		.byte	0x51
 4311 17ae 02       		.uleb128 0x2
 4312 17af 75       		.byte	0x75
 4313 17b0 20       		.sleb128 32
 4314 17b1 35       		.uleb128 0x35
 4315 17b2 01       		.uleb128 0x1
 4316 17b3 52       		.byte	0x52
 4317 17b4 01       		.uleb128 0x1
 4318 17b5 32       		.byte	0x32
 4319 17b6 00       		.byte	0
 4320 17b7 34       		.uleb128 0x34
 4321 17b8 02010000 		.4byte	.LVL32
 4322 17bc 9C200000 		.4byte	0x209c
 4323 17c0 35       		.uleb128 0x35
 4324 17c1 01       		.uleb128 0x1
 4325 17c2 50       		.byte	0x50
 4326 17c3 02       		.uleb128 0x2
 4327 17c4 75       		.byte	0x75
 4328 17c5 18       		.sleb128 24
 4329 17c6 35       		.uleb128 0x35
 4330 17c7 01       		.uleb128 0x1
 4331 17c8 51       		.byte	0x51
 4332 17c9 02       		.uleb128 0x2
 4333 17ca 75       		.byte	0x75
 4334 17cb 24       		.sleb128 36
 4335 17cc 35       		.uleb128 0x35
 4336 17cd 01       		.uleb128 0x1
 4337 17ce 52       		.byte	0x52
 4338 17cf 01       		.uleb128 0x1
 4339 17d0 32       		.byte	0x32
 4340 17d1 00       		.byte	0
 4341 17d2 00       		.byte	0
 4342 17d3 00       		.byte	0
 4343 17d4 00       		.byte	0
 4344 17d5 3A       		.uleb128 0x3a
 4345 17d6 3D140000 		.4byte	0x143d
 4346 17da 12010000 		.4byte	.LBB168
 4347 17de B6040000 		.4byte	.LBE168-.LBB168
 4348 17e2 01       		.byte	0x1
 4349 17e3 0B       		.byte	0xb
 4350 17e4 3E       		.uleb128 0x3e
 4351 17e5 3D150000 		.4byte	0x153d
ARM GAS  C:\Users\ISAKVO~1\AppData\Local\Temp\ccR1W42h.s 			page 112


 4352 17e9 12010000 		.4byte	.LBB169
 4353 17ed 30000000 		.4byte	.Ldebug_ranges0+0x30
 4354 17f1 04       		.byte	0x4
 4355 17f2 0301     		.2byte	0x103
 4356 17f4 781E0000 		.4byte	0x1e78
 4357 17f8 32       		.uleb128 0x32
 4358 17f9 6D140000 		.4byte	0x146d
 4359 17fd 12010000 		.4byte	.LBB171
 4360 1801 40000000 		.4byte	.LBE171-.LBB171
 4361 1805 04       		.byte	0x4
 4362 1806 86       		.byte	0x86
 4363 1807 9D180000 		.4byte	0x189d
 4364 180b 3B       		.uleb128 0x3b
 4365 180c 84140000 		.4byte	0x1484
 4366 1810 3A010000 		.4byte	.LLST13
 4367 1814 3B       		.uleb128 0x3b
 4368 1815 79140000 		.4byte	0x1479
 4369 1819 4E010000 		.4byte	.LLST14
 4370 181d 32       		.uleb128 0x32
 4371 181e 53130000 		.4byte	0x1353
 4372 1822 12010000 		.4byte	.LBB173
 4373 1826 0E000000 		.4byte	.LBE173-.LBB173
 4374 182a 03       		.byte	0x3
 4375 182b 18       		.byte	0x18
 4376 182c 8D180000 		.4byte	0x188d
 4377 1830 3B       		.uleb128 0x3b
 4378 1831 6C130000 		.4byte	0x136c
 4379 1835 66010000 		.4byte	.LLST15
 4380 1839 3B       		.uleb128 0x3b
 4381 183a 60130000 		.4byte	0x1360
 4382 183e 7A010000 		.4byte	.LLST16
 4383 1842 3C       		.uleb128 0x3c
 4384 1843 9D140000 		.4byte	0x149d
 4385 1847 12010000 		.4byte	.LBB174
 4386 184b 0E000000 		.4byte	.LBE174-.LBB174
 4387 184f 11       		.byte	0x11
 4388 1850 5201     		.2byte	0x152
 4389 1852 3B       		.uleb128 0x3b
 4390 1853 C2140000 		.4byte	0x14c2
 4391 1857 66010000 		.4byte	.LLST15
 4392 185b 3B       		.uleb128 0x3b
 4393 185c B6140000 		.4byte	0x14b6
 4394 1860 7A010000 		.4byte	.LLST16
 4395 1864 3B       		.uleb128 0x3b
 4396 1865 AA140000 		.4byte	0x14aa
 4397 1869 92010000 		.4byte	.LLST19
 4398 186d 34       		.uleb128 0x34
 4399 186e 20010000 		.4byte	.LVL36
 4400 1872 91200000 		.4byte	0x2091
 4401 1876 35       		.uleb128 0x35
 4402 1877 01       		.uleb128 0x1
 4403 1878 50       		.byte	0x50
 4404 1879 05       		.uleb128 0x5
 4405 187a 0C       		.byte	0xc
 4406 187b 00006640 		.4byte	0x40660000
 4407 187f 35       		.uleb128 0x35
 4408 1880 01       		.uleb128 0x1
ARM GAS  C:\Users\ISAKVO~1\AppData\Local\Temp\ccR1W42h.s 			page 113


 4409 1881 51       		.byte	0x51
 4410 1882 02       		.uleb128 0x2
 4411 1883 74       		.byte	0x74
 4412 1884 2C       		.sleb128 44
 4413 1885 35       		.uleb128 0x35
 4414 1886 01       		.uleb128 0x1
 4415 1887 52       		.byte	0x52
 4416 1888 01       		.uleb128 0x1
 4417 1889 34       		.byte	0x34
 4418 188a 00       		.byte	0
 4419 188b 00       		.byte	0
 4420 188c 00       		.byte	0
 4421 188d 38       		.uleb128 0x38
 4422 188e 50000000 		.4byte	.Ldebug_ranges0+0x50
 4423 1892 37       		.uleb128 0x37
 4424 1893 90140000 		.4byte	0x1490
 4425 1897 AA010000 		.4byte	.LLST20
 4426 189b 00       		.byte	0
 4427 189c 00       		.byte	0
 4428 189d 32       		.uleb128 0x32
 4429 189e 5E150000 		.4byte	0x155e
 4430 18a2 66010000 		.4byte	.LBB178
 4431 18a6 06010000 		.4byte	.LBE178-.LBB178
 4432 18aa 04       		.byte	0x4
 4433 18ab 8B       		.byte	0x8b
 4434 18ac 461A0000 		.4byte	0x1a46
 4435 18b0 32       		.uleb128 0x32
 4436 18b1 C2130000 		.4byte	0x13c2
 4437 18b5 76010000 		.4byte	.LBB180
 4438 18b9 24000000 		.4byte	.LBE180-.LBB180
 4439 18bd 04       		.byte	0x4
 4440 18be 77       		.byte	0x77
 4441 18bf E6180000 		.4byte	0x18e6
 4442 18c3 36       		.uleb128 0x36
 4443 18c4 76010000 		.4byte	.LBB181
 4444 18c8 24000000 		.4byte	.LBE181-.LBB181
 4445 18cc 37       		.uleb128 0x37
 4446 18cd CF130000 		.4byte	0x13cf
 4447 18d1 C8010000 		.4byte	.LLST21
 4448 18d5 38       		.uleb128 0x38
 4449 18d6 68000000 		.4byte	.Ldebug_ranges0+0x68
 4450 18da 37       		.uleb128 0x37
 4451 18db D9130000 		.4byte	0x13d9
 4452 18df F2010000 		.4byte	.LLST22
 4453 18e3 00       		.byte	0
 4454 18e4 00       		.byte	0
 4455 18e5 00       		.byte	0
 4456 18e6 32       		.uleb128 0x32
 4457 18e7 97130000 		.4byte	0x1397
 4458 18eb 9A010000 		.4byte	.LBB184
 4459 18ef 3A000000 		.4byte	.LBE184-.LBB184
 4460 18f3 04       		.byte	0x4
 4461 18f4 78       		.byte	0x78
 4462 18f5 24190000 		.4byte	0x1924
 4463 18f9 39       		.uleb128 0x39
 4464 18fa 9A010000 		.4byte	.LBB185
 4465 18fe 14000000 		.4byte	.LBE185-.LBB185
ARM GAS  C:\Users\ISAKVO~1\AppData\Local\Temp\ccR1W42h.s 			page 114


 4466 1902 10190000 		.4byte	0x1910
 4467 1906 37       		.uleb128 0x37
 4468 1907 A8130000 		.4byte	0x13a8
 4469 190b 1B020000 		.4byte	.LLST23
 4470 190f 00       		.byte	0
 4471 1910 36       		.uleb128 0x36
 4472 1911 AE010000 		.4byte	.LBB186
 4473 1915 26000000 		.4byte	.LBE186-.LBB186
 4474 1919 37       		.uleb128 0x37
 4475 191a B5130000 		.4byte	0x13b5
 4476 191e 39020000 		.4byte	.LLST24
 4477 1922 00       		.byte	0
 4478 1923 00       		.byte	0
 4479 1924 3A       		.uleb128 0x3a
 4480 1925 55140000 		.4byte	0x1455
 4481 1929 D4010000 		.4byte	.LBB187
 4482 192d 98000000 		.4byte	.LBE187-.LBB187
 4483 1931 04       		.byte	0x4
 4484 1932 79       		.byte	0x79
 4485 1933 36       		.uleb128 0x36
 4486 1934 D4010000 		.4byte	.LBB188
 4487 1938 98000000 		.4byte	.LBE188-.LBB188
 4488 193c 37       		.uleb128 0x37
 4489 193d 61140000 		.4byte	0x1461
 4490 1941 57020000 		.4byte	.LLST25
 4491 1945 32       		.uleb128 0x32
 4492 1946 6D140000 		.4byte	0x146d
 4493 194a D8010000 		.4byte	.LBB189
 4494 194e 40000000 		.4byte	.LBE189-.LBB189
 4495 1952 04       		.byte	0x4
 4496 1953 57       		.byte	0x57
 4497 1954 EA190000 		.4byte	0x19ea
 4498 1958 3B       		.uleb128 0x3b
 4499 1959 84140000 		.4byte	0x1484
 4500 195d 80020000 		.4byte	.LLST26
 4501 1961 3B       		.uleb128 0x3b
 4502 1962 79140000 		.4byte	0x1479
 4503 1966 94020000 		.4byte	.LLST27
 4504 196a 32       		.uleb128 0x32
 4505 196b 53130000 		.4byte	0x1353
 4506 196f D8010000 		.4byte	.LBB191
 4507 1973 0E000000 		.4byte	.LBE191-.LBB191
 4508 1977 03       		.byte	0x3
 4509 1978 18       		.byte	0x18
 4510 1979 DA190000 		.4byte	0x19da
 4511 197d 3B       		.uleb128 0x3b
 4512 197e 6C130000 		.4byte	0x136c
 4513 1982 AC020000 		.4byte	.LLST28
 4514 1986 3B       		.uleb128 0x3b
 4515 1987 60130000 		.4byte	0x1360
 4516 198b C0020000 		.4byte	.LLST29
 4517 198f 3C       		.uleb128 0x3c
 4518 1990 9D140000 		.4byte	0x149d
 4519 1994 D8010000 		.4byte	.LBB192
 4520 1998 0E000000 		.4byte	.LBE192-.LBB192
 4521 199c 11       		.byte	0x11
 4522 199d 5201     		.2byte	0x152
ARM GAS  C:\Users\ISAKVO~1\AppData\Local\Temp\ccR1W42h.s 			page 115


 4523 199f 3B       		.uleb128 0x3b
 4524 19a0 C2140000 		.4byte	0x14c2
 4525 19a4 AC020000 		.4byte	.LLST28
 4526 19a8 3B       		.uleb128 0x3b
 4527 19a9 B6140000 		.4byte	0x14b6
 4528 19ad C0020000 		.4byte	.LLST29
 4529 19b1 3B       		.uleb128 0x3b
 4530 19b2 AA140000 		.4byte	0x14aa
 4531 19b6 D8020000 		.4byte	.LLST32
 4532 19ba 34       		.uleb128 0x34
 4533 19bb E6010000 		.4byte	.LVL59
 4534 19bf 91200000 		.4byte	0x2091
 4535 19c3 35       		.uleb128 0x35
 4536 19c4 01       		.uleb128 0x1
 4537 19c5 50       		.byte	0x50
 4538 19c6 05       		.uleb128 0x5
 4539 19c7 0C       		.byte	0xc
 4540 19c8 00006640 		.4byte	0x40660000
 4541 19cc 35       		.uleb128 0x35
 4542 19cd 01       		.uleb128 0x1
 4543 19ce 51       		.byte	0x51
 4544 19cf 02       		.uleb128 0x2
 4545 19d0 75       		.byte	0x75
 4546 19d1 2C       		.sleb128 44
 4547 19d2 35       		.uleb128 0x35
 4548 19d3 01       		.uleb128 0x1
 4549 19d4 52       		.byte	0x52
 4550 19d5 01       		.uleb128 0x1
 4551 19d6 34       		.byte	0x34
 4552 19d7 00       		.byte	0
 4553 19d8 00       		.byte	0
 4554 19d9 00       		.byte	0
 4555 19da 38       		.uleb128 0x38
 4556 19db 80000000 		.4byte	.Ldebug_ranges0+0x80
 4557 19df 37       		.uleb128 0x37
 4558 19e0 90140000 		.4byte	0x1490
 4559 19e4 F0020000 		.4byte	.LLST33
 4560 19e8 00       		.byte	0
 4561 19e9 00       		.byte	0
 4562 19ea 3D       		.uleb128 0x3d
 4563 19eb 26020000 		.4byte	.LVL66
 4564 19ef 9C200000 		.4byte	0x209c
 4565 19f3 091A0000 		.4byte	0x1a09
 4566 19f7 35       		.uleb128 0x35
 4567 19f8 01       		.uleb128 0x1
 4568 19f9 50       		.byte	0x50
 4569 19fa 02       		.uleb128 0x2
 4570 19fb 75       		.byte	0x75
 4571 19fc 18       		.sleb128 24
 4572 19fd 35       		.uleb128 0x35
 4573 19fe 01       		.uleb128 0x1
 4574 19ff 51       		.byte	0x51
 4575 1a00 02       		.uleb128 0x2
 4576 1a01 75       		.byte	0x75
 4577 1a02 1C       		.sleb128 28
 4578 1a03 35       		.uleb128 0x35
 4579 1a04 01       		.uleb128 0x1
ARM GAS  C:\Users\ISAKVO~1\AppData\Local\Temp\ccR1W42h.s 			page 116


 4580 1a05 52       		.byte	0x52
 4581 1a06 01       		.uleb128 0x1
 4582 1a07 32       		.byte	0x32
 4583 1a08 00       		.byte	0
 4584 1a09 3D       		.uleb128 0x3d
 4585 1a0a 40020000 		.4byte	.LVL70
 4586 1a0e 9C200000 		.4byte	0x209c
 4587 1a12 281A0000 		.4byte	0x1a28
 4588 1a16 35       		.uleb128 0x35
 4589 1a17 01       		.uleb128 0x1
 4590 1a18 50       		.byte	0x50
 4591 1a19 02       		.uleb128 0x2
 4592 1a1a 75       		.byte	0x75
 4593 1a1b 18       		.sleb128 24
 4594 1a1c 35       		.uleb128 0x35
 4595 1a1d 01       		.uleb128 0x1
 4596 1a1e 51       		.byte	0x51
 4597 1a1f 02       		.uleb128 0x2
 4598 1a20 75       		.byte	0x75
 4599 1a21 20       		.sleb128 32
 4600 1a22 35       		.uleb128 0x35
 4601 1a23 01       		.uleb128 0x1
 4602 1a24 52       		.byte	0x52
 4603 1a25 01       		.uleb128 0x1
 4604 1a26 32       		.byte	0x32
 4605 1a27 00       		.byte	0
 4606 1a28 34       		.uleb128 0x34
 4607 1a29 5C020000 		.4byte	.LVL74
 4608 1a2d 9C200000 		.4byte	0x209c
 4609 1a31 35       		.uleb128 0x35
 4610 1a32 01       		.uleb128 0x1
 4611 1a33 50       		.byte	0x50
 4612 1a34 02       		.uleb128 0x2
 4613 1a35 75       		.byte	0x75
 4614 1a36 18       		.sleb128 24
 4615 1a37 35       		.uleb128 0x35
 4616 1a38 01       		.uleb128 0x1
 4617 1a39 51       		.byte	0x51
 4618 1a3a 02       		.uleb128 0x2
 4619 1a3b 75       		.byte	0x75
 4620 1a3c 24       		.sleb128 36
 4621 1a3d 35       		.uleb128 0x35
 4622 1a3e 01       		.uleb128 0x1
 4623 1a3f 52       		.byte	0x52
 4624 1a40 01       		.uleb128 0x1
 4625 1a41 32       		.byte	0x32
 4626 1a42 00       		.byte	0
 4627 1a43 00       		.byte	0
 4628 1a44 00       		.byte	0
 4629 1a45 00       		.byte	0
 4630 1a46 32       		.uleb128 0x32
 4631 1a47 66150000 		.4byte	0x1566
 4632 1a4b 76020000 		.4byte	.LBB196
 4633 1a4f 40000000 		.4byte	.LBE196-.LBB196
 4634 1a53 04       		.byte	0x4
 4635 1a54 91       		.byte	0x91
 4636 1a55 EF1A0000 		.4byte	0x1aef
ARM GAS  C:\Users\ISAKVO~1\AppData\Local\Temp\ccR1W42h.s 			page 117


 4637 1a59 3B       		.uleb128 0x3b
 4638 1a5a 7D150000 		.4byte	0x157d
 4639 1a5e 0E030000 		.4byte	.LLST34
 4640 1a62 3B       		.uleb128 0x3b
 4641 1a63 72150000 		.4byte	0x1572
 4642 1a67 22030000 		.4byte	.LLST35
 4643 1a6b 39       		.uleb128 0x39
 4644 1a6c 84020000 		.4byte	.LBB198
 4645 1a70 18000000 		.4byte	.LBE198-.LBB198
 4646 1a74 821A0000 		.4byte	0x1a82
 4647 1a78 37       		.uleb128 0x37
 4648 1a79 89150000 		.4byte	0x1589
 4649 1a7d 3A030000 		.4byte	.LLST36
 4650 1a81 00       		.byte	0
 4651 1a82 3A       		.uleb128 0x3a
 4652 1a83 E5130000 		.4byte	0x13e5
 4653 1a87 9C020000 		.4byte	.LBB199
 4654 1a8b 10000000 		.4byte	.LBE199-.LBB199
 4655 1a8f 03       		.byte	0x3
 4656 1a90 2E       		.byte	0x2e
 4657 1a91 3B       		.uleb128 0x3b
 4658 1a92 FE130000 		.4byte	0x13fe
 4659 1a96 64030000 		.4byte	.LLST37
 4660 1a9a 3B       		.uleb128 0x3b
 4661 1a9b F2130000 		.4byte	0x13f2
 4662 1a9f 78030000 		.4byte	.LLST38
 4663 1aa3 3C       		.uleb128 0x3c
 4664 1aa4 96150000 		.4byte	0x1596
 4665 1aa8 9C020000 		.4byte	.LBB200
 4666 1aac 10000000 		.4byte	.LBE200-.LBB200
 4667 1ab0 11       		.byte	0x11
 4668 1ab1 AF01     		.2byte	0x1af
 4669 1ab3 3B       		.uleb128 0x3b
 4670 1ab4 BB150000 		.4byte	0x15bb
 4671 1ab8 64030000 		.4byte	.LLST37
 4672 1abc 3B       		.uleb128 0x3b
 4673 1abd AF150000 		.4byte	0x15af
 4674 1ac1 78030000 		.4byte	.LLST38
 4675 1ac5 3B       		.uleb128 0x3b
 4676 1ac6 A3150000 		.4byte	0x15a3
 4677 1aca 90030000 		.4byte	.LLST41
 4678 1ace 34       		.uleb128 0x34
 4679 1acf AC020000 		.4byte	.LVL84
 4680 1ad3 A7200000 		.4byte	0x20a7
 4681 1ad7 35       		.uleb128 0x35
 4682 1ad8 01       		.uleb128 0x1
 4683 1ad9 50       		.byte	0x50
 4684 1ada 05       		.uleb128 0x5
 4685 1adb 0C       		.byte	0xc
 4686 1adc 00006640 		.4byte	0x40660000
 4687 1ae0 35       		.uleb128 0x35
 4688 1ae1 01       		.uleb128 0x1
 4689 1ae2 51       		.byte	0x51
 4690 1ae3 02       		.uleb128 0x2
 4691 1ae4 75       		.byte	0x75
 4692 1ae5 00       		.sleb128 0
 4693 1ae6 35       		.uleb128 0x35
ARM GAS  C:\Users\ISAKVO~1\AppData\Local\Temp\ccR1W42h.s 			page 118


 4694 1ae7 01       		.uleb128 0x1
 4695 1ae8 52       		.byte	0x52
 4696 1ae9 01       		.uleb128 0x1
 4697 1aea 3B       		.byte	0x3b
 4698 1aeb 00       		.byte	0
 4699 1aec 00       		.byte	0
 4700 1aed 00       		.byte	0
 4701 1aee 00       		.byte	0
 4702 1aef 32       		.uleb128 0x32
 4703 1af0 0B140000 		.4byte	0x140b
 4704 1af4 02030000 		.4byte	.LBB202
 4705 1af8 22000000 		.4byte	.LBE202-.LBB202
 4706 1afc 04       		.byte	0x4
 4707 1afd 9F       		.byte	0x9f
 4708 1afe 2A1B0000 		.4byte	0x1b2a
 4709 1b02 3B       		.uleb128 0x3b
 4710 1b03 20140000 		.4byte	0x1420
 4711 1b07 A8030000 		.4byte	.LLST42
 4712 1b0b 3B       		.uleb128 0x3b
 4713 1b0c 17140000 		.4byte	0x1417
 4714 1b10 D2030000 		.4byte	.LLST43
 4715 1b14 36       		.uleb128 0x36
 4716 1b15 02030000 		.4byte	.LBB203
 4717 1b19 22000000 		.4byte	.LBE203-.LBB203
 4718 1b1d 3F       		.uleb128 0x3f
 4719 1b1e 29140000 		.4byte	0x1429
 4720 1b22 05       		.uleb128 0x5
 4721 1b23 03       		.byte	0x3
 4722 1b24 3F000000 		.4byte	figure_index.15747
 4723 1b28 00       		.byte	0
 4724 1b29 00       		.byte	0
 4725 1b2a 32       		.uleb128 0x32
 4726 1b2b 66150000 		.4byte	0x1566
 4727 1b2f 24030000 		.4byte	.LBB204
 4728 1b33 44000000 		.4byte	.LBE204-.LBB204
 4729 1b37 04       		.byte	0x4
 4730 1b38 A0       		.byte	0xa0
 4731 1b39 D31B0000 		.4byte	0x1bd3
 4732 1b3d 3B       		.uleb128 0x3b
 4733 1b3e 7D150000 		.4byte	0x157d
 4734 1b42 FC030000 		.4byte	.LLST44
 4735 1b46 3B       		.uleb128 0x3b
 4736 1b47 72150000 		.4byte	0x1572
 4737 1b4b 10040000 		.4byte	.LLST45
 4738 1b4f 39       		.uleb128 0x39
 4739 1b50 32030000 		.4byte	.LBB206
 4740 1b54 1A000000 		.4byte	.LBE206-.LBB206
 4741 1b58 661B0000 		.4byte	0x1b66
 4742 1b5c 37       		.uleb128 0x37
 4743 1b5d 89150000 		.4byte	0x1589
 4744 1b61 28040000 		.4byte	.LLST46
 4745 1b65 00       		.byte	0
 4746 1b66 3A       		.uleb128 0x3a
 4747 1b67 E5130000 		.4byte	0x13e5
 4748 1b6b 4C030000 		.4byte	.LBB207
 4749 1b6f 10000000 		.4byte	.LBE207-.LBB207
 4750 1b73 03       		.byte	0x3
ARM GAS  C:\Users\ISAKVO~1\AppData\Local\Temp\ccR1W42h.s 			page 119


 4751 1b74 2E       		.byte	0x2e
 4752 1b75 3B       		.uleb128 0x3b
 4753 1b76 FE130000 		.4byte	0x13fe
 4754 1b7a 52040000 		.4byte	.LLST47
 4755 1b7e 3B       		.uleb128 0x3b
 4756 1b7f F2130000 		.4byte	0x13f2
 4757 1b83 66040000 		.4byte	.LLST48
 4758 1b87 3C       		.uleb128 0x3c
 4759 1b88 96150000 		.4byte	0x1596
 4760 1b8c 4C030000 		.4byte	.LBB208
 4761 1b90 10000000 		.4byte	.LBE208-.LBB208
 4762 1b94 11       		.byte	0x11
 4763 1b95 AF01     		.2byte	0x1af
 4764 1b97 3B       		.uleb128 0x3b
 4765 1b98 BB150000 		.4byte	0x15bb
 4766 1b9c 52040000 		.4byte	.LLST47
 4767 1ba0 3B       		.uleb128 0x3b
 4768 1ba1 AF150000 		.4byte	0x15af
 4769 1ba5 66040000 		.4byte	.LLST48
 4770 1ba9 3B       		.uleb128 0x3b
 4771 1baa A3150000 		.4byte	0x15a3
 4772 1bae 7E040000 		.4byte	.LLST51
 4773 1bb2 34       		.uleb128 0x34
 4774 1bb3 5C030000 		.4byte	.LVL96
 4775 1bb7 A7200000 		.4byte	0x20a7
 4776 1bbb 35       		.uleb128 0x35
 4777 1bbc 01       		.uleb128 0x1
 4778 1bbd 50       		.byte	0x50
 4779 1bbe 05       		.uleb128 0x5
 4780 1bbf 0C       		.byte	0xc
 4781 1bc0 00006640 		.4byte	0x40660000
 4782 1bc4 35       		.uleb128 0x35
 4783 1bc5 01       		.uleb128 0x1
 4784 1bc6 51       		.byte	0x51
 4785 1bc7 02       		.uleb128 0x2
 4786 1bc8 74       		.byte	0x74
 4787 1bc9 00       		.sleb128 0
 4788 1bca 35       		.uleb128 0x35
 4789 1bcb 01       		.uleb128 0x1
 4790 1bcc 52       		.byte	0x52
 4791 1bcd 01       		.uleb128 0x1
 4792 1bce 3B       		.byte	0x3b
 4793 1bcf 00       		.byte	0
 4794 1bd0 00       		.byte	0
 4795 1bd1 00       		.byte	0
 4796 1bd2 00       		.byte	0
 4797 1bd3 32       		.uleb128 0x32
 4798 1bd4 0B140000 		.4byte	0x140b
 4799 1bd8 88030000 		.4byte	.LBB210
 4800 1bdc 22000000 		.4byte	.LBE210-.LBB210
 4801 1be0 04       		.byte	0x4
 4802 1be1 AA       		.byte	0xaa
 4803 1be2 0E1C0000 		.4byte	0x1c0e
 4804 1be6 3B       		.uleb128 0x3b
 4805 1be7 20140000 		.4byte	0x1420
 4806 1beb 96040000 		.4byte	.LLST52
 4807 1bef 3B       		.uleb128 0x3b
ARM GAS  C:\Users\ISAKVO~1\AppData\Local\Temp\ccR1W42h.s 			page 120


 4808 1bf0 17140000 		.4byte	0x1417
 4809 1bf4 C0040000 		.4byte	.LLST53
 4810 1bf8 36       		.uleb128 0x36
 4811 1bf9 88030000 		.4byte	.LBB211
 4812 1bfd 22000000 		.4byte	.LBE211-.LBB211
 4813 1c01 3F       		.uleb128 0x3f
 4814 1c02 29140000 		.4byte	0x1429
 4815 1c06 05       		.uleb128 0x5
 4816 1c07 03       		.byte	0x3
 4817 1c08 3F000000 		.4byte	figure_index.15747
 4818 1c0c 00       		.byte	0
 4819 1c0d 00       		.byte	0
 4820 1c0e 39       		.uleb128 0x39
 4821 1c0f BE030000 		.4byte	.LBB212
 4822 1c13 8A000000 		.4byte	.LBE212-.LBB212
 4823 1c17 951C0000 		.4byte	0x1c95
 4824 1c1b 37       		.uleb128 0x37
 4825 1c1c 4A150000 		.4byte	0x154a
 4826 1c20 EA040000 		.4byte	.LLST54
 4827 1c24 37       		.uleb128 0x37
 4828 1c25 53150000 		.4byte	0x1553
 4829 1c29 08050000 		.4byte	.LLST55
 4830 1c2d 32       		.uleb128 0x32
 4831 1c2e 0B140000 		.4byte	0x140b
 4832 1c32 22040000 		.4byte	.LBB213
 4833 1c36 14000000 		.4byte	.LBE213-.LBB213
 4834 1c3a 04       		.byte	0x4
 4835 1c3b BB       		.byte	0xbb
 4836 1c3c 601C0000 		.4byte	0x1c60
 4837 1c40 40       		.uleb128 0x40
 4838 1c41 20140000 		.4byte	0x1420
 4839 1c45 40       		.uleb128 0x40
 4840 1c46 17140000 		.4byte	0x1417
 4841 1c4a 36       		.uleb128 0x36
 4842 1c4b 22040000 		.4byte	.LBB214
 4843 1c4f 14000000 		.4byte	.LBE214-.LBB214
 4844 1c53 3F       		.uleb128 0x3f
 4845 1c54 29140000 		.4byte	0x1429
 4846 1c58 05       		.uleb128 0x5
 4847 1c59 03       		.byte	0x3
 4848 1c5a 3F000000 		.4byte	figure_index.15747
 4849 1c5e 00       		.byte	0
 4850 1c5f 00       		.byte	0
 4851 1c60 33       		.uleb128 0x33
 4852 1c61 C2030000 		.4byte	.LVL102
 4853 1c65 B2200000 		.4byte	0x20b2
 4854 1c69 33       		.uleb128 0x33
 4855 1c6a D8030000 		.4byte	.LVL104
 4856 1c6e B2200000 		.4byte	0x20b2
 4857 1c72 33       		.uleb128 0x33
 4858 1c73 EE030000 		.4byte	.LVL107
 4859 1c77 B2200000 		.4byte	0x20b2
 4860 1c7b 33       		.uleb128 0x33
 4861 1c7c 04040000 		.4byte	.LVL109
 4862 1c80 B2200000 		.4byte	0x20b2
 4863 1c84 34       		.uleb128 0x34
 4864 1c85 48040000 		.4byte	.LVL115
ARM GAS  C:\Users\ISAKVO~1\AppData\Local\Temp\ccR1W42h.s 			page 121


 4865 1c89 BD200000 		.4byte	0x20bd
 4866 1c8d 35       		.uleb128 0x35
 4867 1c8e 01       		.uleb128 0x1
 4868 1c8f 50       		.byte	0x50
 4869 1c90 02       		.uleb128 0x2
 4870 1c91 08       		.byte	0x8
 4871 1c92 32       		.byte	0x32
 4872 1c93 00       		.byte	0
 4873 1c94 00       		.byte	0
 4874 1c95 32       		.uleb128 0x32
 4875 1c96 66150000 		.4byte	0x1566
 4876 1c9a 48040000 		.4byte	.LBB215
 4877 1c9e 44000000 		.4byte	.LBE215-.LBB215
 4878 1ca2 04       		.byte	0x4
 4879 1ca3 C1       		.byte	0xc1
 4880 1ca4 3E1D0000 		.4byte	0x1d3e
 4881 1ca8 3B       		.uleb128 0x3b
 4882 1ca9 7D150000 		.4byte	0x157d
 4883 1cad 26050000 		.4byte	.LLST56
 4884 1cb1 3B       		.uleb128 0x3b
 4885 1cb2 72150000 		.4byte	0x1572
 4886 1cb6 3A050000 		.4byte	.LLST57
 4887 1cba 39       		.uleb128 0x39
 4888 1cbb 56040000 		.4byte	.LBB217
 4889 1cbf 1A000000 		.4byte	.LBE217-.LBB217
 4890 1cc3 D11C0000 		.4byte	0x1cd1
 4891 1cc7 37       		.uleb128 0x37
 4892 1cc8 89150000 		.4byte	0x1589
 4893 1ccc 52050000 		.4byte	.LLST58
 4894 1cd0 00       		.byte	0
 4895 1cd1 3A       		.uleb128 0x3a
 4896 1cd2 E5130000 		.4byte	0x13e5
 4897 1cd6 70040000 		.4byte	.LBB218
 4898 1cda 10000000 		.4byte	.LBE218-.LBB218
 4899 1cde 03       		.byte	0x3
 4900 1cdf 2E       		.byte	0x2e
 4901 1ce0 3B       		.uleb128 0x3b
 4902 1ce1 FE130000 		.4byte	0x13fe
 4903 1ce5 7C050000 		.4byte	.LLST59
 4904 1ce9 3B       		.uleb128 0x3b
 4905 1cea F2130000 		.4byte	0x13f2
 4906 1cee 90050000 		.4byte	.LLST60
 4907 1cf2 3C       		.uleb128 0x3c
 4908 1cf3 96150000 		.4byte	0x1596
 4909 1cf7 70040000 		.4byte	.LBB219
 4910 1cfb 10000000 		.4byte	.LBE219-.LBB219
 4911 1cff 11       		.byte	0x11
 4912 1d00 AF01     		.2byte	0x1af
 4913 1d02 3B       		.uleb128 0x3b
 4914 1d03 BB150000 		.4byte	0x15bb
 4915 1d07 7C050000 		.4byte	.LLST59
 4916 1d0b 3B       		.uleb128 0x3b
 4917 1d0c AF150000 		.4byte	0x15af
 4918 1d10 90050000 		.4byte	.LLST60
 4919 1d14 3B       		.uleb128 0x3b
 4920 1d15 A3150000 		.4byte	0x15a3
 4921 1d19 A8050000 		.4byte	.LLST63
ARM GAS  C:\Users\ISAKVO~1\AppData\Local\Temp\ccR1W42h.s 			page 122


 4922 1d1d 34       		.uleb128 0x34
 4923 1d1e 80040000 		.4byte	.LVL121
 4924 1d22 A7200000 		.4byte	0x20a7
 4925 1d26 35       		.uleb128 0x35
 4926 1d27 01       		.uleb128 0x1
 4927 1d28 50       		.byte	0x50
 4928 1d29 05       		.uleb128 0x5
 4929 1d2a 0C       		.byte	0xc
 4930 1d2b 00006640 		.4byte	0x40660000
 4931 1d2f 35       		.uleb128 0x35
 4932 1d30 01       		.uleb128 0x1
 4933 1d31 51       		.byte	0x51
 4934 1d32 02       		.uleb128 0x2
 4935 1d33 74       		.byte	0x74
 4936 1d34 00       		.sleb128 0
 4937 1d35 35       		.uleb128 0x35
 4938 1d36 01       		.uleb128 0x1
 4939 1d37 52       		.byte	0x52
 4940 1d38 01       		.uleb128 0x1
 4941 1d39 3B       		.byte	0x3b
 4942 1d3a 00       		.byte	0
 4943 1d3b 00       		.byte	0
 4944 1d3c 00       		.byte	0
 4945 1d3d 00       		.byte	0
 4946 1d3e 32       		.uleb128 0x32
 4947 1d3f 0B140000 		.4byte	0x140b
 4948 1d43 B2040000 		.4byte	.LBB221
 4949 1d47 24000000 		.4byte	.LBE221-.LBB221
 4950 1d4b 04       		.byte	0x4
 4951 1d4c C8       		.byte	0xc8
 4952 1d4d 791D0000 		.4byte	0x1d79
 4953 1d51 3B       		.uleb128 0x3b
 4954 1d52 20140000 		.4byte	0x1420
 4955 1d56 C0050000 		.4byte	.LLST64
 4956 1d5a 3B       		.uleb128 0x3b
 4957 1d5b 17140000 		.4byte	0x1417
 4958 1d5f FC050000 		.4byte	.LLST65
 4959 1d63 36       		.uleb128 0x36
 4960 1d64 B2040000 		.4byte	.LBB222
 4961 1d68 24000000 		.4byte	.LBE222-.LBB222
 4962 1d6c 3F       		.uleb128 0x3f
 4963 1d6d 29140000 		.4byte	0x1429
 4964 1d71 05       		.uleb128 0x5
 4965 1d72 03       		.byte	0x3
 4966 1d73 3F000000 		.4byte	figure_index.15747
 4967 1d77 00       		.byte	0
 4968 1d78 00       		.byte	0
 4969 1d79 32       		.uleb128 0x32
 4970 1d7a 66150000 		.4byte	0x1566
 4971 1d7e D6040000 		.4byte	.LBB223
 4972 1d82 42000000 		.4byte	.LBE223-.LBB223
 4973 1d86 04       		.byte	0x4
 4974 1d87 C9       		.byte	0xc9
 4975 1d88 221E0000 		.4byte	0x1e22
 4976 1d8c 3B       		.uleb128 0x3b
 4977 1d8d 7D150000 		.4byte	0x157d
 4978 1d91 0F060000 		.4byte	.LLST66
ARM GAS  C:\Users\ISAKVO~1\AppData\Local\Temp\ccR1W42h.s 			page 123


 4979 1d95 3B       		.uleb128 0x3b
 4980 1d96 72150000 		.4byte	0x1572
 4981 1d9a 23060000 		.4byte	.LLST67
 4982 1d9e 39       		.uleb128 0x39
 4983 1d9f E4040000 		.4byte	.LBB225
 4984 1da3 1A000000 		.4byte	.LBE225-.LBB225
 4985 1da7 B51D0000 		.4byte	0x1db5
 4986 1dab 37       		.uleb128 0x37
 4987 1dac 89150000 		.4byte	0x1589
 4988 1db0 3B060000 		.4byte	.LLST68
 4989 1db4 00       		.byte	0
 4990 1db5 3A       		.uleb128 0x3a
 4991 1db6 E5130000 		.4byte	0x13e5
 4992 1dba FE040000 		.4byte	.LBB226
 4993 1dbe 10000000 		.4byte	.LBE226-.LBB226
 4994 1dc2 03       		.byte	0x3
 4995 1dc3 2E       		.byte	0x2e
 4996 1dc4 3B       		.uleb128 0x3b
 4997 1dc5 FE130000 		.4byte	0x13fe
 4998 1dc9 65060000 		.4byte	.LLST69
 4999 1dcd 3B       		.uleb128 0x3b
 5000 1dce F2130000 		.4byte	0x13f2
 5001 1dd2 79060000 		.4byte	.LLST70
 5002 1dd6 3C       		.uleb128 0x3c
 5003 1dd7 96150000 		.4byte	0x1596
 5004 1ddb FE040000 		.4byte	.LBB227
 5005 1ddf 10000000 		.4byte	.LBE227-.LBB227
 5006 1de3 11       		.byte	0x11
 5007 1de4 AF01     		.2byte	0x1af
 5008 1de6 3B       		.uleb128 0x3b
 5009 1de7 BB150000 		.4byte	0x15bb
 5010 1deb 65060000 		.4byte	.LLST69
 5011 1def 3B       		.uleb128 0x3b
 5012 1df0 AF150000 		.4byte	0x15af
 5013 1df4 79060000 		.4byte	.LLST70
 5014 1df8 3B       		.uleb128 0x3b
 5015 1df9 A3150000 		.4byte	0x15a3
 5016 1dfd 91060000 		.4byte	.LLST73
 5017 1e01 34       		.uleb128 0x34
 5018 1e02 0E050000 		.4byte	.LVL134
 5019 1e06 A7200000 		.4byte	0x20a7
 5020 1e0a 35       		.uleb128 0x35
 5021 1e0b 01       		.uleb128 0x1
 5022 1e0c 50       		.byte	0x50
 5023 1e0d 05       		.uleb128 0x5
 5024 1e0e 0C       		.byte	0xc
 5025 1e0f 00006640 		.4byte	0x40660000
 5026 1e13 35       		.uleb128 0x35
 5027 1e14 01       		.uleb128 0x1
 5028 1e15 51       		.byte	0x51
 5029 1e16 02       		.uleb128 0x2
 5030 1e17 75       		.byte	0x75
 5031 1e18 00       		.sleb128 0
 5032 1e19 35       		.uleb128 0x35
 5033 1e1a 01       		.uleb128 0x1
 5034 1e1b 52       		.byte	0x52
 5035 1e1c 01       		.uleb128 0x1
ARM GAS  C:\Users\ISAKVO~1\AppData\Local\Temp\ccR1W42h.s 			page 124


 5036 1e1d 3B       		.byte	0x3b
 5037 1e1e 00       		.byte	0
 5038 1e1f 00       		.byte	0
 5039 1e20 00       		.byte	0
 5040 1e21 00       		.byte	0
 5041 1e22 3D       		.uleb128 0x3d
 5042 1e23 60010000 		.4byte	.LVL43
 5043 1e27 9C200000 		.4byte	0x209c
 5044 1e2b 411E0000 		.4byte	0x1e41
 5045 1e2f 35       		.uleb128 0x35
 5046 1e30 01       		.uleb128 0x1
 5047 1e31 50       		.byte	0x50
 5048 1e32 02       		.uleb128 0x2
 5049 1e33 74       		.byte	0x74
 5050 1e34 18       		.sleb128 24
 5051 1e35 35       		.uleb128 0x35
 5052 1e36 01       		.uleb128 0x1
 5053 1e37 51       		.byte	0x51
 5054 1e38 02       		.uleb128 0x2
 5055 1e39 74       		.byte	0x74
 5056 1e3a 28       		.sleb128 40
 5057 1e3b 35       		.uleb128 0x35
 5058 1e3c 01       		.uleb128 0x1
 5059 1e3d 52       		.byte	0x52
 5060 1e3e 01       		.uleb128 0x1
 5061 1e3f 32       		.byte	0x32
 5062 1e40 00       		.byte	0
 5063 1e41 3D       		.uleb128 0x3d
 5064 1e42 BC020000 		.4byte	.LVL86
 5065 1e46 BD200000 		.4byte	0x20bd
 5066 1e4a 551E0000 		.4byte	0x1e55
 5067 1e4e 35       		.uleb128 0x35
 5068 1e4f 01       		.uleb128 0x1
 5069 1e50 50       		.byte	0x50
 5070 1e51 02       		.uleb128 0x2
 5071 1e52 08       		.byte	0x8
 5072 1e53 32       		.byte	0x32
 5073 1e54 00       		.byte	0
 5074 1e55 33       		.uleb128 0x33
 5075 1e56 90040000 		.4byte	.LVL123
 5076 1e5a B2200000 		.4byte	0x20b2
 5077 1e5e 33       		.uleb128 0x33
 5078 1e5f A4040000 		.4byte	.LVL124
 5079 1e63 B2200000 		.4byte	0x20b2
 5080 1e67 34       		.uleb128 0x34
 5081 1e68 1E050000 		.4byte	.LVL136
 5082 1e6c BD200000 		.4byte	0x20bd
 5083 1e70 35       		.uleb128 0x35
 5084 1e71 01       		.uleb128 0x1
 5085 1e72 50       		.byte	0x50
 5086 1e73 02       		.uleb128 0x2
 5087 1e74 08       		.byte	0x8
 5088 1e75 32       		.byte	0x32
 5089 1e76 00       		.byte	0
 5090 1e77 00       		.byte	0
 5091 1e78 41       		.uleb128 0x41
 5092 1e79 DA140000 		.4byte	0x14da
ARM GAS  C:\Users\ISAKVO~1\AppData\Local\Temp\ccR1W42h.s 			page 125


 5093 1e7d 6C020000 		.4byte	.LBB231
 5094 1e81 98000000 		.4byte	.Ldebug_ranges0+0x98
 5095 1e85 04       		.byte	0x4
 5096 1e86 0401     		.2byte	0x104
 5097 1e88 42       		.uleb128 0x42
 5098 1e89 B8000000 		.4byte	.Ldebug_ranges0+0xb8
 5099 1e8d 9B1E0000 		.4byte	0x1e9b
 5100 1e91 37       		.uleb128 0x37
 5101 1e92 EB140000 		.4byte	0x14eb
 5102 1e96 A9060000 		.4byte	.LLST74
 5103 1e9a 00       		.byte	0
 5104 1e9b 38       		.uleb128 0x38
 5105 1e9c E0000000 		.4byte	.Ldebug_ranges0+0xe0
 5106 1ea0 37       		.uleb128 0x37
 5107 1ea1 F8140000 		.4byte	0x14f8
 5108 1ea5 DD060000 		.4byte	.LLST75
 5109 1ea9 38       		.uleb128 0x38
 5110 1eaa F8000000 		.4byte	.Ldebug_ranges0+0xf8
 5111 1eae 37       		.uleb128 0x37
 5112 1eaf 02150000 		.4byte	0x1502
 5113 1eb3 FB060000 		.4byte	.LLST76
 5114 1eb7 42       		.uleb128 0x42
 5115 1eb8 18010000 		.4byte	.Ldebug_ranges0+0x118
 5116 1ebc CA1E0000 		.4byte	0x1eca
 5117 1ec0 37       		.uleb128 0x37
 5118 1ec1 2E150000 		.4byte	0x152e
 5119 1ec5 19070000 		.4byte	.LLST77
 5120 1ec9 00       		.byte	0
 5121 1eca 42       		.uleb128 0x42
 5122 1ecb 30010000 		.4byte	.Ldebug_ranges0+0x130
 5123 1ecf DD1E0000 		.4byte	0x1edd
 5124 1ed3 37       		.uleb128 0x37
 5125 1ed4 12150000 		.4byte	0x1512
 5126 1ed8 43070000 		.4byte	.LLST78
 5127 1edc 00       		.byte	0
 5128 1edd 36       		.uleb128 0x36
 5129 1ede 7A050000 		.4byte	.LBB240
 5130 1ee2 12000000 		.4byte	.LBE240-.LBB240
 5131 1ee6 37       		.uleb128 0x37
 5132 1ee7 21150000 		.4byte	0x1521
 5133 1eeb 77070000 		.4byte	.LLST79
 5134 1eef 00       		.byte	0
 5135 1ef0 00       		.byte	0
 5136 1ef1 00       		.byte	0
 5137 1ef2 00       		.byte	0
 5138 1ef3 00       		.byte	0
 5139 1ef4 00       		.byte	0
 5140 1ef5 07       		.uleb128 0x7
 5141 1ef6 F2120000 		.4byte	0x12f2
 5142 1efa 051F0000 		.4byte	0x1f05
 5143 1efe 08       		.uleb128 0x8
 5144 1eff D9000000 		.4byte	0xd9
 5145 1f03 03       		.byte	0x3
 5146 1f04 00       		.byte	0
 5147 1f05 43       		.uleb128 0x43
 5148 1f06 43010000 		.4byte	.LASF341
 5149 1f0a 03       		.byte	0x3
ARM GAS  C:\Users\ISAKVO~1\AppData\Local\Temp\ccR1W42h.s 			page 126


 5150 1f0b 0B       		.byte	0xb
 5151 1f0c F51E0000 		.4byte	0x1ef5
 5152 1f10 05       		.uleb128 0x5
 5153 1f11 03       		.byte	0x3
 5154 1f12 2C000000 		.4byte	communication_receive_buffer
 5155 1f16 07       		.uleb128 0x7
 5156 1f17 F2120000 		.4byte	0x12f2
 5157 1f1b 261F0000 		.4byte	0x1f26
 5158 1f1f 08       		.uleb128 0x8
 5159 1f20 D9000000 		.4byte	0xd9
 5160 1f24 0A       		.byte	0xa
 5161 1f25 00       		.byte	0
 5162 1f26 43       		.uleb128 0x43
 5163 1f27 B6110000 		.4byte	.LASF342
 5164 1f2b 03       		.byte	0x3
 5165 1f2c 0C       		.byte	0xc
 5166 1f2d 161F0000 		.4byte	0x1f16
 5167 1f31 05       		.uleb128 0x5
 5168 1f32 03       		.byte	0x3
 5169 1f33 34000000 		.4byte	communication_send_buffer
 5170 1f37 43       		.uleb128 0x43
 5171 1f38 8C060000 		.4byte	.LASF343
 5172 1f3c 04       		.byte	0x4
 5173 1f3d 0D       		.byte	0xd
 5174 1f3e F2120000 		.4byte	0x12f2
 5175 1f42 05       		.uleb128 0x5
 5176 1f43 03       		.byte	0x3
 5177 1f44 00000000 		.4byte	game_running
 5178 1f48 43       		.uleb128 0x43
 5179 1f49 58090000 		.4byte	.LASF344
 5180 1f4d 04       		.byte	0x4
 5181 1f4e 0E       		.byte	0xe
 5182 1f4f F2120000 		.4byte	0x12f2
 5183 1f53 05       		.uleb128 0x5
 5184 1f54 03       		.byte	0x3
 5185 1f55 01000000 		.4byte	man_turn
 5186 1f59 07       		.uleb128 0x7
 5187 1f5a F2120000 		.4byte	0x12f2
 5188 1f5e 691F0000 		.4byte	0x1f69
 5189 1f62 08       		.uleb128 0x8
 5190 1f63 D9000000 		.4byte	0xd9
 5191 1f67 08       		.byte	0x8
 5192 1f68 00       		.byte	0
 5193 1f69 43       		.uleb128 0x43
 5194 1f6a 19090000 		.4byte	.LASF345
 5195 1f6e 04       		.byte	0x4
 5196 1f6f 10       		.byte	0x10
 5197 1f70 591F0000 		.4byte	0x1f59
 5198 1f74 05       		.uleb128 0x5
 5199 1f75 03       		.byte	0x3
 5200 1f76 00000000 		.4byte	figures
 5201 1f7a 43       		.uleb128 0x43
 5202 1f7b 3D080000 		.4byte	.LASF346
 5203 1f7f 04       		.byte	0x4
 5204 1f80 11       		.byte	0x11
 5205 1f81 48130000 		.4byte	0x1348
 5206 1f85 05       		.uleb128 0x5
ARM GAS  C:\Users\ISAKVO~1\AppData\Local\Temp\ccR1W42h.s 			page 127


 5207 1f86 03       		.byte	0x3
 5208 1f87 30000000 		.4byte	type
 5209 1f8b 07       		.uleb128 0x7
 5210 1f8c F2120000 		.4byte	0x12f2
 5211 1f90 9B1F0000 		.4byte	0x1f9b
 5212 1f94 08       		.uleb128 0x8
 5213 1f95 D9000000 		.4byte	0xd9
 5214 1f99 01       		.byte	0x1
 5215 1f9a 00       		.byte	0
 5216 1f9b 43       		.uleb128 0x43
 5217 1f9c A4040000 		.4byte	.LASF347
 5218 1fa0 04       		.byte	0x4
 5219 1fa1 13       		.byte	0x13
 5220 1fa2 8B1F0000 		.4byte	0x1f8b
 5221 1fa6 05       		.uleb128 0x5
 5222 1fa7 03       		.byte	0x3
 5223 1fa8 18000000 		.4byte	game_packet
 5224 1fac 43       		.uleb128 0x43
 5225 1fad B3000000 		.4byte	.LASF348
 5226 1fb1 04       		.byte	0x4
 5227 1fb2 14       		.byte	0x14
 5228 1fb3 8B1F0000 		.4byte	0x1f8b
 5229 1fb7 05       		.uleb128 0x5
 5230 1fb8 03       		.byte	0x3
 5231 1fb9 1C000000 		.4byte	man_vs_man_packet
 5232 1fbd 43       		.uleb128 0x43
 5233 1fbe 61090000 		.4byte	.LASF349
 5234 1fc2 04       		.byte	0x4
 5235 1fc3 15       		.byte	0x15
 5236 1fc4 8B1F0000 		.4byte	0x1f8b
 5237 1fc8 05       		.uleb128 0x5
 5238 1fc9 03       		.byte	0x3
 5239 1fca 20000000 		.4byte	man_vs_ai_packet
 5240 1fce 43       		.uleb128 0x43
 5241 1fcf FB090000 		.4byte	.LASF350
 5242 1fd3 04       		.byte	0x4
 5243 1fd4 16       		.byte	0x16
 5244 1fd5 8B1F0000 		.4byte	0x1f8b
 5245 1fd9 05       		.uleb128 0x5
 5246 1fda 03       		.byte	0x3
 5247 1fdb 24000000 		.4byte	ai_vs_ai_packet
 5248 1fdf 43       		.uleb128 0x43
 5249 1fe0 7F060000 		.4byte	.LASF351
 5250 1fe4 04       		.byte	0x4
 5251 1fe5 17       		.byte	0x17
 5252 1fe6 8B1F0000 		.4byte	0x1f8b
 5253 1fea 05       		.uleb128 0x5
 5254 1feb 03       		.byte	0x3
 5255 1fec 28000000 		.4byte	reset_packet
 5256 1ff0 43       		.uleb128 0x43
 5257 1ff1 630E0000 		.4byte	.LASF352
 5258 1ff5 04       		.byte	0x4
 5259 1ff6 19       		.byte	0x19
 5260 1ff7 591F0000 		.4byte	0x1f59
 5261 1ffb 05       		.uleb128 0x5
 5262 1ffc 03       		.byte	0x3
 5263 1ffd 0C000000 		.4byte	win_packet
ARM GAS  C:\Users\ISAKVO~1\AppData\Local\Temp\ccR1W42h.s 			page 128


 5264 2001 2A       		.uleb128 0x2a
 5265 2002 FD0C0000 		.4byte	.LASF353
 5266 2006 04       		.byte	0x4
 5267 2007 1A       		.byte	0x1a
 5268 2008 591F0000 		.4byte	0x1f59
 5269 200c 44       		.uleb128 0x44
 5270 200d CD060000 		.4byte	.LASF354
 5271 2011 12       		.byte	0x12
 5272 2012 F907     		.2byte	0x7f9
 5273 2014 18200000 		.4byte	0x2018
 5274 2018 05       		.uleb128 0x5
 5275 2019 C3000000 		.4byte	0xc3
 5276 201d 45       		.uleb128 0x45
 5277 201e 7E000000 		.4byte	.LASF355
 5278 2022 0A       		.byte	0xa
 5279 2023 A7       		.byte	0xa7
 5280 2024 28200000 		.4byte	0x2028
 5281 2028 0F       		.uleb128 0xf
 5282 2029 04       		.byte	0x4
 5283 202a 2E200000 		.4byte	0x202e
 5284 202e 06       		.uleb128 0x6
 5285 202f DF090000 		.4byte	0x9df
 5286 2033 45       		.uleb128 0x45
 5287 2034 3B100000 		.4byte	.LASF356
 5288 2038 11       		.byte	0x11
 5289 2039 87       		.byte	0x87
 5290 203a FC0A0000 		.4byte	0xafc
 5291 203e 44       		.uleb128 0x44
 5292 203f F4030000 		.4byte	.LASF357
 5293 2043 0F       		.byte	0xf
 5294 2044 FD02     		.2byte	0x2fd
 5295 2046 9F0E0000 		.4byte	0xe9f
 5296 204a 07       		.uleb128 0x7
 5297 204b 60200000 		.4byte	0x2060
 5298 204f 60200000 		.4byte	0x2060
 5299 2053 08       		.uleb128 0x8
 5300 2054 D9000000 		.4byte	0xd9
 5301 2058 07       		.byte	0x7
 5302 2059 08       		.uleb128 0x8
 5303 205a D9000000 		.4byte	0xd9
 5304 205e 08       		.byte	0x8
 5305 205f 00       		.byte	0
 5306 2060 06       		.uleb128 0x6
 5307 2061 F2120000 		.4byte	0x12f2
 5308 2065 46       		.uleb128 0x46
 5309 2066 FD0E0000 		.4byte	.LASF358
 5310 206a 13       		.byte	0x13
 5311 206b 1E       		.byte	0x1e
 5312 206c 76200000 		.4byte	0x2076
 5313 2070 05       		.uleb128 0x5
 5314 2071 03       		.byte	0x3
 5315 2072 00000000 		.4byte	win_masks
 5316 2076 06       		.uleb128 0x6
 5317 2077 4A200000 		.4byte	0x204a
 5318 207b 47       		.uleb128 0x47
 5319 207c 84050000 		.4byte	.LASF359
 5320 2080 84050000 		.4byte	.LASF359
ARM GAS  C:\Users\ISAKVO~1\AppData\Local\Temp\ccR1W42h.s 			page 129


 5321 2084 11       		.byte	0x11
 5322 2085 31       		.byte	0x31
 5323 2086 47       		.uleb128 0x47
 5324 2087 88000000 		.4byte	.LASF360
 5325 208b 88000000 		.4byte	.LASF360
 5326 208f 14       		.byte	0x14
 5327 2090 B6       		.byte	0xb6
 5328 2091 47       		.uleb128 0x47
 5329 2092 72090000 		.4byte	.LASF361
 5330 2096 72090000 		.4byte	.LASF361
 5331 209a 15       		.byte	0x15
 5332 209b DE       		.byte	0xde
 5333 209c 47       		.uleb128 0x47
 5334 209d 57060000 		.4byte	.LASF362
 5335 20a1 57060000 		.4byte	.LASF362
 5336 20a5 16       		.byte	0x16
 5337 20a6 16       		.byte	0x16
 5338 20a7 47       		.uleb128 0x47
 5339 20a8 BB100000 		.4byte	.LASF363
 5340 20ac BB100000 		.4byte	.LASF363
 5341 20b0 15       		.byte	0x15
 5342 20b1 E2       		.byte	0xe2
 5343 20b2 47       		.uleb128 0x47
 5344 20b3 7C080000 		.4byte	.LASF364
 5345 20b7 7C080000 		.4byte	.LASF364
 5346 20bb 17       		.byte	0x17
 5347 20bc 88       		.byte	0x88
 5348 20bd 48       		.uleb128 0x48
 5349 20be 49110000 		.4byte	.LASF365
 5350 20c2 49110000 		.4byte	.LASF365
 5351 20c6 0B       		.byte	0xb
 5352 20c7 8903     		.2byte	0x389
 5353 20c9 00       		.byte	0
 5354              		.section	.debug_abbrev,"",%progbits
 5355              	.Ldebug_abbrev0:
 5356 0000 01       		.uleb128 0x1
 5357 0001 11       		.uleb128 0x11
 5358 0002 01       		.byte	0x1
 5359 0003 25       		.uleb128 0x25
 5360 0004 0E       		.uleb128 0xe
 5361 0005 13       		.uleb128 0x13
 5362 0006 0B       		.uleb128 0xb
 5363 0007 03       		.uleb128 0x3
 5364 0008 0E       		.uleb128 0xe
 5365 0009 1B       		.uleb128 0x1b
 5366 000a 0E       		.uleb128 0xe
 5367 000b 55       		.uleb128 0x55
 5368 000c 17       		.uleb128 0x17
 5369 000d 11       		.uleb128 0x11
 5370 000e 01       		.uleb128 0x1
 5371 000f 10       		.uleb128 0x10
 5372 0010 17       		.uleb128 0x17
 5373 0011 00       		.byte	0
 5374 0012 00       		.byte	0
 5375 0013 02       		.uleb128 0x2
 5376 0014 24       		.uleb128 0x24
 5377 0015 00       		.byte	0
ARM GAS  C:\Users\ISAKVO~1\AppData\Local\Temp\ccR1W42h.s 			page 130


 5378 0016 0B       		.uleb128 0xb
 5379 0017 0B       		.uleb128 0xb
 5380 0018 3E       		.uleb128 0x3e
 5381 0019 0B       		.uleb128 0xb
 5382 001a 03       		.uleb128 0x3
 5383 001b 0E       		.uleb128 0xe
 5384 001c 00       		.byte	0
 5385 001d 00       		.byte	0
 5386 001e 03       		.uleb128 0x3
 5387 001f 24       		.uleb128 0x24
 5388 0020 00       		.byte	0
 5389 0021 0B       		.uleb128 0xb
 5390 0022 0B       		.uleb128 0xb
 5391 0023 3E       		.uleb128 0x3e
 5392 0024 0B       		.uleb128 0xb
 5393 0025 03       		.uleb128 0x3
 5394 0026 08       		.uleb128 0x8
 5395 0027 00       		.byte	0
 5396 0028 00       		.byte	0
 5397 0029 04       		.uleb128 0x4
 5398 002a 16       		.uleb128 0x16
 5399 002b 00       		.byte	0
 5400 002c 03       		.uleb128 0x3
 5401 002d 0E       		.uleb128 0xe
 5402 002e 3A       		.uleb128 0x3a
 5403 002f 0B       		.uleb128 0xb
 5404 0030 3B       		.uleb128 0x3b
 5405 0031 0B       		.uleb128 0xb
 5406 0032 49       		.uleb128 0x49
 5407 0033 13       		.uleb128 0x13
 5408 0034 00       		.byte	0
 5409 0035 00       		.byte	0
 5410 0036 05       		.uleb128 0x5
 5411 0037 35       		.uleb128 0x35
 5412 0038 00       		.byte	0
 5413 0039 49       		.uleb128 0x49
 5414 003a 13       		.uleb128 0x13
 5415 003b 00       		.byte	0
 5416 003c 00       		.byte	0
 5417 003d 06       		.uleb128 0x6
 5418 003e 26       		.uleb128 0x26
 5419 003f 00       		.byte	0
 5420 0040 49       		.uleb128 0x49
 5421 0041 13       		.uleb128 0x13
 5422 0042 00       		.byte	0
 5423 0043 00       		.byte	0
 5424 0044 07       		.uleb128 0x7
 5425 0045 01       		.uleb128 0x1
 5426 0046 01       		.byte	0x1
 5427 0047 49       		.uleb128 0x49
 5428 0048 13       		.uleb128 0x13
 5429 0049 01       		.uleb128 0x1
 5430 004a 13       		.uleb128 0x13
 5431 004b 00       		.byte	0
 5432 004c 00       		.byte	0
 5433 004d 08       		.uleb128 0x8
 5434 004e 21       		.uleb128 0x21
ARM GAS  C:\Users\ISAKVO~1\AppData\Local\Temp\ccR1W42h.s 			page 131


 5435 004f 00       		.byte	0
 5436 0050 49       		.uleb128 0x49
 5437 0051 13       		.uleb128 0x13
 5438 0052 2F       		.uleb128 0x2f
 5439 0053 0B       		.uleb128 0xb
 5440 0054 00       		.byte	0
 5441 0055 00       		.byte	0
 5442 0056 09       		.uleb128 0x9
 5443 0057 21       		.uleb128 0x21
 5444 0058 00       		.byte	0
 5445 0059 49       		.uleb128 0x49
 5446 005a 13       		.uleb128 0x13
 5447 005b 2F       		.uleb128 0x2f
 5448 005c 05       		.uleb128 0x5
 5449 005d 00       		.byte	0
 5450 005e 00       		.byte	0
 5451 005f 0A       		.uleb128 0xa
 5452 0060 13       		.uleb128 0x13
 5453 0061 01       		.byte	0x1
 5454 0062 0B       		.uleb128 0xb
 5455 0063 05       		.uleb128 0x5
 5456 0064 3A       		.uleb128 0x3a
 5457 0065 0B       		.uleb128 0xb
 5458 0066 3B       		.uleb128 0x3b
 5459 0067 0B       		.uleb128 0xb
 5460 0068 01       		.uleb128 0x1
 5461 0069 13       		.uleb128 0x13
 5462 006a 00       		.byte	0
 5463 006b 00       		.byte	0
 5464 006c 0B       		.uleb128 0xb
 5465 006d 0D       		.uleb128 0xd
 5466 006e 00       		.byte	0
 5467 006f 03       		.uleb128 0x3
 5468 0070 0E       		.uleb128 0xe
 5469 0071 3A       		.uleb128 0x3a
 5470 0072 0B       		.uleb128 0xb
 5471 0073 3B       		.uleb128 0x3b
 5472 0074 0B       		.uleb128 0xb
 5473 0075 49       		.uleb128 0x49
 5474 0076 13       		.uleb128 0x13
 5475 0077 38       		.uleb128 0x38
 5476 0078 0B       		.uleb128 0xb
 5477 0079 00       		.byte	0
 5478 007a 00       		.byte	0
 5479 007b 0C       		.uleb128 0xc
 5480 007c 0D       		.uleb128 0xd
 5481 007d 00       		.byte	0
 5482 007e 03       		.uleb128 0x3
 5483 007f 0E       		.uleb128 0xe
 5484 0080 3A       		.uleb128 0x3a
 5485 0081 0B       		.uleb128 0xb
 5486 0082 3B       		.uleb128 0x3b
 5487 0083 0B       		.uleb128 0xb
 5488 0084 49       		.uleb128 0x49
 5489 0085 13       		.uleb128 0x13
 5490 0086 38       		.uleb128 0x38
 5491 0087 05       		.uleb128 0x5
ARM GAS  C:\Users\ISAKVO~1\AppData\Local\Temp\ccR1W42h.s 			page 132


 5492 0088 00       		.byte	0
 5493 0089 00       		.byte	0
 5494 008a 0D       		.uleb128 0xd
 5495 008b 16       		.uleb128 0x16
 5496 008c 00       		.byte	0
 5497 008d 03       		.uleb128 0x3
 5498 008e 0E       		.uleb128 0xe
 5499 008f 3A       		.uleb128 0x3a
 5500 0090 0B       		.uleb128 0xb
 5501 0091 3B       		.uleb128 0x3b
 5502 0092 05       		.uleb128 0x5
 5503 0093 49       		.uleb128 0x49
 5504 0094 13       		.uleb128 0x13
 5505 0095 00       		.byte	0
 5506 0096 00       		.byte	0
 5507 0097 0E       		.uleb128 0xe
 5508 0098 13       		.uleb128 0x13
 5509 0099 01       		.byte	0x1
 5510 009a 0B       		.uleb128 0xb
 5511 009b 0B       		.uleb128 0xb
 5512 009c 3A       		.uleb128 0x3a
 5513 009d 0B       		.uleb128 0xb
 5514 009e 3B       		.uleb128 0x3b
 5515 009f 0B       		.uleb128 0xb
 5516 00a0 01       		.uleb128 0x1
 5517 00a1 13       		.uleb128 0x13
 5518 00a2 00       		.byte	0
 5519 00a3 00       		.byte	0
 5520 00a4 0F       		.uleb128 0xf
 5521 00a5 0F       		.uleb128 0xf
 5522 00a6 00       		.byte	0
 5523 00a7 0B       		.uleb128 0xb
 5524 00a8 0B       		.uleb128 0xb
 5525 00a9 49       		.uleb128 0x49
 5526 00aa 13       		.uleb128 0x13
 5527 00ab 00       		.byte	0
 5528 00ac 00       		.byte	0
 5529 00ad 10       		.uleb128 0x10
 5530 00ae 15       		.uleb128 0x15
 5531 00af 00       		.byte	0
 5532 00b0 27       		.uleb128 0x27
 5533 00b1 19       		.uleb128 0x19
 5534 00b2 00       		.byte	0
 5535 00b3 00       		.byte	0
 5536 00b4 11       		.uleb128 0x11
 5537 00b5 0F       		.uleb128 0xf
 5538 00b6 00       		.byte	0
 5539 00b7 0B       		.uleb128 0xb
 5540 00b8 0B       		.uleb128 0xb
 5541 00b9 00       		.byte	0
 5542 00ba 00       		.byte	0
 5543 00bb 12       		.uleb128 0x12
 5544 00bc 15       		.uleb128 0x15
 5545 00bd 01       		.byte	0x1
 5546 00be 27       		.uleb128 0x27
 5547 00bf 19       		.uleb128 0x19
 5548 00c0 01       		.uleb128 0x1
ARM GAS  C:\Users\ISAKVO~1\AppData\Local\Temp\ccR1W42h.s 			page 133


 5549 00c1 13       		.uleb128 0x13
 5550 00c2 00       		.byte	0
 5551 00c3 00       		.byte	0
 5552 00c4 13       		.uleb128 0x13
 5553 00c5 05       		.uleb128 0x5
 5554 00c6 00       		.byte	0
 5555 00c7 49       		.uleb128 0x49
 5556 00c8 13       		.uleb128 0x13
 5557 00c9 00       		.byte	0
 5558 00ca 00       		.byte	0
 5559 00cb 14       		.uleb128 0x14
 5560 00cc 13       		.uleb128 0x13
 5561 00cd 01       		.byte	0x1
 5562 00ce 03       		.uleb128 0x3
 5563 00cf 0E       		.uleb128 0xe
 5564 00d0 0B       		.uleb128 0xb
 5565 00d1 0B       		.uleb128 0xb
 5566 00d2 3A       		.uleb128 0x3a
 5567 00d3 0B       		.uleb128 0xb
 5568 00d4 3B       		.uleb128 0x3b
 5569 00d5 05       		.uleb128 0x5
 5570 00d6 01       		.uleb128 0x1
 5571 00d7 13       		.uleb128 0x13
 5572 00d8 00       		.byte	0
 5573 00d9 00       		.byte	0
 5574 00da 15       		.uleb128 0x15
 5575 00db 0D       		.uleb128 0xd
 5576 00dc 00       		.byte	0
 5577 00dd 03       		.uleb128 0x3
 5578 00de 0E       		.uleb128 0xe
 5579 00df 3A       		.uleb128 0x3a
 5580 00e0 0B       		.uleb128 0xb
 5581 00e1 3B       		.uleb128 0x3b
 5582 00e2 05       		.uleb128 0x5
 5583 00e3 49       		.uleb128 0x49
 5584 00e4 13       		.uleb128 0x13
 5585 00e5 38       		.uleb128 0x38
 5586 00e6 0B       		.uleb128 0xb
 5587 00e7 00       		.byte	0
 5588 00e8 00       		.byte	0
 5589 00e9 16       		.uleb128 0x16
 5590 00ea 17       		.uleb128 0x17
 5591 00eb 01       		.byte	0x1
 5592 00ec 0B       		.uleb128 0xb
 5593 00ed 0B       		.uleb128 0xb
 5594 00ee 3A       		.uleb128 0x3a
 5595 00ef 0B       		.uleb128 0xb
 5596 00f0 3B       		.uleb128 0x3b
 5597 00f1 0B       		.uleb128 0xb
 5598 00f2 01       		.uleb128 0x1
 5599 00f3 13       		.uleb128 0x13
 5600 00f4 00       		.byte	0
 5601 00f5 00       		.byte	0
 5602 00f6 17       		.uleb128 0x17
 5603 00f7 0D       		.uleb128 0xd
 5604 00f8 00       		.byte	0
 5605 00f9 03       		.uleb128 0x3
ARM GAS  C:\Users\ISAKVO~1\AppData\Local\Temp\ccR1W42h.s 			page 134


 5606 00fa 0E       		.uleb128 0xe
 5607 00fb 3A       		.uleb128 0x3a
 5608 00fc 0B       		.uleb128 0xb
 5609 00fd 3B       		.uleb128 0x3b
 5610 00fe 0B       		.uleb128 0xb
 5611 00ff 49       		.uleb128 0x49
 5612 0100 13       		.uleb128 0x13
 5613 0101 00       		.byte	0
 5614 0102 00       		.byte	0
 5615 0103 18       		.uleb128 0x18
 5616 0104 13       		.uleb128 0x13
 5617 0105 01       		.byte	0x1
 5618 0106 03       		.uleb128 0x3
 5619 0107 0E       		.uleb128 0xe
 5620 0108 0B       		.uleb128 0xb
 5621 0109 0B       		.uleb128 0xb
 5622 010a 3A       		.uleb128 0x3a
 5623 010b 0B       		.uleb128 0xb
 5624 010c 3B       		.uleb128 0x3b
 5625 010d 0B       		.uleb128 0xb
 5626 010e 01       		.uleb128 0x1
 5627 010f 13       		.uleb128 0x13
 5628 0110 00       		.byte	0
 5629 0111 00       		.byte	0
 5630 0112 19       		.uleb128 0x19
 5631 0113 0D       		.uleb128 0xd
 5632 0114 00       		.byte	0
 5633 0115 03       		.uleb128 0x3
 5634 0116 08       		.uleb128 0x8
 5635 0117 3A       		.uleb128 0x3a
 5636 0118 0B       		.uleb128 0xb
 5637 0119 3B       		.uleb128 0x3b
 5638 011a 0B       		.uleb128 0xb
 5639 011b 49       		.uleb128 0x49
 5640 011c 13       		.uleb128 0x13
 5641 011d 38       		.uleb128 0x38
 5642 011e 0B       		.uleb128 0xb
 5643 011f 00       		.byte	0
 5644 0120 00       		.byte	0
 5645 0121 1A       		.uleb128 0x1a
 5646 0122 13       		.uleb128 0x13
 5647 0123 01       		.byte	0x1
 5648 0124 03       		.uleb128 0x3
 5649 0125 0E       		.uleb128 0xe
 5650 0126 0B       		.uleb128 0xb
 5651 0127 05       		.uleb128 0x5
 5652 0128 3A       		.uleb128 0x3a
 5653 0129 0B       		.uleb128 0xb
 5654 012a 3B       		.uleb128 0x3b
 5655 012b 0B       		.uleb128 0xb
 5656 012c 01       		.uleb128 0x1
 5657 012d 13       		.uleb128 0x13
 5658 012e 00       		.byte	0
 5659 012f 00       		.byte	0
 5660 0130 1B       		.uleb128 0x1b
 5661 0131 15       		.uleb128 0x15
 5662 0132 01       		.byte	0x1
ARM GAS  C:\Users\ISAKVO~1\AppData\Local\Temp\ccR1W42h.s 			page 135


 5663 0133 27       		.uleb128 0x27
 5664 0134 19       		.uleb128 0x19
 5665 0135 49       		.uleb128 0x49
 5666 0136 13       		.uleb128 0x13
 5667 0137 01       		.uleb128 0x1
 5668 0138 13       		.uleb128 0x13
 5669 0139 00       		.byte	0
 5670 013a 00       		.byte	0
 5671 013b 1C       		.uleb128 0x1c
 5672 013c 13       		.uleb128 0x13
 5673 013d 01       		.byte	0x1
 5674 013e 03       		.uleb128 0x3
 5675 013f 0E       		.uleb128 0xe
 5676 0140 0B       		.uleb128 0xb
 5677 0141 05       		.uleb128 0x5
 5678 0142 3A       		.uleb128 0x3a
 5679 0143 0B       		.uleb128 0xb
 5680 0144 3B       		.uleb128 0x3b
 5681 0145 05       		.uleb128 0x5
 5682 0146 01       		.uleb128 0x1
 5683 0147 13       		.uleb128 0x13
 5684 0148 00       		.byte	0
 5685 0149 00       		.byte	0
 5686 014a 1D       		.uleb128 0x1d
 5687 014b 0D       		.uleb128 0xd
 5688 014c 00       		.byte	0
 5689 014d 03       		.uleb128 0x3
 5690 014e 0E       		.uleb128 0xe
 5691 014f 3A       		.uleb128 0x3a
 5692 0150 0B       		.uleb128 0xb
 5693 0151 3B       		.uleb128 0x3b
 5694 0152 05       		.uleb128 0x5
 5695 0153 49       		.uleb128 0x49
 5696 0154 13       		.uleb128 0x13
 5697 0155 38       		.uleb128 0x38
 5698 0156 05       		.uleb128 0x5
 5699 0157 00       		.byte	0
 5700 0158 00       		.byte	0
 5701 0159 1E       		.uleb128 0x1e
 5702 015a 13       		.uleb128 0x13
 5703 015b 01       		.byte	0x1
 5704 015c 0B       		.uleb128 0xb
 5705 015d 0B       		.uleb128 0xb
 5706 015e 3A       		.uleb128 0x3a
 5707 015f 0B       		.uleb128 0xb
 5708 0160 3B       		.uleb128 0x3b
 5709 0161 05       		.uleb128 0x5
 5710 0162 01       		.uleb128 0x1
 5711 0163 13       		.uleb128 0x13
 5712 0164 00       		.byte	0
 5713 0165 00       		.byte	0
 5714 0166 1F       		.uleb128 0x1f
 5715 0167 17       		.uleb128 0x17
 5716 0168 01       		.byte	0x1
 5717 0169 0B       		.uleb128 0xb
 5718 016a 0B       		.uleb128 0xb
 5719 016b 3A       		.uleb128 0x3a
ARM GAS  C:\Users\ISAKVO~1\AppData\Local\Temp\ccR1W42h.s 			page 136


 5720 016c 0B       		.uleb128 0xb
 5721 016d 3B       		.uleb128 0x3b
 5722 016e 05       		.uleb128 0x5
 5723 016f 01       		.uleb128 0x1
 5724 0170 13       		.uleb128 0x13
 5725 0171 00       		.byte	0
 5726 0172 00       		.byte	0
 5727 0173 20       		.uleb128 0x20
 5728 0174 0D       		.uleb128 0xd
 5729 0175 00       		.byte	0
 5730 0176 03       		.uleb128 0x3
 5731 0177 0E       		.uleb128 0xe
 5732 0178 3A       		.uleb128 0x3a
 5733 0179 0B       		.uleb128 0xb
 5734 017a 3B       		.uleb128 0x3b
 5735 017b 05       		.uleb128 0x5
 5736 017c 49       		.uleb128 0x49
 5737 017d 13       		.uleb128 0x13
 5738 017e 00       		.byte	0
 5739 017f 00       		.byte	0
 5740 0180 21       		.uleb128 0x21
 5741 0181 16       		.uleb128 0x16
 5742 0182 00       		.byte	0
 5743 0183 03       		.uleb128 0x3
 5744 0184 08       		.uleb128 0x8
 5745 0185 3A       		.uleb128 0x3a
 5746 0186 0B       		.uleb128 0xb
 5747 0187 3B       		.uleb128 0x3b
 5748 0188 0B       		.uleb128 0xb
 5749 0189 49       		.uleb128 0x49
 5750 018a 13       		.uleb128 0x13
 5751 018b 00       		.byte	0
 5752 018c 00       		.byte	0
 5753 018d 22       		.uleb128 0x22
 5754 018e 04       		.uleb128 0x4
 5755 018f 01       		.byte	0x1
 5756 0190 03       		.uleb128 0x3
 5757 0191 0E       		.uleb128 0xe
 5758 0192 0B       		.uleb128 0xb
 5759 0193 0B       		.uleb128 0xb
 5760 0194 49       		.uleb128 0x49
 5761 0195 13       		.uleb128 0x13
 5762 0196 3A       		.uleb128 0x3a
 5763 0197 0B       		.uleb128 0xb
 5764 0198 3B       		.uleb128 0x3b
 5765 0199 0B       		.uleb128 0xb
 5766 019a 01       		.uleb128 0x1
 5767 019b 13       		.uleb128 0x13
 5768 019c 00       		.byte	0
 5769 019d 00       		.byte	0
 5770 019e 23       		.uleb128 0x23
 5771 019f 28       		.uleb128 0x28
 5772 01a0 00       		.byte	0
 5773 01a1 03       		.uleb128 0x3
 5774 01a2 0E       		.uleb128 0xe
 5775 01a3 1C       		.uleb128 0x1c
 5776 01a4 0B       		.uleb128 0xb
ARM GAS  C:\Users\ISAKVO~1\AppData\Local\Temp\ccR1W42h.s 			page 137


 5777 01a5 00       		.byte	0
 5778 01a6 00       		.byte	0
 5779 01a7 24       		.uleb128 0x24
 5780 01a8 28       		.uleb128 0x28
 5781 01a9 00       		.byte	0
 5782 01aa 03       		.uleb128 0x3
 5783 01ab 08       		.uleb128 0x8
 5784 01ac 1C       		.uleb128 0x1c
 5785 01ad 0B       		.uleb128 0xb
 5786 01ae 00       		.byte	0
 5787 01af 00       		.byte	0
 5788 01b0 25       		.uleb128 0x25
 5789 01b1 2E       		.uleb128 0x2e
 5790 01b2 01       		.byte	0x1
 5791 01b3 03       		.uleb128 0x3
 5792 01b4 0E       		.uleb128 0xe
 5793 01b5 3A       		.uleb128 0x3a
 5794 01b6 0B       		.uleb128 0xb
 5795 01b7 3B       		.uleb128 0x3b
 5796 01b8 05       		.uleb128 0x5
 5797 01b9 27       		.uleb128 0x27
 5798 01ba 19       		.uleb128 0x19
 5799 01bb 20       		.uleb128 0x20
 5800 01bc 0B       		.uleb128 0xb
 5801 01bd 01       		.uleb128 0x1
 5802 01be 13       		.uleb128 0x13
 5803 01bf 00       		.byte	0
 5804 01c0 00       		.byte	0
 5805 01c1 26       		.uleb128 0x26
 5806 01c2 05       		.uleb128 0x5
 5807 01c3 00       		.byte	0
 5808 01c4 03       		.uleb128 0x3
 5809 01c5 0E       		.uleb128 0xe
 5810 01c6 3A       		.uleb128 0x3a
 5811 01c7 0B       		.uleb128 0xb
 5812 01c8 3B       		.uleb128 0x3b
 5813 01c9 05       		.uleb128 0x5
 5814 01ca 49       		.uleb128 0x49
 5815 01cb 13       		.uleb128 0x13
 5816 01cc 00       		.byte	0
 5817 01cd 00       		.byte	0
 5818 01ce 27       		.uleb128 0x27
 5819 01cf 2E       		.uleb128 0x2e
 5820 01d0 01       		.byte	0x1
 5821 01d1 03       		.uleb128 0x3
 5822 01d2 0E       		.uleb128 0xe
 5823 01d3 3A       		.uleb128 0x3a
 5824 01d4 0B       		.uleb128 0xb
 5825 01d5 3B       		.uleb128 0x3b
 5826 01d6 0B       		.uleb128 0xb
 5827 01d7 27       		.uleb128 0x27
 5828 01d8 19       		.uleb128 0x19
 5829 01d9 20       		.uleb128 0x20
 5830 01da 0B       		.uleb128 0xb
 5831 01db 01       		.uleb128 0x1
 5832 01dc 13       		.uleb128 0x13
 5833 01dd 00       		.byte	0
ARM GAS  C:\Users\ISAKVO~1\AppData\Local\Temp\ccR1W42h.s 			page 138


 5834 01de 00       		.byte	0
 5835 01df 28       		.uleb128 0x28
 5836 01e0 05       		.uleb128 0x5
 5837 01e1 00       		.byte	0
 5838 01e2 03       		.uleb128 0x3
 5839 01e3 0E       		.uleb128 0xe
 5840 01e4 3A       		.uleb128 0x3a
 5841 01e5 0B       		.uleb128 0xb
 5842 01e6 3B       		.uleb128 0x3b
 5843 01e7 0B       		.uleb128 0xb
 5844 01e8 49       		.uleb128 0x49
 5845 01e9 13       		.uleb128 0x13
 5846 01ea 00       		.byte	0
 5847 01eb 00       		.byte	0
 5848 01ec 29       		.uleb128 0x29
 5849 01ed 0B       		.uleb128 0xb
 5850 01ee 01       		.byte	0x1
 5851 01ef 01       		.uleb128 0x1
 5852 01f0 13       		.uleb128 0x13
 5853 01f1 00       		.byte	0
 5854 01f2 00       		.byte	0
 5855 01f3 2A       		.uleb128 0x2a
 5856 01f4 34       		.uleb128 0x34
 5857 01f5 00       		.byte	0
 5858 01f6 03       		.uleb128 0x3
 5859 01f7 0E       		.uleb128 0xe
 5860 01f8 3A       		.uleb128 0x3a
 5861 01f9 0B       		.uleb128 0xb
 5862 01fa 3B       		.uleb128 0x3b
 5863 01fb 0B       		.uleb128 0xb
 5864 01fc 49       		.uleb128 0x49
 5865 01fd 13       		.uleb128 0x13
 5866 01fe 00       		.byte	0
 5867 01ff 00       		.byte	0
 5868 0200 2B       		.uleb128 0x2b
 5869 0201 0B       		.uleb128 0xb
 5870 0202 01       		.byte	0x1
 5871 0203 00       		.byte	0
 5872 0204 00       		.byte	0
 5873 0205 2C       		.uleb128 0x2c
 5874 0206 34       		.uleb128 0x34
 5875 0207 00       		.byte	0
 5876 0208 03       		.uleb128 0x3
 5877 0209 08       		.uleb128 0x8
 5878 020a 3A       		.uleb128 0x3a
 5879 020b 0B       		.uleb128 0xb
 5880 020c 3B       		.uleb128 0x3b
 5881 020d 0B       		.uleb128 0xb
 5882 020e 49       		.uleb128 0x49
 5883 020f 13       		.uleb128 0x13
 5884 0210 00       		.byte	0
 5885 0211 00       		.byte	0
 5886 0212 2D       		.uleb128 0x2d
 5887 0213 05       		.uleb128 0x5
 5888 0214 00       		.byte	0
 5889 0215 03       		.uleb128 0x3
 5890 0216 08       		.uleb128 0x8
ARM GAS  C:\Users\ISAKVO~1\AppData\Local\Temp\ccR1W42h.s 			page 139


 5891 0217 3A       		.uleb128 0x3a
 5892 0218 0B       		.uleb128 0xb
 5893 0219 3B       		.uleb128 0x3b
 5894 021a 0B       		.uleb128 0xb
 5895 021b 49       		.uleb128 0x49
 5896 021c 13       		.uleb128 0x13
 5897 021d 00       		.byte	0
 5898 021e 00       		.byte	0
 5899 021f 2E       		.uleb128 0x2e
 5900 0220 2E       		.uleb128 0x2e
 5901 0221 00       		.byte	0
 5902 0222 03       		.uleb128 0x3
 5903 0223 0E       		.uleb128 0xe
 5904 0224 3A       		.uleb128 0x3a
 5905 0225 0B       		.uleb128 0xb
 5906 0226 3B       		.uleb128 0x3b
 5907 0227 0B       		.uleb128 0xb
 5908 0228 27       		.uleb128 0x27
 5909 0229 19       		.uleb128 0x19
 5910 022a 20       		.uleb128 0x20
 5911 022b 0B       		.uleb128 0xb
 5912 022c 00       		.byte	0
 5913 022d 00       		.byte	0
 5914 022e 2F       		.uleb128 0x2f
 5915 022f 2E       		.uleb128 0x2e
 5916 0230 00       		.byte	0
 5917 0231 03       		.uleb128 0x3
 5918 0232 0E       		.uleb128 0xe
 5919 0233 3A       		.uleb128 0x3a
 5920 0234 0B       		.uleb128 0xb
 5921 0235 3B       		.uleb128 0x3b
 5922 0236 0B       		.uleb128 0xb
 5923 0237 27       		.uleb128 0x27
 5924 0238 19       		.uleb128 0x19
 5925 0239 8701     		.uleb128 0x87
 5926 023b 19       		.uleb128 0x19
 5927 023c 20       		.uleb128 0x20
 5928 023d 0B       		.uleb128 0xb
 5929 023e 00       		.byte	0
 5930 023f 00       		.byte	0
 5931 0240 30       		.uleb128 0x30
 5932 0241 2E       		.uleb128 0x2e
 5933 0242 01       		.byte	0x1
 5934 0243 3F       		.uleb128 0x3f
 5935 0244 19       		.uleb128 0x19
 5936 0245 03       		.uleb128 0x3
 5937 0246 0E       		.uleb128 0xe
 5938 0247 3A       		.uleb128 0x3a
 5939 0248 0B       		.uleb128 0xb
 5940 0249 3B       		.uleb128 0x3b
 5941 024a 0B       		.uleb128 0xb
 5942 024b 27       		.uleb128 0x27
 5943 024c 19       		.uleb128 0x19
 5944 024d 49       		.uleb128 0x49
 5945 024e 13       		.uleb128 0x13
 5946 024f 8701     		.uleb128 0x87
 5947 0251 19       		.uleb128 0x19
ARM GAS  C:\Users\ISAKVO~1\AppData\Local\Temp\ccR1W42h.s 			page 140


 5948 0252 11       		.uleb128 0x11
 5949 0253 01       		.uleb128 0x1
 5950 0254 12       		.uleb128 0x12
 5951 0255 06       		.uleb128 0x6
 5952 0256 40       		.uleb128 0x40
 5953 0257 18       		.uleb128 0x18
 5954 0258 9742     		.uleb128 0x2117
 5955 025a 19       		.uleb128 0x19
 5956 025b 01       		.uleb128 0x1
 5957 025c 13       		.uleb128 0x13
 5958 025d 00       		.byte	0
 5959 025e 00       		.byte	0
 5960 025f 31       		.uleb128 0x31
 5961 0260 1D       		.uleb128 0x1d
 5962 0261 00       		.byte	0
 5963 0262 31       		.uleb128 0x31
 5964 0263 13       		.uleb128 0x13
 5965 0264 11       		.uleb128 0x11
 5966 0265 01       		.uleb128 0x1
 5967 0266 12       		.uleb128 0x12
 5968 0267 06       		.uleb128 0x6
 5969 0268 58       		.uleb128 0x58
 5970 0269 0B       		.uleb128 0xb
 5971 026a 59       		.uleb128 0x59
 5972 026b 0B       		.uleb128 0xb
 5973 026c 00       		.byte	0
 5974 026d 00       		.byte	0
 5975 026e 32       		.uleb128 0x32
 5976 026f 1D       		.uleb128 0x1d
 5977 0270 01       		.byte	0x1
 5978 0271 31       		.uleb128 0x31
 5979 0272 13       		.uleb128 0x13
 5980 0273 11       		.uleb128 0x11
 5981 0274 01       		.uleb128 0x1
 5982 0275 12       		.uleb128 0x12
 5983 0276 06       		.uleb128 0x6
 5984 0277 58       		.uleb128 0x58
 5985 0278 0B       		.uleb128 0xb
 5986 0279 59       		.uleb128 0x59
 5987 027a 0B       		.uleb128 0xb
 5988 027b 01       		.uleb128 0x1
 5989 027c 13       		.uleb128 0x13
 5990 027d 00       		.byte	0
 5991 027e 00       		.byte	0
 5992 027f 33       		.uleb128 0x33
 5993 0280 898201   		.uleb128 0x4109
 5994 0283 00       		.byte	0
 5995 0284 11       		.uleb128 0x11
 5996 0285 01       		.uleb128 0x1
 5997 0286 31       		.uleb128 0x31
 5998 0287 13       		.uleb128 0x13
 5999 0288 00       		.byte	0
 6000 0289 00       		.byte	0
 6001 028a 34       		.uleb128 0x34
 6002 028b 898201   		.uleb128 0x4109
 6003 028e 01       		.byte	0x1
 6004 028f 11       		.uleb128 0x11
ARM GAS  C:\Users\ISAKVO~1\AppData\Local\Temp\ccR1W42h.s 			page 141


 6005 0290 01       		.uleb128 0x1
 6006 0291 31       		.uleb128 0x31
 6007 0292 13       		.uleb128 0x13
 6008 0293 00       		.byte	0
 6009 0294 00       		.byte	0
 6010 0295 35       		.uleb128 0x35
 6011 0296 8A8201   		.uleb128 0x410a
 6012 0299 00       		.byte	0
 6013 029a 02       		.uleb128 0x2
 6014 029b 18       		.uleb128 0x18
 6015 029c 9142     		.uleb128 0x2111
 6016 029e 18       		.uleb128 0x18
 6017 029f 00       		.byte	0
 6018 02a0 00       		.byte	0
 6019 02a1 36       		.uleb128 0x36
 6020 02a2 0B       		.uleb128 0xb
 6021 02a3 01       		.byte	0x1
 6022 02a4 11       		.uleb128 0x11
 6023 02a5 01       		.uleb128 0x1
 6024 02a6 12       		.uleb128 0x12
 6025 02a7 06       		.uleb128 0x6
 6026 02a8 00       		.byte	0
 6027 02a9 00       		.byte	0
 6028 02aa 37       		.uleb128 0x37
 6029 02ab 34       		.uleb128 0x34
 6030 02ac 00       		.byte	0
 6031 02ad 31       		.uleb128 0x31
 6032 02ae 13       		.uleb128 0x13
 6033 02af 02       		.uleb128 0x2
 6034 02b0 17       		.uleb128 0x17
 6035 02b1 00       		.byte	0
 6036 02b2 00       		.byte	0
 6037 02b3 38       		.uleb128 0x38
 6038 02b4 0B       		.uleb128 0xb
 6039 02b5 01       		.byte	0x1
 6040 02b6 55       		.uleb128 0x55
 6041 02b7 17       		.uleb128 0x17
 6042 02b8 00       		.byte	0
 6043 02b9 00       		.byte	0
 6044 02ba 39       		.uleb128 0x39
 6045 02bb 0B       		.uleb128 0xb
 6046 02bc 01       		.byte	0x1
 6047 02bd 11       		.uleb128 0x11
 6048 02be 01       		.uleb128 0x1
 6049 02bf 12       		.uleb128 0x12
 6050 02c0 06       		.uleb128 0x6
 6051 02c1 01       		.uleb128 0x1
 6052 02c2 13       		.uleb128 0x13
 6053 02c3 00       		.byte	0
 6054 02c4 00       		.byte	0
 6055 02c5 3A       		.uleb128 0x3a
 6056 02c6 1D       		.uleb128 0x1d
 6057 02c7 01       		.byte	0x1
 6058 02c8 31       		.uleb128 0x31
 6059 02c9 13       		.uleb128 0x13
 6060 02ca 11       		.uleb128 0x11
 6061 02cb 01       		.uleb128 0x1
ARM GAS  C:\Users\ISAKVO~1\AppData\Local\Temp\ccR1W42h.s 			page 142


 6062 02cc 12       		.uleb128 0x12
 6063 02cd 06       		.uleb128 0x6
 6064 02ce 58       		.uleb128 0x58
 6065 02cf 0B       		.uleb128 0xb
 6066 02d0 59       		.uleb128 0x59
 6067 02d1 0B       		.uleb128 0xb
 6068 02d2 00       		.byte	0
 6069 02d3 00       		.byte	0
 6070 02d4 3B       		.uleb128 0x3b
 6071 02d5 05       		.uleb128 0x5
 6072 02d6 00       		.byte	0
 6073 02d7 31       		.uleb128 0x31
 6074 02d8 13       		.uleb128 0x13
 6075 02d9 02       		.uleb128 0x2
 6076 02da 17       		.uleb128 0x17
 6077 02db 00       		.byte	0
 6078 02dc 00       		.byte	0
 6079 02dd 3C       		.uleb128 0x3c
 6080 02de 1D       		.uleb128 0x1d
 6081 02df 01       		.byte	0x1
 6082 02e0 31       		.uleb128 0x31
 6083 02e1 13       		.uleb128 0x13
 6084 02e2 11       		.uleb128 0x11
 6085 02e3 01       		.uleb128 0x1
 6086 02e4 12       		.uleb128 0x12
 6087 02e5 06       		.uleb128 0x6
 6088 02e6 58       		.uleb128 0x58
 6089 02e7 0B       		.uleb128 0xb
 6090 02e8 59       		.uleb128 0x59
 6091 02e9 05       		.uleb128 0x5
 6092 02ea 00       		.byte	0
 6093 02eb 00       		.byte	0
 6094 02ec 3D       		.uleb128 0x3d
 6095 02ed 898201   		.uleb128 0x4109
 6096 02f0 01       		.byte	0x1
 6097 02f1 11       		.uleb128 0x11
 6098 02f2 01       		.uleb128 0x1
 6099 02f3 31       		.uleb128 0x31
 6100 02f4 13       		.uleb128 0x13
 6101 02f5 01       		.uleb128 0x1
 6102 02f6 13       		.uleb128 0x13
 6103 02f7 00       		.byte	0
 6104 02f8 00       		.byte	0
 6105 02f9 3E       		.uleb128 0x3e
 6106 02fa 1D       		.uleb128 0x1d
 6107 02fb 01       		.byte	0x1
 6108 02fc 31       		.uleb128 0x31
 6109 02fd 13       		.uleb128 0x13
 6110 02fe 52       		.uleb128 0x52
 6111 02ff 01       		.uleb128 0x1
 6112 0300 55       		.uleb128 0x55
 6113 0301 17       		.uleb128 0x17
 6114 0302 58       		.uleb128 0x58
 6115 0303 0B       		.uleb128 0xb
 6116 0304 59       		.uleb128 0x59
 6117 0305 05       		.uleb128 0x5
 6118 0306 01       		.uleb128 0x1
ARM GAS  C:\Users\ISAKVO~1\AppData\Local\Temp\ccR1W42h.s 			page 143


 6119 0307 13       		.uleb128 0x13
 6120 0308 00       		.byte	0
 6121 0309 00       		.byte	0
 6122 030a 3F       		.uleb128 0x3f
 6123 030b 34       		.uleb128 0x34
 6124 030c 00       		.byte	0
 6125 030d 31       		.uleb128 0x31
 6126 030e 13       		.uleb128 0x13
 6127 030f 02       		.uleb128 0x2
 6128 0310 18       		.uleb128 0x18
 6129 0311 00       		.byte	0
 6130 0312 00       		.byte	0
 6131 0313 40       		.uleb128 0x40
 6132 0314 05       		.uleb128 0x5
 6133 0315 00       		.byte	0
 6134 0316 31       		.uleb128 0x31
 6135 0317 13       		.uleb128 0x13
 6136 0318 00       		.byte	0
 6137 0319 00       		.byte	0
 6138 031a 41       		.uleb128 0x41
 6139 031b 1D       		.uleb128 0x1d
 6140 031c 01       		.byte	0x1
 6141 031d 31       		.uleb128 0x31
 6142 031e 13       		.uleb128 0x13
 6143 031f 52       		.uleb128 0x52
 6144 0320 01       		.uleb128 0x1
 6145 0321 55       		.uleb128 0x55
 6146 0322 17       		.uleb128 0x17
 6147 0323 58       		.uleb128 0x58
 6148 0324 0B       		.uleb128 0xb
 6149 0325 59       		.uleb128 0x59
 6150 0326 05       		.uleb128 0x5
 6151 0327 00       		.byte	0
 6152 0328 00       		.byte	0
 6153 0329 42       		.uleb128 0x42
 6154 032a 0B       		.uleb128 0xb
 6155 032b 01       		.byte	0x1
 6156 032c 55       		.uleb128 0x55
 6157 032d 17       		.uleb128 0x17
 6158 032e 01       		.uleb128 0x1
 6159 032f 13       		.uleb128 0x13
 6160 0330 00       		.byte	0
 6161 0331 00       		.byte	0
 6162 0332 43       		.uleb128 0x43
 6163 0333 34       		.uleb128 0x34
 6164 0334 00       		.byte	0
 6165 0335 03       		.uleb128 0x3
 6166 0336 0E       		.uleb128 0xe
 6167 0337 3A       		.uleb128 0x3a
 6168 0338 0B       		.uleb128 0xb
 6169 0339 3B       		.uleb128 0x3b
 6170 033a 0B       		.uleb128 0xb
 6171 033b 49       		.uleb128 0x49
 6172 033c 13       		.uleb128 0x13
 6173 033d 02       		.uleb128 0x2
 6174 033e 18       		.uleb128 0x18
 6175 033f 00       		.byte	0
ARM GAS  C:\Users\ISAKVO~1\AppData\Local\Temp\ccR1W42h.s 			page 144


 6176 0340 00       		.byte	0
 6177 0341 44       		.uleb128 0x44
 6178 0342 34       		.uleb128 0x34
 6179 0343 00       		.byte	0
 6180 0344 03       		.uleb128 0x3
 6181 0345 0E       		.uleb128 0xe
 6182 0346 3A       		.uleb128 0x3a
 6183 0347 0B       		.uleb128 0xb
 6184 0348 3B       		.uleb128 0x3b
 6185 0349 05       		.uleb128 0x5
 6186 034a 49       		.uleb128 0x49
 6187 034b 13       		.uleb128 0x13
 6188 034c 3F       		.uleb128 0x3f
 6189 034d 19       		.uleb128 0x19
 6190 034e 3C       		.uleb128 0x3c
 6191 034f 19       		.uleb128 0x19
 6192 0350 00       		.byte	0
 6193 0351 00       		.byte	0
 6194 0352 45       		.uleb128 0x45
 6195 0353 34       		.uleb128 0x34
 6196 0354 00       		.byte	0
 6197 0355 03       		.uleb128 0x3
 6198 0356 0E       		.uleb128 0xe
 6199 0357 3A       		.uleb128 0x3a
 6200 0358 0B       		.uleb128 0xb
 6201 0359 3B       		.uleb128 0x3b
 6202 035a 0B       		.uleb128 0xb
 6203 035b 49       		.uleb128 0x49
 6204 035c 13       		.uleb128 0x13
 6205 035d 3F       		.uleb128 0x3f
 6206 035e 19       		.uleb128 0x19
 6207 035f 3C       		.uleb128 0x3c
 6208 0360 19       		.uleb128 0x19
 6209 0361 00       		.byte	0
 6210 0362 00       		.byte	0
 6211 0363 46       		.uleb128 0x46
 6212 0364 34       		.uleb128 0x34
 6213 0365 00       		.byte	0
 6214 0366 03       		.uleb128 0x3
 6215 0367 0E       		.uleb128 0xe
 6216 0368 3A       		.uleb128 0x3a
 6217 0369 0B       		.uleb128 0xb
 6218 036a 3B       		.uleb128 0x3b
 6219 036b 0B       		.uleb128 0xb
 6220 036c 49       		.uleb128 0x49
 6221 036d 13       		.uleb128 0x13
 6222 036e 3F       		.uleb128 0x3f
 6223 036f 19       		.uleb128 0x19
 6224 0370 02       		.uleb128 0x2
 6225 0371 18       		.uleb128 0x18
 6226 0372 00       		.byte	0
 6227 0373 00       		.byte	0
 6228 0374 47       		.uleb128 0x47
 6229 0375 2E       		.uleb128 0x2e
 6230 0376 00       		.byte	0
 6231 0377 3F       		.uleb128 0x3f
 6232 0378 19       		.uleb128 0x19
ARM GAS  C:\Users\ISAKVO~1\AppData\Local\Temp\ccR1W42h.s 			page 145


 6233 0379 3C       		.uleb128 0x3c
 6234 037a 19       		.uleb128 0x19
 6235 037b 6E       		.uleb128 0x6e
 6236 037c 0E       		.uleb128 0xe
 6237 037d 03       		.uleb128 0x3
 6238 037e 0E       		.uleb128 0xe
 6239 037f 3A       		.uleb128 0x3a
 6240 0380 0B       		.uleb128 0xb
 6241 0381 3B       		.uleb128 0x3b
 6242 0382 0B       		.uleb128 0xb
 6243 0383 00       		.byte	0
 6244 0384 00       		.byte	0
 6245 0385 48       		.uleb128 0x48
 6246 0386 2E       		.uleb128 0x2e
 6247 0387 00       		.byte	0
 6248 0388 3F       		.uleb128 0x3f
 6249 0389 19       		.uleb128 0x19
 6250 038a 3C       		.uleb128 0x3c
 6251 038b 19       		.uleb128 0x19
 6252 038c 6E       		.uleb128 0x6e
 6253 038d 0E       		.uleb128 0xe
 6254 038e 03       		.uleb128 0x3
 6255 038f 0E       		.uleb128 0xe
 6256 0390 3A       		.uleb128 0x3a
 6257 0391 0B       		.uleb128 0xb
 6258 0392 3B       		.uleb128 0x3b
 6259 0393 05       		.uleb128 0x5
 6260 0394 00       		.byte	0
 6261 0395 00       		.byte	0
 6262 0396 00       		.byte	0
 6263              		.section	.debug_loc,"",%progbits
 6264              	.Ldebug_loc0:
 6265              	.LLST0:
 6266 0000 1C000000 		.4byte	.LVL2
 6267 0004 36000000 		.4byte	.LVL7
 6268 0008 0100     		.2byte	0x1
 6269 000a 53       		.byte	0x53
 6270 000b 38000000 		.4byte	.LVL8
 6271 000f 3E000000 		.4byte	.LVL9
 6272 0013 0100     		.2byte	0x1
 6273 0015 53       		.byte	0x53
 6274 0016 00000000 		.4byte	0
 6275 001a 00000000 		.4byte	0
 6276              	.LLST1:
 6277 001e 1C000000 		.4byte	.LVL2
 6278 0022 2A000000 		.4byte	.LVL3
 6279 0026 0100     		.2byte	0x1
 6280 0028 52       		.byte	0x52
 6281 0029 2C000000 		.4byte	.LVL4
 6282 002d 2E000000 		.4byte	.LVL5
 6283 0031 0100     		.2byte	0x1
 6284 0033 52       		.byte	0x52
 6285 0034 30000000 		.4byte	.LVL6
 6286 0038 38000000 		.4byte	.LVL8
 6287 003c 0100     		.2byte	0x1
 6288 003e 52       		.byte	0x52
 6289 003f 00000000 		.4byte	0
ARM GAS  C:\Users\ISAKVO~1\AppData\Local\Temp\ccR1W42h.s 			page 146


 6290 0043 00000000 		.4byte	0
 6291              	.LLST2:
 6292 0047 40000000 		.4byte	.LVL10
 6293 004b 4A000000 		.4byte	.LVL11
 6294 004f 0100     		.2byte	0x1
 6295 0051 53       		.byte	0x53
 6296 0052 4C000000 		.4byte	.LVL12
 6297 0056 54000000 		.4byte	.LVL13
 6298 005a 0100     		.2byte	0x1
 6299 005c 53       		.byte	0x53
 6300 005d 00000000 		.4byte	0
 6301 0061 00000000 		.4byte	0
 6302              	.LLST3:
 6303 0065 54000000 		.4byte	.LVL13
 6304 0069 74000000 		.4byte	.LVL14
 6305 006d 0100     		.2byte	0x1
 6306 006f 52       		.byte	0x52
 6307 0070 76000000 		.4byte	.LVL15
 6308 0074 7E000000 		.4byte	.LVL16
 6309 0078 0100     		.2byte	0x1
 6310 007a 52       		.byte	0x52
 6311 007b 00000000 		.4byte	0
 6312 007f 00000000 		.4byte	0
 6313              	.LLST4:
 6314 0083 7E000000 		.4byte	.LVL16
 6315 0087 D0000000 		.4byte	.LVL25
 6316 008b 0100     		.2byte	0x1
 6317 008d 54       		.byte	0x54
 6318 008e D8000000 		.4byte	.LVL27
 6319 0092 F2000000 		.4byte	.LVL30
 6320 0096 0100     		.2byte	0x1
 6321 0098 54       		.byte	0x54
 6322 0099 F4000000 		.4byte	.LVL31
 6323 009d 12010000 		.4byte	.LVL35
 6324 00a1 0100     		.2byte	0x1
 6325 00a3 54       		.byte	0x54
 6326 00a4 00000000 		.4byte	0
 6327 00a8 00000000 		.4byte	0
 6328              	.LLST5:
 6329 00ac 7E000000 		.4byte	.LVL16
 6330 00b0 BE000000 		.4byte	.LVL23
 6331 00b4 0200     		.2byte	0x2
 6332 00b6 32       		.byte	0x32
 6333 00b7 9F       		.byte	0x9f
 6334 00b8 00000000 		.4byte	0
 6335 00bc 00000000 		.4byte	0
 6336              	.LLST6:
 6337 00c0 7E000000 		.4byte	.LVL16
 6338 00c4 BE000000 		.4byte	.LVL23
 6339 00c8 0600     		.2byte	0x6
 6340 00ca 03       		.byte	0x3
 6341 00cb 18000000 		.4byte	game_packet
 6342 00cf 9F       		.byte	0x9f
 6343 00d0 00000000 		.4byte	0
 6344 00d4 00000000 		.4byte	0
 6345              	.LLST7:
 6346 00d8 7E000000 		.4byte	.LVL16
ARM GAS  C:\Users\ISAKVO~1\AppData\Local\Temp\ccR1W42h.s 			page 147


 6347 00dc 8C000000 		.4byte	.LVL17
 6348 00e0 0200     		.2byte	0x2
 6349 00e2 34       		.byte	0x34
 6350 00e3 9F       		.byte	0x9f
 6351 00e4 00000000 		.4byte	0
 6352 00e8 00000000 		.4byte	0
 6353              	.LLST8:
 6354 00ec 7E000000 		.4byte	.LVL16
 6355 00f0 8C000000 		.4byte	.LVL17
 6356 00f4 0600     		.2byte	0x6
 6357 00f6 03       		.byte	0x3
 6358 00f7 2C000000 		.4byte	communication_receive_buffer
 6359 00fb 9F       		.byte	0x9f
 6360 00fc 00000000 		.4byte	0
 6361 0100 00000000 		.4byte	0
 6362              	.LLST11:
 6363 0104 7E000000 		.4byte	.LVL16
 6364 0108 8C000000 		.4byte	.LVL17
 6365 010c 0600     		.2byte	0x6
 6366 010e 0C       		.byte	0xc
 6367 010f 00006640 		.4byte	0x40660000
 6368 0113 9F       		.byte	0x9f
 6369 0114 00000000 		.4byte	0
 6370 0118 00000000 		.4byte	0
 6371              	.LLST12:
 6372 011c 9E000000 		.4byte	.LVL18
 6373 0120 B2000000 		.4byte	.LVL20
 6374 0124 0100     		.2byte	0x1
 6375 0126 53       		.byte	0x53
 6376 0127 B4000000 		.4byte	.LVL21
 6377 012b BC000000 		.4byte	.LVL22
 6378 012f 0100     		.2byte	0x1
 6379 0131 53       		.byte	0x53
 6380 0132 00000000 		.4byte	0
 6381 0136 00000000 		.4byte	0
 6382              	.LLST13:
 6383 013a 12010000 		.4byte	.LVL35
 6384 013e 52010000 		.4byte	.LVL42
 6385 0142 0200     		.2byte	0x2
 6386 0144 32       		.byte	0x32
 6387 0145 9F       		.byte	0x9f
 6388 0146 00000000 		.4byte	0
 6389 014a 00000000 		.4byte	0
 6390              	.LLST14:
 6391 014e 12010000 		.4byte	.LVL35
 6392 0152 52010000 		.4byte	.LVL42
 6393 0156 0600     		.2byte	0x6
 6394 0158 03       		.byte	0x3
 6395 0159 18000000 		.4byte	game_packet
 6396 015d 9F       		.byte	0x9f
 6397 015e 00000000 		.4byte	0
 6398 0162 00000000 		.4byte	0
 6399              	.LLST15:
 6400 0166 12010000 		.4byte	.LVL35
 6401 016a 20010000 		.4byte	.LVL36
 6402 016e 0200     		.2byte	0x2
 6403 0170 34       		.byte	0x34
ARM GAS  C:\Users\ISAKVO~1\AppData\Local\Temp\ccR1W42h.s 			page 148


 6404 0171 9F       		.byte	0x9f
 6405 0172 00000000 		.4byte	0
 6406 0176 00000000 		.4byte	0
 6407              	.LLST16:
 6408 017a 12010000 		.4byte	.LVL35
 6409 017e 20010000 		.4byte	.LVL36
 6410 0182 0600     		.2byte	0x6
 6411 0184 03       		.byte	0x3
 6412 0185 2C000000 		.4byte	communication_receive_buffer
 6413 0189 9F       		.byte	0x9f
 6414 018a 00000000 		.4byte	0
 6415 018e 00000000 		.4byte	0
 6416              	.LLST19:
 6417 0192 12010000 		.4byte	.LVL35
 6418 0196 20010000 		.4byte	.LVL36
 6419 019a 0600     		.2byte	0x6
 6420 019c 0C       		.byte	0xc
 6421 019d 00006640 		.4byte	0x40660000
 6422 01a1 9F       		.byte	0x9f
 6423 01a2 00000000 		.4byte	0
 6424 01a6 00000000 		.4byte	0
 6425              	.LLST20:
 6426 01aa 32010000 		.4byte	.LVL37
 6427 01ae 46010000 		.4byte	.LVL39
 6428 01b2 0100     		.2byte	0x1
 6429 01b4 52       		.byte	0x52
 6430 01b5 48010000 		.4byte	.LVL40
 6431 01b9 4E010000 		.4byte	.LVL41
 6432 01bd 0100     		.2byte	0x1
 6433 01bf 52       		.byte	0x52
 6434 01c0 00000000 		.4byte	0
 6435 01c4 00000000 		.4byte	0
 6436              	.LLST21:
 6437 01c8 74010000 		.4byte	.LVL44
 6438 01cc 76010000 		.4byte	.LVL45
 6439 01d0 0200     		.2byte	0x2
 6440 01d2 30       		.byte	0x30
 6441 01d3 9F       		.byte	0x9f
 6442 01d4 76010000 		.4byte	.LVL45
 6443 01d8 90010000 		.4byte	.LVL50
 6444 01dc 0100     		.2byte	0x1
 6445 01de 52       		.byte	0x52
 6446 01df 92010000 		.4byte	.LVL51
 6447 01e3 9A010000 		.4byte	.LVL52
 6448 01e7 0100     		.2byte	0x1
 6449 01e9 52       		.byte	0x52
 6450 01ea 00000000 		.4byte	0
 6451 01ee 00000000 		.4byte	0
 6452              	.LLST22:
 6453 01f2 76010000 		.4byte	.LVL45
 6454 01f6 84010000 		.4byte	.LVL46
 6455 01fa 0100     		.2byte	0x1
 6456 01fc 53       		.byte	0x53
 6457 01fd 86010000 		.4byte	.LVL47
 6458 0201 88010000 		.4byte	.LVL48
 6459 0205 0100     		.2byte	0x1
 6460 0207 53       		.byte	0x53
ARM GAS  C:\Users\ISAKVO~1\AppData\Local\Temp\ccR1W42h.s 			page 149


 6461 0208 8A010000 		.4byte	.LVL49
 6462 020c 92010000 		.4byte	.LVL51
 6463 0210 0100     		.2byte	0x1
 6464 0212 53       		.byte	0x53
 6465 0213 00000000 		.4byte	0
 6466 0217 00000000 		.4byte	0
 6467              	.LLST23:
 6468 021b 9A010000 		.4byte	.LVL52
 6469 021f A4010000 		.4byte	.LVL53
 6470 0223 0100     		.2byte	0x1
 6471 0225 53       		.byte	0x53
 6472 0226 A6010000 		.4byte	.LVL54
 6473 022a AE010000 		.4byte	.LVL55
 6474 022e 0100     		.2byte	0x1
 6475 0230 53       		.byte	0x53
 6476 0231 00000000 		.4byte	0
 6477 0235 00000000 		.4byte	0
 6478              	.LLST24:
 6479 0239 AE010000 		.4byte	.LVL55
 6480 023d CE010000 		.4byte	.LVL56
 6481 0241 0100     		.2byte	0x1
 6482 0243 52       		.byte	0x52
 6483 0244 D0010000 		.4byte	.LVL57
 6484 0248 D8010000 		.4byte	.LVL58
 6485 024c 0100     		.2byte	0x1
 6486 024e 52       		.byte	0x52
 6487 024f 00000000 		.4byte	0
 6488 0253 00000000 		.4byte	0
 6489              	.LLST25:
 6490 0257 D8010000 		.4byte	.LVL58
 6491 025b 2A020000 		.4byte	.LVL67
 6492 025f 0100     		.2byte	0x1
 6493 0261 54       		.byte	0x54
 6494 0262 32020000 		.4byte	.LVL69
 6495 0266 4C020000 		.4byte	.LVL72
 6496 026a 0100     		.2byte	0x1
 6497 026c 54       		.byte	0x54
 6498 026d 4E020000 		.4byte	.LVL73
 6499 0271 70020000 		.4byte	.LVL77
 6500 0275 0100     		.2byte	0x1
 6501 0277 54       		.byte	0x54
 6502 0278 00000000 		.4byte	0
 6503 027c 00000000 		.4byte	0
 6504              	.LLST26:
 6505 0280 D8010000 		.4byte	.LVL58
 6506 0284 18020000 		.4byte	.LVL65
 6507 0288 0200     		.2byte	0x2
 6508 028a 32       		.byte	0x32
 6509 028b 9F       		.byte	0x9f
 6510 028c 00000000 		.4byte	0
 6511 0290 00000000 		.4byte	0
 6512              	.LLST27:
 6513 0294 D8010000 		.4byte	.LVL58
 6514 0298 18020000 		.4byte	.LVL65
 6515 029c 0600     		.2byte	0x6
 6516 029e 03       		.byte	0x3
 6517 029f 18000000 		.4byte	game_packet
ARM GAS  C:\Users\ISAKVO~1\AppData\Local\Temp\ccR1W42h.s 			page 150


 6518 02a3 9F       		.byte	0x9f
 6519 02a4 00000000 		.4byte	0
 6520 02a8 00000000 		.4byte	0
 6521              	.LLST28:
 6522 02ac D8010000 		.4byte	.LVL58
 6523 02b0 E6010000 		.4byte	.LVL59
 6524 02b4 0200     		.2byte	0x2
 6525 02b6 34       		.byte	0x34
 6526 02b7 9F       		.byte	0x9f
 6527 02b8 00000000 		.4byte	0
 6528 02bc 00000000 		.4byte	0
 6529              	.LLST29:
 6530 02c0 D8010000 		.4byte	.LVL58
 6531 02c4 E6010000 		.4byte	.LVL59
 6532 02c8 0600     		.2byte	0x6
 6533 02ca 03       		.byte	0x3
 6534 02cb 2C000000 		.4byte	communication_receive_buffer
 6535 02cf 9F       		.byte	0x9f
 6536 02d0 00000000 		.4byte	0
 6537 02d4 00000000 		.4byte	0
 6538              	.LLST32:
 6539 02d8 D8010000 		.4byte	.LVL58
 6540 02dc E6010000 		.4byte	.LVL59
 6541 02e0 0600     		.2byte	0x6
 6542 02e2 0C       		.byte	0xc
 6543 02e3 00006640 		.4byte	0x40660000
 6544 02e7 9F       		.byte	0x9f
 6545 02e8 00000000 		.4byte	0
 6546 02ec 00000000 		.4byte	0
 6547              	.LLST33:
 6548 02f0 F8010000 		.4byte	.LVL60
 6549 02f4 0C020000 		.4byte	.LVL62
 6550 02f8 0100     		.2byte	0x1
 6551 02fa 52       		.byte	0x52
 6552 02fb 0E020000 		.4byte	.LVL63
 6553 02ff 14020000 		.4byte	.LVL64
 6554 0303 0100     		.2byte	0x1
 6555 0305 52       		.byte	0x52
 6556 0306 00000000 		.4byte	0
 6557 030a 00000000 		.4byte	0
 6558              	.LLST34:
 6559 030e 76020000 		.4byte	.LVL78
 6560 0312 B6020000 		.4byte	.LVL85
 6561 0316 0200     		.2byte	0x2
 6562 0318 39       		.byte	0x39
 6563 0319 9F       		.byte	0x9f
 6564 031a 00000000 		.4byte	0
 6565 031e 00000000 		.4byte	0
 6566              	.LLST35:
 6567 0322 76020000 		.4byte	.LVL78
 6568 0326 B6020000 		.4byte	.LVL85
 6569 032a 0600     		.2byte	0x6
 6570 032c 03       		.byte	0x3
 6571 032d 0C000000 		.4byte	win_packet
 6572 0331 9F       		.byte	0x9f
 6573 0332 00000000 		.4byte	0
 6574 0336 00000000 		.4byte	0
ARM GAS  C:\Users\ISAKVO~1\AppData\Local\Temp\ccR1W42h.s 			page 151


 6575              	.LLST36:
 6576 033a 84020000 		.4byte	.LVL79
 6577 033e 88020000 		.4byte	.LVL80
 6578 0342 0200     		.2byte	0x2
 6579 0344 31       		.byte	0x31
 6580 0345 9F       		.byte	0x9f
 6581 0346 88020000 		.4byte	.LVL80
 6582 034a 96020000 		.4byte	.LVL81
 6583 034e 0100     		.2byte	0x1
 6584 0350 53       		.byte	0x53
 6585 0351 98020000 		.4byte	.LVL82
 6586 0355 AB020000 		.4byte	.LVL84-1
 6587 0359 0100     		.2byte	0x1
 6588 035b 53       		.byte	0x53
 6589 035c 00000000 		.4byte	0
 6590 0360 00000000 		.4byte	0
 6591              	.LLST37:
 6592 0364 9C020000 		.4byte	.LVL83
 6593 0368 AC020000 		.4byte	.LVL84
 6594 036c 0200     		.2byte	0x2
 6595 036e 3B       		.byte	0x3b
 6596 036f 9F       		.byte	0x9f
 6597 0370 00000000 		.4byte	0
 6598 0374 00000000 		.4byte	0
 6599              	.LLST38:
 6600 0378 9C020000 		.4byte	.LVL83
 6601 037c AC020000 		.4byte	.LVL84
 6602 0380 0600     		.2byte	0x6
 6603 0382 03       		.byte	0x3
 6604 0383 34000000 		.4byte	communication_send_buffer
 6605 0387 9F       		.byte	0x9f
 6606 0388 00000000 		.4byte	0
 6607 038c 00000000 		.4byte	0
 6608              	.LLST41:
 6609 0390 9C020000 		.4byte	.LVL83
 6610 0394 AC020000 		.4byte	.LVL84
 6611 0398 0600     		.2byte	0x6
 6612 039a 0C       		.byte	0xc
 6613 039b 00006640 		.4byte	0x40660000
 6614 039f 9F       		.byte	0x9f
 6615 03a0 00000000 		.4byte	0
 6616 03a4 00000000 		.4byte	0
 6617              	.LLST42:
 6618 03a8 02030000 		.4byte	.LVL87
 6619 03ac 14030000 		.4byte	.LVL89
 6620 03b0 0100     		.2byte	0x1
 6621 03b2 51       		.byte	0x51
 6622 03b3 14030000 		.4byte	.LVL89
 6623 03b7 24030000 		.4byte	.LVL90
 6624 03bb 0D00     		.2byte	0xd
 6625 03bd 03       		.byte	0x3
 6626 03be 19000000 		.4byte	game_packet+1
 6627 03c2 94       		.byte	0x94
 6628 03c3 01       		.byte	0x1
 6629 03c4 08       		.byte	0x8
 6630 03c5 FF       		.byte	0xff
 6631 03c6 1A       		.byte	0x1a
ARM GAS  C:\Users\ISAKVO~1\AppData\Local\Temp\ccR1W42h.s 			page 152


 6632 03c7 31       		.byte	0x31
 6633 03c8 1C       		.byte	0x1c
 6634 03c9 9F       		.byte	0x9f
 6635 03ca 00000000 		.4byte	0
 6636 03ce 00000000 		.4byte	0
 6637              	.LLST43:
 6638 03d2 02030000 		.4byte	.LVL87
 6639 03d6 06030000 		.4byte	.LVL88
 6640 03da 0100     		.2byte	0x1
 6641 03dc 53       		.byte	0x53
 6642 03dd 06030000 		.4byte	.LVL88
 6643 03e1 24030000 		.4byte	.LVL90
 6644 03e5 0D00     		.2byte	0xd
 6645 03e7 03       		.byte	0x3
 6646 03e8 18000000 		.4byte	game_packet
 6647 03ec 94       		.byte	0x94
 6648 03ed 01       		.byte	0x1
 6649 03ee 08       		.byte	0x8
 6650 03ef FF       		.byte	0xff
 6651 03f0 1A       		.byte	0x1a
 6652 03f1 31       		.byte	0x31
 6653 03f2 1C       		.byte	0x1c
 6654 03f3 9F       		.byte	0x9f
 6655 03f4 00000000 		.4byte	0
 6656 03f8 00000000 		.4byte	0
 6657              	.LLST44:
 6658 03fc 24030000 		.4byte	.LVL90
 6659 0400 68030000 		.4byte	.LVL97
 6660 0404 0200     		.2byte	0x2
 6661 0406 39       		.byte	0x39
 6662 0407 9F       		.byte	0x9f
 6663 0408 00000000 		.4byte	0
 6664 040c 00000000 		.4byte	0
 6665              	.LLST45:
 6666 0410 24030000 		.4byte	.LVL90
 6667 0414 68030000 		.4byte	.LVL97
 6668 0418 0600     		.2byte	0x6
 6669 041a 03       		.byte	0x3
 6670 041b 00000000 		.4byte	figures
 6671 041f 9F       		.byte	0x9f
 6672 0420 00000000 		.4byte	0
 6673 0424 00000000 		.4byte	0
 6674              	.LLST46:
 6675 0428 32030000 		.4byte	.LVL91
 6676 042c 36030000 		.4byte	.LVL92
 6677 0430 0200     		.2byte	0x2
 6678 0432 31       		.byte	0x31
 6679 0433 9F       		.byte	0x9f
 6680 0434 36030000 		.4byte	.LVL92
 6681 0438 46030000 		.4byte	.LVL93
 6682 043c 0100     		.2byte	0x1
 6683 043e 53       		.byte	0x53
 6684 043f 48030000 		.4byte	.LVL94
 6685 0443 5B030000 		.4byte	.LVL96-1
 6686 0447 0100     		.2byte	0x1
 6687 0449 53       		.byte	0x53
 6688 044a 00000000 		.4byte	0
ARM GAS  C:\Users\ISAKVO~1\AppData\Local\Temp\ccR1W42h.s 			page 153


 6689 044e 00000000 		.4byte	0
 6690              	.LLST47:
 6691 0452 4C030000 		.4byte	.LVL95
 6692 0456 5C030000 		.4byte	.LVL96
 6693 045a 0200     		.2byte	0x2
 6694 045c 3B       		.byte	0x3b
 6695 045d 9F       		.byte	0x9f
 6696 045e 00000000 		.4byte	0
 6697 0462 00000000 		.4byte	0
 6698              	.LLST48:
 6699 0466 4C030000 		.4byte	.LVL95
 6700 046a 5C030000 		.4byte	.LVL96
 6701 046e 0600     		.2byte	0x6
 6702 0470 03       		.byte	0x3
 6703 0471 34000000 		.4byte	communication_send_buffer
 6704 0475 9F       		.byte	0x9f
 6705 0476 00000000 		.4byte	0
 6706 047a 00000000 		.4byte	0
 6707              	.LLST51:
 6708 047e 4C030000 		.4byte	.LVL95
 6709 0482 5C030000 		.4byte	.LVL96
 6710 0486 0600     		.2byte	0x6
 6711 0488 0C       		.byte	0xc
 6712 0489 00006640 		.4byte	0x40660000
 6713 048d 9F       		.byte	0x9f
 6714 048e 00000000 		.4byte	0
 6715 0492 00000000 		.4byte	0
 6716              	.LLST52:
 6717 0496 88030000 		.4byte	.LVL98
 6718 049a 92030000 		.4byte	.LVL100
 6719 049e 0100     		.2byte	0x1
 6720 04a0 52       		.byte	0x52
 6721 04a1 92030000 		.4byte	.LVL100
 6722 04a5 AA030000 		.4byte	.LVL101
 6723 04a9 0D00     		.2byte	0xd
 6724 04ab 03       		.byte	0x3
 6725 04ac 19000000 		.4byte	game_packet+1
 6726 04b0 94       		.byte	0x94
 6727 04b1 01       		.byte	0x1
 6728 04b2 08       		.byte	0x8
 6729 04b3 FF       		.byte	0xff
 6730 04b4 1A       		.byte	0x1a
 6731 04b5 31       		.byte	0x31
 6732 04b6 1C       		.byte	0x1c
 6733 04b7 9F       		.byte	0x9f
 6734 04b8 00000000 		.4byte	0
 6735 04bc 00000000 		.4byte	0
 6736              	.LLST53:
 6737 04c0 88030000 		.4byte	.LVL98
 6738 04c4 8C030000 		.4byte	.LVL99
 6739 04c8 0100     		.2byte	0x1
 6740 04ca 53       		.byte	0x53
 6741 04cb 8C030000 		.4byte	.LVL99
 6742 04cf AA030000 		.4byte	.LVL101
 6743 04d3 0D00     		.2byte	0xd
 6744 04d5 03       		.byte	0x3
 6745 04d6 18000000 		.4byte	game_packet
ARM GAS  C:\Users\ISAKVO~1\AppData\Local\Temp\ccR1W42h.s 			page 154


 6746 04da 94       		.byte	0x94
 6747 04db 01       		.byte	0x1
 6748 04dc 08       		.byte	0x8
 6749 04dd FF       		.byte	0xff
 6750 04de 1A       		.byte	0x1a
 6751 04df 31       		.byte	0x31
 6752 04e0 1C       		.byte	0x1c
 6753 04e1 9F       		.byte	0x9f
 6754 04e2 00000000 		.4byte	0
 6755 04e6 00000000 		.4byte	0
 6756              	.LLST54:
 6757 04ea D4030000 		.4byte	.LVL103
 6758 04ee EA030000 		.4byte	.LVL106
 6759 04f2 0100     		.2byte	0x1
 6760 04f4 54       		.byte	0x54
 6761 04f5 FE030000 		.4byte	.LVL108
 6762 04f9 18040000 		.4byte	.LVL112
 6763 04fd 0100     		.2byte	0x1
 6764 04ff 54       		.byte	0x54
 6765 0500 00000000 		.4byte	0
 6766 0504 00000000 		.4byte	0
 6767              	.LLST55:
 6768 0508 E8030000 		.4byte	.LVL105
 6769 050c EA030000 		.4byte	.LVL106
 6770 0510 0100     		.2byte	0x1
 6771 0512 53       		.byte	0x53
 6772 0513 12040000 		.4byte	.LVL110
 6773 0517 1A040000 		.4byte	.LVL113
 6774 051b 0100     		.2byte	0x1
 6775 051d 53       		.byte	0x53
 6776 051e 00000000 		.4byte	0
 6777 0522 00000000 		.4byte	0
 6778              	.LLST56:
 6779 0526 48040000 		.4byte	.LVL115
 6780 052a 8C040000 		.4byte	.LVL122
 6781 052e 0200     		.2byte	0x2
 6782 0530 39       		.byte	0x39
 6783 0531 9F       		.byte	0x9f
 6784 0532 00000000 		.4byte	0
 6785 0536 00000000 		.4byte	0
 6786              	.LLST57:
 6787 053a 48040000 		.4byte	.LVL115
 6788 053e 8C040000 		.4byte	.LVL122
 6789 0542 0600     		.2byte	0x6
 6790 0544 03       		.byte	0x3
 6791 0545 00000000 		.4byte	figures
 6792 0549 9F       		.byte	0x9f
 6793 054a 00000000 		.4byte	0
 6794 054e 00000000 		.4byte	0
 6795              	.LLST58:
 6796 0552 56040000 		.4byte	.LVL116
 6797 0556 5A040000 		.4byte	.LVL117
 6798 055a 0200     		.2byte	0x2
 6799 055c 31       		.byte	0x31
 6800 055d 9F       		.byte	0x9f
 6801 055e 5A040000 		.4byte	.LVL117
 6802 0562 6A040000 		.4byte	.LVL118
ARM GAS  C:\Users\ISAKVO~1\AppData\Local\Temp\ccR1W42h.s 			page 155


 6803 0566 0100     		.2byte	0x1
 6804 0568 53       		.byte	0x53
 6805 0569 6C040000 		.4byte	.LVL119
 6806 056d 7F040000 		.4byte	.LVL121-1
 6807 0571 0100     		.2byte	0x1
 6808 0573 53       		.byte	0x53
 6809 0574 00000000 		.4byte	0
 6810 0578 00000000 		.4byte	0
 6811              	.LLST59:
 6812 057c 70040000 		.4byte	.LVL120
 6813 0580 80040000 		.4byte	.LVL121
 6814 0584 0200     		.2byte	0x2
 6815 0586 3B       		.byte	0x3b
 6816 0587 9F       		.byte	0x9f
 6817 0588 00000000 		.4byte	0
 6818 058c 00000000 		.4byte	0
 6819              	.LLST60:
 6820 0590 70040000 		.4byte	.LVL120
 6821 0594 80040000 		.4byte	.LVL121
 6822 0598 0600     		.2byte	0x6
 6823 059a 03       		.byte	0x3
 6824 059b 34000000 		.4byte	communication_send_buffer
 6825 059f 9F       		.byte	0x9f
 6826 05a0 00000000 		.4byte	0
 6827 05a4 00000000 		.4byte	0
 6828              	.LLST63:
 6829 05a8 70040000 		.4byte	.LVL120
 6830 05ac 80040000 		.4byte	.LVL121
 6831 05b0 0600     		.2byte	0x6
 6832 05b2 0C       		.byte	0xc
 6833 05b3 00006640 		.4byte	0x40660000
 6834 05b7 9F       		.byte	0x9f
 6835 05b8 00000000 		.4byte	0
 6836 05bc 00000000 		.4byte	0
 6837              	.LLST64:
 6838 05c0 B2040000 		.4byte	.LVL125
 6839 05c4 BC040000 		.4byte	.LVL127
 6840 05c8 0100     		.2byte	0x1
 6841 05ca 53       		.byte	0x53
 6842 05cb BC040000 		.4byte	.LVL127
 6843 05cf D6040000 		.4byte	.LVL128
 6844 05d3 1F00     		.2byte	0x1f
 6845 05d5 70       		.byte	0x70
 6846 05d6 00       		.sleb128 0
 6847 05d7 70       		.byte	0x70
 6848 05d8 00       		.sleb128 0
 6849 05d9 F7       		.byte	0xf7
 6850 05da 2C       		.uleb128 0x2c
 6851 05db F7       		.byte	0xf7
 6852 05dc 25       		.uleb128 0x25
 6853 05dd 74       		.byte	0x74
 6854 05de 00       		.sleb128 0
 6855 05df F7       		.byte	0xf7
 6856 05e0 2C       		.uleb128 0x2c
 6857 05e1 F7       		.byte	0xf7
 6858 05e2 25       		.uleb128 0x25
 6859 05e3 1E       		.byte	0x1e
ARM GAS  C:\Users\ISAKVO~1\AppData\Local\Temp\ccR1W42h.s 			page 156


 6860 05e4 08       		.byte	0x8
 6861 05e5 20       		.byte	0x20
 6862 05e6 F7       		.byte	0xf7
 6863 05e7 25       		.uleb128 0x25
 6864 05e8 25       		.byte	0x25
 6865 05e9 F7       		.byte	0xf7
 6866 05ea 33       		.uleb128 0x33
 6867 05eb 70       		.byte	0x70
 6868 05ec 00       		.sleb128 0
 6869 05ed 4F       		.byte	0x4f
 6870 05ee 26       		.byte	0x26
 6871 05ef 1C       		.byte	0x1c
 6872 05f0 33       		.byte	0x33
 6873 05f1 1E       		.byte	0x1e
 6874 05f2 1C       		.byte	0x1c
 6875 05f3 9F       		.byte	0x9f
 6876 05f4 00000000 		.4byte	0
 6877 05f8 00000000 		.4byte	0
 6878              	.LLST65:
 6879 05fc B2040000 		.4byte	.LVL125
 6880 0600 B8040000 		.4byte	.LVL126
 6881 0604 0100     		.2byte	0x1
 6882 0606 55       		.byte	0x55
 6883 0607 00000000 		.4byte	0
 6884 060b 00000000 		.4byte	0
 6885              	.LLST66:
 6886 060f D6040000 		.4byte	.LVL128
 6887 0613 18050000 		.4byte	.LVL135
 6888 0617 0200     		.2byte	0x2
 6889 0619 39       		.byte	0x39
 6890 061a 9F       		.byte	0x9f
 6891 061b 00000000 		.4byte	0
 6892 061f 00000000 		.4byte	0
 6893              	.LLST67:
 6894 0623 D6040000 		.4byte	.LVL128
 6895 0627 18050000 		.4byte	.LVL135
 6896 062b 0600     		.2byte	0x6
 6897 062d 03       		.byte	0x3
 6898 062e 00000000 		.4byte	figures
 6899 0632 9F       		.byte	0x9f
 6900 0633 00000000 		.4byte	0
 6901 0637 00000000 		.4byte	0
 6902              	.LLST68:
 6903 063b E4040000 		.4byte	.LVL129
 6904 063f E8040000 		.4byte	.LVL130
 6905 0643 0200     		.2byte	0x2
 6906 0645 31       		.byte	0x31
 6907 0646 9F       		.byte	0x9f
 6908 0647 E8040000 		.4byte	.LVL130
 6909 064b F8040000 		.4byte	.LVL131
 6910 064f 0100     		.2byte	0x1
 6911 0651 53       		.byte	0x53
 6912 0652 FA040000 		.4byte	.LVL132
 6913 0656 0D050000 		.4byte	.LVL134-1
 6914 065a 0100     		.2byte	0x1
 6915 065c 53       		.byte	0x53
 6916 065d 00000000 		.4byte	0
ARM GAS  C:\Users\ISAKVO~1\AppData\Local\Temp\ccR1W42h.s 			page 157


 6917 0661 00000000 		.4byte	0
 6918              	.LLST69:
 6919 0665 FE040000 		.4byte	.LVL133
 6920 0669 0E050000 		.4byte	.LVL134
 6921 066d 0200     		.2byte	0x2
 6922 066f 3B       		.byte	0x3b
 6923 0670 9F       		.byte	0x9f
 6924 0671 00000000 		.4byte	0
 6925 0675 00000000 		.4byte	0
 6926              	.LLST70:
 6927 0679 FE040000 		.4byte	.LVL133
 6928 067d 0E050000 		.4byte	.LVL134
 6929 0681 0600     		.2byte	0x6
 6930 0683 03       		.byte	0x3
 6931 0684 34000000 		.4byte	communication_send_buffer
 6932 0688 9F       		.byte	0x9f
 6933 0689 00000000 		.4byte	0
 6934 068d 00000000 		.4byte	0
 6935              	.LLST73:
 6936 0691 FE040000 		.4byte	.LVL133
 6937 0695 0E050000 		.4byte	.LVL134
 6938 0699 0600     		.2byte	0x6
 6939 069b 0C       		.byte	0xc
 6940 069c 00006640 		.4byte	0x40660000
 6941 06a0 9F       		.byte	0x9f
 6942 06a1 00000000 		.4byte	0
 6943 06a5 00000000 		.4byte	0
 6944              	.LLST74:
 6945 06a9 22050000 		.4byte	.LVL137
 6946 06ad 2E050000 		.4byte	.LVL138
 6947 06b1 0100     		.2byte	0x1
 6948 06b3 53       		.byte	0x53
 6949 06b4 34050000 		.4byte	.LVL139
 6950 06b8 3C050000 		.4byte	.LVL140
 6951 06bc 0100     		.2byte	0x1
 6952 06be 53       		.byte	0x53
 6953 06bf 3E050000 		.4byte	.LVL141
 6954 06c3 40050000 		.4byte	.LVL142
 6955 06c7 0100     		.2byte	0x1
 6956 06c9 53       		.byte	0x53
 6957 06ca 4A050000 		.4byte	.LVL143
 6958 06ce 50050000 		.4byte	.LVL144
 6959 06d2 0100     		.2byte	0x1
 6960 06d4 53       		.byte	0x53
 6961 06d5 00000000 		.4byte	0
 6962 06d9 00000000 		.4byte	0
 6963              	.LLST75:
 6964 06dd 50050000 		.4byte	.LVL144
 6965 06e1 AA050000 		.4byte	.LVL162
 6966 06e5 0100     		.2byte	0x1
 6967 06e7 50       		.byte	0x50
 6968 06e8 AC050000 		.4byte	.LVL163
 6969 06ec C8050000 		.4byte	.LFE494
 6970 06f0 0100     		.2byte	0x1
 6971 06f2 50       		.byte	0x50
 6972 06f3 00000000 		.4byte	0
 6973 06f7 00000000 		.4byte	0
ARM GAS  C:\Users\ISAKVO~1\AppData\Local\Temp\ccR1W42h.s 			page 158


 6974              	.LLST76:
 6975 06fb 50050000 		.4byte	.LVL144
 6976 06ff 68050000 		.4byte	.LVL148
 6977 0703 0100     		.2byte	0x1
 6978 0705 54       		.byte	0x54
 6979 0706 6C050000 		.4byte	.LVL149
 6980 070a AC050000 		.4byte	.LVL163
 6981 070e 0100     		.2byte	0x1
 6982 0710 54       		.byte	0x54
 6983 0711 00000000 		.4byte	0
 6984 0715 00000000 		.4byte	0
 6985              	.LLST77:
 6986 0719 96050000 		.4byte	.LVL157
 6987 071d 98050000 		.4byte	.LVL158
 6988 0721 0200     		.2byte	0x2
 6989 0723 30       		.byte	0x30
 6990 0724 9F       		.byte	0x9f
 6991 0725 98050000 		.4byte	.LVL158
 6992 0729 A2050000 		.4byte	.LVL159
 6993 072d 0100     		.2byte	0x1
 6994 072f 53       		.byte	0x53
 6995 0730 A4050000 		.4byte	.LVL160
 6996 0734 A8050000 		.4byte	.LVL161
 6997 0738 0100     		.2byte	0x1
 6998 073a 53       		.byte	0x53
 6999 073b 00000000 		.4byte	0
 7000 073f 00000000 		.4byte	0
 7001              	.LLST78:
 7002 0743 50050000 		.4byte	.LVL144
 7003 0747 64050000 		.4byte	.LVL146
 7004 074b 0100     		.2byte	0x1
 7005 074d 53       		.byte	0x53
 7006 074e 66050000 		.4byte	.LVL147
 7007 0752 68050000 		.4byte	.LVL148
 7008 0756 0100     		.2byte	0x1
 7009 0758 53       		.byte	0x53
 7010 0759 6C050000 		.4byte	.LVL149
 7011 075d 74050000 		.4byte	.LVL150
 7012 0761 0100     		.2byte	0x1
 7013 0763 53       		.byte	0x53
 7014 0764 8C050000 		.4byte	.LVL155
 7015 0768 92050000 		.4byte	.LVL156
 7016 076c 0100     		.2byte	0x1
 7017 076e 53       		.byte	0x53
 7018 076f 00000000 		.4byte	0
 7019 0773 00000000 		.4byte	0
 7020              	.LLST79:
 7021 0777 78050000 		.4byte	.LVL151
 7022 077b 7A050000 		.4byte	.LVL152
 7023 077f 0200     		.2byte	0x2
 7024 0781 30       		.byte	0x30
 7025 0782 9F       		.byte	0x9f
 7026 0783 7A050000 		.4byte	.LVL152
 7027 0787 84050000 		.4byte	.LVL153
 7028 078b 0100     		.2byte	0x1
 7029 078d 53       		.byte	0x53
 7030 078e 86050000 		.4byte	.LVL154
ARM GAS  C:\Users\ISAKVO~1\AppData\Local\Temp\ccR1W42h.s 			page 159


 7031 0792 8C050000 		.4byte	.LVL155
 7032 0796 0100     		.2byte	0x1
 7033 0798 53       		.byte	0x53
 7034 0799 00000000 		.4byte	0
 7035 079d 00000000 		.4byte	0
 7036              		.section	.debug_aranges,"",%progbits
 7037 0000 1C000000 		.4byte	0x1c
 7038 0004 0200     		.2byte	0x2
 7039 0006 00000000 		.4byte	.Ldebug_info0
 7040 000a 04       		.byte	0x4
 7041 000b 00       		.byte	0
 7042 000c 0000     		.2byte	0
 7043 000e 0000     		.2byte	0
 7044 0010 00000000 		.4byte	.LFB494
 7045 0014 C8050000 		.4byte	.LFE494-.LFB494
 7046 0018 00000000 		.4byte	0
 7047 001c 00000000 		.4byte	0
 7048              		.section	.debug_ranges,"",%progbits
 7049              	.Ldebug_ranges0:
 7050 0000 1C000000 		.4byte	.LBB154
 7051 0004 2E000000 		.4byte	.LBE154
 7052 0008 30000000 		.4byte	.LBB155
 7053 000c 34000000 		.4byte	.LBE155
 7054 0010 00000000 		.4byte	0
 7055 0014 00000000 		.4byte	0
 7056 0018 9E000000 		.4byte	.LBB166
 7057 001c B2000000 		.4byte	.LBE166
 7058 0020 B4000000 		.4byte	.LBB167
 7059 0024 B8000000 		.4byte	.LBE167
 7060 0028 00000000 		.4byte	0
 7061 002c 00000000 		.4byte	0
 7062 0030 12010000 		.4byte	.LBB169
 7063 0034 6C020000 		.4byte	.LBE169
 7064 0038 70020000 		.4byte	.LBB246
 7065 003c BC020000 		.4byte	.LBE246
 7066 0040 D0020000 		.4byte	.LBB248
 7067 0044 1E050000 		.4byte	.LBE248
 7068 0048 00000000 		.4byte	0
 7069 004c 00000000 		.4byte	0
 7070 0050 32010000 		.4byte	.LBB176
 7071 0054 46010000 		.4byte	.LBE176
 7072 0058 48010000 		.4byte	.LBB177
 7073 005c 4C010000 		.4byte	.LBE177
 7074 0060 00000000 		.4byte	0
 7075 0064 00000000 		.4byte	0
 7076 0068 76010000 		.4byte	.LBB182
 7077 006c 88010000 		.4byte	.LBE182
 7078 0070 8A010000 		.4byte	.LBB183
 7079 0074 8E010000 		.4byte	.LBE183
 7080 0078 00000000 		.4byte	0
 7081 007c 00000000 		.4byte	0
 7082 0080 F8010000 		.4byte	.LBB194
 7083 0084 0C020000 		.4byte	.LBE194
 7084 0088 0E020000 		.4byte	.LBB195
 7085 008c 12020000 		.4byte	.LBE195
 7086 0090 00000000 		.4byte	0
 7087 0094 00000000 		.4byte	0
ARM GAS  C:\Users\ISAKVO~1\AppData\Local\Temp\ccR1W42h.s 			page 160


 7088 0098 6C020000 		.4byte	.LBB231
 7089 009c 70020000 		.4byte	.LBE231
 7090 00a0 BC020000 		.4byte	.LBB247
 7091 00a4 D0020000 		.4byte	.LBE247
 7092 00a8 1E050000 		.4byte	.LBB249
 7093 00ac C8050000 		.4byte	.LBE249
 7094 00b0 00000000 		.4byte	0
 7095 00b4 00000000 		.4byte	0
 7096 00b8 6C020000 		.4byte	.LBB232
 7097 00bc 70020000 		.4byte	.LBE232
 7098 00c0 BC020000 		.4byte	.LBB233
 7099 00c4 D0020000 		.4byte	.LBE233
 7100 00c8 1E050000 		.4byte	.LBB234
 7101 00cc 30050000 		.4byte	.LBE234
 7102 00d0 34050000 		.4byte	.LBB244
 7103 00d4 50050000 		.4byte	.LBE244
 7104 00d8 00000000 		.4byte	0
 7105 00dc 00000000 		.4byte	0
 7106 00e0 30050000 		.4byte	.LBB235
 7107 00e4 34050000 		.4byte	.LBE235
 7108 00e8 50050000 		.4byte	.LBB245
 7109 00ec C8050000 		.4byte	.LBE245
 7110 00f0 00000000 		.4byte	0
 7111 00f4 00000000 		.4byte	0
 7112 00f8 30050000 		.4byte	.LBB236
 7113 00fc 34050000 		.4byte	.LBE236
 7114 0100 50050000 		.4byte	.LBB242
 7115 0104 68050000 		.4byte	.LBE242
 7116 0108 6C050000 		.4byte	.LBB243
 7117 010c A8050000 		.4byte	.LBE243
 7118 0110 00000000 		.4byte	0
 7119 0114 00000000 		.4byte	0
 7120 0118 30050000 		.4byte	.LBB237
 7121 011c 34050000 		.4byte	.LBE237
 7122 0120 98050000 		.4byte	.LBB241
 7123 0124 A8050000 		.4byte	.LBE241
 7124 0128 00000000 		.4byte	0
 7125 012c 00000000 		.4byte	0
 7126 0130 50050000 		.4byte	.LBB238
 7127 0134 68050000 		.4byte	.LBE238
 7128 0138 6C050000 		.4byte	.LBB239
 7129 013c 70050000 		.4byte	.LBE239
 7130 0140 00000000 		.4byte	0
 7131 0144 00000000 		.4byte	0
 7132 0148 00000000 		.4byte	.LFB494
 7133 014c C8050000 		.4byte	.LFE494
 7134 0150 00000000 		.4byte	0
 7135 0154 00000000 		.4byte	0
 7136              		.section	.debug_line,"",%progbits
 7137              	.Ldebug_line0:
 7138 0000 7A050000 		.section	.debug_str,"MS",%progbits,1
 7138      02000004 
 7138      00000201 
 7138      FB0E0D00 
 7138      01010101 
 7139              	.LASF134:
 7140 0000 666C6173 		.ascii	"flashCtlMainWs1Freq\000"
ARM GAS  C:\Users\ISAKVO~1\AppData\Local\Temp\ccR1W42h.s 			page 161


 7140      6843746C 
 7140      4D61696E 
 7140      57733146 
 7140      72657100 
 7141              	.LASF208:
 7142 0014 5F666C6F 		.ascii	"_flock_t\000"
 7142      636B5F74 
 7142      00
 7143              	.LASF368:
 7144 001d 433A5C4C 		.ascii	"C:\\LPNU\\3\\CSAD\\psoc_project\\csad_work\\Design0"
 7144      504E555C 
 7144      335C4353 
 7144      41445C70 
 7144      736F635F 
 7145 004a 312E6379 		.ascii	"1.cydsn\000"
 7145      64736E00 
 7146              	.LASF24:
 7147 0052 52455345 		.ascii	"RESERVED\000"
 7147      52564544 
 7147      00
 7148              	.LASF210:
 7149 005b 63795F73 		.ascii	"cy_stc_scb_uart_context\000"
 7149      74635F73 
 7149      63625F75 
 7149      6172745F 
 7149      636F6E74 
 7150              	.LASF367:
 7151 0073 6D61696E 		.ascii	"main_cm4.c\000"
 7151      5F636D34 
 7151      2E6300
 7152              	.LASF355:
 7153 007e 63795F64 		.ascii	"cy_device\000"
 7153      65766963 
 7153      6500
 7154              	.LASF360:
 7155 0088 73657476 		.ascii	"setvbuf\000"
 7155      62756600 
 7156              	.LASF161:
 7157 0090 63707573 		.ascii	"cpussCm0ClockCtlOffset\000"
 7157      73436D30 
 7157      436C6F63 
 7157      6B43746C 
 7157      4F666673 
 7158              	.LASF120:
 7159 00a7 70657269 		.ascii	"periClockNr\000"
 7159      436C6F63 
 7159      6B4E7200 
 7160              	.LASF348:
 7161 00b3 6D616E5F 		.ascii	"man_vs_man_packet\000"
 7161      76735F6D 
 7161      616E5F70 
 7161      61636B65 
 7161      7400
 7162              	.LASF184:
 7163 00c5 74785374 		.ascii	"txStatus\000"
 7163      61747573 
 7163      00
ARM GAS  C:\Users\ISAKVO~1\AppData\Local\Temp\ccR1W42h.s 			page 162


 7164              	.LASF226:
 7165 00ce 5F6F6E5F 		.ascii	"_on_exit_args\000"
 7165      65786974 
 7165      5F617267 
 7165      7300
 7166              	.LASF94:
 7167 00dc 75646242 		.ascii	"udbBase\000"
 7167      61736500 
 7168              	.LASF243:
 7169 00e4 5F777269 		.ascii	"_write\000"
 7169      746500
 7170              	.LASF23:
 7171 00eb 434D445F 		.ascii	"CMD_RESP_STATUS\000"
 7171      52455350 
 7171      5F535441 
 7171      54555300 
 7172              	.LASF81:
 7173 00fb 494E5452 		.ascii	"INTR_TX_MASK\000"
 7173      5F54585F 
 7173      4D41534B 
 7173      00
 7174              	.LASF93:
 7175 0108 70657269 		.ascii	"periBase\000"
 7175      42617365 
 7175      00
 7176              	.LASF293:
 7177 0111 5F776374 		.ascii	"_wctomb_state\000"
 7177      6F6D625F 
 7177      73746174 
 7177      6500
 7178              	.LASF290:
 7179 011f 5F723438 		.ascii	"_r48\000"
 7179      00
 7180              	.LASF139:
 7181 0124 64774368 		.ascii	"dwChSize\000"
 7181      53697A65 
 7181      00
 7182              	.LASF42:
 7183 012d 54585F46 		.ascii	"TX_FIFO_STATUS\000"
 7183      49464F5F 
 7183      53544154 
 7183      555300
 7184              	.LASF255:
 7185 013c 5F657272 		.ascii	"_errno\000"
 7185      6E6F00
 7186              	.LASF341:
 7187 0143 636F6D6D 		.ascii	"communication_receive_buffer\000"
 7187      756E6963 
 7187      6174696F 
 7187      6E5F7265 
 7187      63656976 
 7188              	.LASF295:
 7189 0160 5F736967 		.ascii	"_signal_buf\000"
 7189      6E616C5F 
 7189      62756600 
 7190              	.LASF1:
 7191 016c 756E7369 		.ascii	"unsigned int\000"
ARM GAS  C:\Users\ISAKVO~1\AppData\Local\Temp\ccR1W42h.s 			page 163


 7191      676E6564 
 7191      20696E74 
 7191      00
 7192              	.LASF57:
 7193 0179 494E5452 		.ascii	"INTR_CAUSE\000"
 7193      5F434155 
 7193      534500
 7194              	.LASF121:
 7195 0184 736D6966 		.ascii	"smifDeviceNr\000"
 7195      44657669 
 7195      63654E72 
 7195      00
 7196              	.LASF151:
 7197 0191 70657269 		.ascii	"periDivCmdPaTypeSelPos\000"
 7197      44697643 
 7197      6D645061 
 7197      54797065 
 7197      53656C50 
 7198              	.LASF240:
 7199 01a8 5F6C6266 		.ascii	"_lbfsize\000"
 7199      73697A65 
 7199      00
 7200              	.LASF238:
 7201 01b1 5F666C61 		.ascii	"_flags\000"
 7201      677300
 7202              	.LASF321:
 7203 01b8 696E6465 		.ascii	"index\000"
 7203      7800
 7204              	.LASF340:
 7205 01be 43795F53 		.ascii	"Cy_SCB_UART_PutArrayBlocking\000"
 7205      43425F55 
 7205      4152545F 
 7205      50757441 
 7205      72726179 
 7206              	.LASF47:
 7207 01db 52585F46 		.ascii	"RX_FIFO_CTRL\000"
 7207      49464F5F 
 7207      4354524C 
 7207      00
 7208              	.LASF9:
 7209 01e8 5F5F696E 		.ascii	"__int32_t\000"
 7209      7433325F 
 7209      7400
 7210              	.LASF366:
 7211 01f2 474E5520 		.ascii	"GNU C11 5.4.1 20160609 (release) [ARM/embedded-5-br"
 7211      43313120 
 7211      352E342E 
 7211      31203230 
 7211      31363036 
 7212 0225 616E6368 		.ascii	"anch revision 237715] -mcpu=cortex-m4 -mfloat-abi=s"
 7212      20726576 
 7212      6973696F 
 7212      6E203233 
 7212      37373135 
 7213 0258 6F667466 		.ascii	"oftfp -mfpu=fpv4-sp-d16 -mthumb -g -Og -ffunction-s"
 7213      70202D6D 
 7213      6670753D 
ARM GAS  C:\Users\ISAKVO~1\AppData\Local\Temp\ccR1W42h.s 			page 164


 7213      66707634 
 7213      2D73702D 
 7214 028b 65637469 		.ascii	"ections -ffat-lto-objects\000"
 7214      6F6E7320 
 7214      2D666661 
 7214      742D6C74 
 7214      6F2D6F62 
 7215              	.LASF200:
 7216 02a5 5F6F6666 		.ascii	"_off_t\000"
 7216      5F7400
 7217              	.LASF91:
 7218 02ac 63707573 		.ascii	"cpussBase\000"
 7218      73426173 
 7218      6500
 7219              	.LASF115:
 7220 02b6 63707573 		.ascii	"cpussFmIrq\000"
 7220      73466D49 
 7220      727100
 7221              	.LASF75:
 7222 02c1 494E5452 		.ascii	"INTR_S_SET\000"
 7222      5F535F53 
 7222      455400
 7223              	.LASF80:
 7224 02cc 494E5452 		.ascii	"INTR_TX_SET\000"
 7224      5F54585F 
 7224      53455400 
 7225              	.LASF87:
 7226 02d8 494E5452 		.ascii	"INTR_RX_MASKED\000"
 7226      5F52585F 
 7226      4D41534B 
 7226      454400
 7227              	.LASF2:
 7228 02e7 73686F72 		.ascii	"short int\000"
 7228      7420696E 
 7228      7400
 7229              	.LASF187:
 7230 02f1 72785269 		.ascii	"rxRingBufSize\000"
 7230      6E674275 
 7230      6653697A 
 7230      6500
 7231              	.LASF317:
 7232 02ff 55415254 		.ascii	"UART_GetArrayBlocking\000"
 7232      5F476574 
 7232      41727261 
 7232      79426C6F 
 7232      636B696E 
 7233              	.LASF199:
 7234 0315 5F4C4F43 		.ascii	"_LOCK_RECURSIVE_T\000"
 7234      4B5F5245 
 7234      43555253 
 7234      4956455F 
 7234      5400
 7235              	.LASF147:
 7236 0327 70657269 		.ascii	"periTrGrSize\000"
 7236      54724772 
 7236      53697A65 
 7236      00
ARM GAS  C:\Users\ISAKVO~1\AppData\Local\Temp\ccR1W42h.s 			page 165


 7237              	.LASF328:
 7238 0334 636F6D6D 		.ascii	"communication_start\000"
 7238      756E6963 
 7238      6174696F 
 7238      6E5F7374 
 7238      61727400 
 7239              	.LASF150:
 7240 0348 70657269 		.ascii	"periDivCmdPaDivSelPos\000"
 7240      44697643 
 7240      6D645061 
 7240      44697653 
 7240      656C506F 
 7241              	.LASF242:
 7242 035e 5F726561 		.ascii	"_read\000"
 7242      6400
 7243              	.LASF127:
 7244 0364 63727970 		.ascii	"cryptoMemSize\000"
 7244      746F4D65 
 7244      6D53697A 
 7244      6500
 7245              	.LASF297:
 7246 0372 5F6D6272 		.ascii	"_mbrlen_state\000"
 7246      6C656E5F 
 7246      73746174 
 7246      6500
 7247              	.LASF173:
 7248 0380 63707573 		.ascii	"cpussRam1Ctl0\000"
 7248      7352616D 
 7248      3143746C 
 7248      3000
 7249              	.LASF175:
 7250 038e 69706353 		.ascii	"ipcStructSize\000"
 7250      74727563 
 7250      7453697A 
 7250      6500
 7251              	.LASF300:
 7252 039c 5F776372 		.ascii	"_wcrtomb_state\000"
 7252      746F6D62 
 7252      5F737461 
 7252      746500
 7253              	.LASF318:
 7254 03ab 73656E64 		.ascii	"send_ack\000"
 7254      5F61636B 
 7254      00
 7255              	.LASF257:
 7256 03b4 5F737464 		.ascii	"_stdout\000"
 7256      6F757400 
 7257              	.LASF327:
 7258 03bc 67616D65 		.ascii	"game_start\000"
 7258      5F737461 
 7258      727400
 7259              	.LASF109:
 7260 03c7 70726F74 		.ascii	"protVersion\000"
 7260      56657273 
 7260      696F6E00 
 7261              	.LASF30:
 7262 03d3 55415254 		.ascii	"UART_RX_CTRL\000"
ARM GAS  C:\Users\ISAKVO~1\AppData\Local\Temp\ccR1W42h.s 			page 166


 7262      5F52585F 
 7262      4354524C 
 7262      00
 7263              	.LASF201:
 7264 03e0 5F66706F 		.ascii	"_fpos_t\000"
 7264      735F7400 
 7265              	.LASF171:
 7266 03e8 63707573 		.ascii	"cpussRomCtl\000"
 7266      73526F6D 
 7266      43746C00 
 7267              	.LASF357:
 7268 03f4 5F696D70 		.ascii	"_impure_ptr\000"
 7268      7572655F 
 7268      70747200 
 7269              	.LASF233:
 7270 0400 5F666E73 		.ascii	"_fns\000"
 7270      00
 7271              	.LASF241:
 7272 0405 5F636F6F 		.ascii	"_cookie\000"
 7272      6B696500 
 7273              	.LASF149:
 7274 040d 70657269 		.ascii	"periDivCmdTypeSelPos\000"
 7274      44697643 
 7274      6D645479 
 7274      70655365 
 7274      6C506F73 
 7275              	.LASF166:
 7276 0422 63707573 		.ascii	"cpussTrimRamCtlOffset\000"
 7276      73547269 
 7276      6D52616D 
 7276      43746C4F 
 7276      66667365 
 7277              	.LASF89:
 7278 0438 43795343 		.ascii	"CySCB_Type\000"
 7278      425F5479 
 7278      706500
 7279              	.LASF211:
 7280 0443 5F426967 		.ascii	"_Bigint\000"
 7280      696E7400 
 7281              	.LASF38:
 7282 044b 4932435F 		.ascii	"I2C_CFG\000"
 7282      43464700 
 7283              	.LASF223:
 7284 0453 5F5F746D 		.ascii	"__tm_wday\000"
 7284      5F776461 
 7284      7900
 7285              	.LASF202:
 7286 045d 77696E74 		.ascii	"wint_t\000"
 7286      5F7400
 7287              	.LASF265:
 7288 0464 5F726573 		.ascii	"_result\000"
 7288      756C7400 
 7289              	.LASF53:
 7290 046c 52585F46 		.ascii	"RX_FIFO_RD_SILENT\000"
 7290      49464F5F 
 7290      52445F53 
 7290      494C454E 
ARM GAS  C:\Users\ISAKVO~1\AppData\Local\Temp\ccR1W42h.s 			page 167


 7290      5400
 7291              	.LASF313:
 7292 047e 41495F56 		.ascii	"AI_VS_AI\000"
 7292      535F4149 
 7292      00
 7293              	.LASF18:
 7294 0487 75696E74 		.ascii	"uint32_t\000"
 7294      33325F74 
 7294      00
 7295              	.LASF335:
 7296 0490 63686563 		.ascii	"check_win\000"
 7296      6B5F7769 
 7296      6E00
 7297              	.LASF219:
 7298 049a 5F5F746D 		.ascii	"__tm_hour\000"
 7298      5F686F75 
 7298      7200
 7299              	.LASF347:
 7300 04a4 67616D65 		.ascii	"game_packet\000"
 7300      5F706163 
 7300      6B657400 
 7301              	.LASF70:
 7302 04b0 494E5452 		.ascii	"INTR_M_SET\000"
 7302      5F4D5F53 
 7302      455400
 7303              	.LASF305:
 7304 04bb 5F756E75 		.ascii	"_unused\000"
 7304      73656400 
 7305              	.LASF159:
 7306 04c3 6770696F 		.ascii	"gpioPrtCfgOutOffset\000"
 7306      50727443 
 7306      66674F75 
 7306      744F6666 
 7306      73657400 
 7307              	.LASF205:
 7308 04d7 5F5F636F 		.ascii	"__count\000"
 7308      756E7400 
 7309              	.LASF0:
 7310 04df 6C6F6E67 		.ascii	"long long unsigned int\000"
 7310      206C6F6E 
 7310      6720756E 
 7310      7369676E 
 7310      65642069 
 7311              	.LASF336:
 7312 04f6 61636375 		.ascii	"accumulator\000"
 7312      6D756C61 
 7312      746F7200 
 7313              	.LASF102:
 7314 0502 63727970 		.ascii	"cryptoVersion\000"
 7314      746F5665 
 7314      7273696F 
 7314      6E00
 7315              	.LASF280:
 7316 0510 5F72616E 		.ascii	"_rand48\000"
 7316      64343800 
 7317              	.LASF72:
 7318 0518 494E5452 		.ascii	"INTR_M_MASKED\000"
ARM GAS  C:\Users\ISAKVO~1\AppData\Local\Temp\ccR1W42h.s 			page 168


 7318      5F4D5F4D 
 7318      41534B45 
 7318      4400
 7319              	.LASF131:
 7320 0526 666C6173 		.ascii	"flashProgramDelay\000"
 7320      6850726F 
 7320      6772616D 
 7320      44656C61 
 7320      7900
 7321              	.LASF334:
 7322 0538 62617365 		.ascii	"base\000"
 7322      00
 7323              	.LASF303:
 7324 053d 5F6E6578 		.ascii	"_nextf\000"
 7324      746600
 7325              	.LASF15:
 7326 0544 696E7431 		.ascii	"int16_t\000"
 7326      365F7400 
 7327              	.LASF299:
 7328 054c 5F6D6273 		.ascii	"_mbsrtowcs_state\000"
 7328      72746F77 
 7328      63735F73 
 7328      74617465 
 7328      00
 7329              	.LASF158:
 7330 055d 6770696F 		.ascii	"gpioPrtCfgInOffset\000"
 7330      50727443 
 7330      6667496E 
 7330      4F666673 
 7330      657400
 7331              	.LASF135:
 7332 0570 666C6173 		.ascii	"flashCtlMainWs2Freq\000"
 7332      6843746C 
 7332      4D61696E 
 7332      57733246 
 7332      72657100 
 7333              	.LASF359:
 7334 0584 55415254 		.ascii	"UART_Start\000"
 7334      5F537461 
 7334      727400
 7335              	.LASF155:
 7336 058f 70657269 		.ascii	"periDiv24_5CtlOffset\000"
 7336      44697632 
 7336      345F3543 
 7336      746C4F66 
 7336      66736574 
 7337              	.LASF160:
 7338 05a4 6770696F 		.ascii	"gpioPrtCfgSioOffset\000"
 7338      50727443 
 7338      66675369 
 7338      6F4F6666 
 7338      73657400 
 7339              	.LASF237:
 7340 05b8 5F5F7346 		.ascii	"__sFILE\000"
 7340      494C4500 
 7341              	.LASF215:
 7342 05c0 5F776473 		.ascii	"_wds\000"
ARM GAS  C:\Users\ISAKVO~1\AppData\Local\Temp\ccR1W42h.s 			page 169


 7342      00
 7343              	.LASF324:
 7344 05c5 7365745F 		.ascii	"set_figure\000"
 7344      66696775 
 7344      726500
 7345              	.LASF7:
 7346 05d0 5F5F7569 		.ascii	"__uint16_t\000"
 7346      6E743136 
 7346      5F7400
 7347              	.LASF276:
 7348 05db 5F5F4649 		.ascii	"__FILE\000"
 7348      4C4500
 7349              	.LASF249:
 7350 05e2 5F6F6666 		.ascii	"_offset\000"
 7350      73657400 
 7351              	.LASF246:
 7352 05ea 5F756275 		.ascii	"_ubuf\000"
 7352      6600
 7353              	.LASF29:
 7354 05f0 55415254 		.ascii	"UART_TX_CTRL\000"
 7354      5F54585F 
 7354      4354524C 
 7354      00
 7355              	.LASF311:
 7356 05fd 4D414E5F 		.ascii	"MAN_VS_MAN\000"
 7356      56535F4D 
 7356      414E00
 7357              	.LASF132:
 7358 0608 666C6173 		.ascii	"flashEraseDelay\000"
 7358      68457261 
 7358      73654465 
 7358      6C617900 
 7359              	.LASF185:
 7360 0618 72785374 		.ascii	"rxStatus\000"
 7360      61747573 
 7360      00
 7361              	.LASF260:
 7362 0621 5F656D65 		.ascii	"_emergency\000"
 7362      7267656E 
 7362      637900
 7363              	.LASF136:
 7364 062c 666C6173 		.ascii	"flashCtlMainWs3Freq\000"
 7364      6843746C 
 7364      4D61696E 
 7364      57733346 
 7364      72657100 
 7365              	.LASF118:
 7366 0640 73727373 		.ascii	"srssNumPll\000"
 7366      4E756D50 
 7366      6C6C00
 7367              	.LASF64:
 7368 064b 494E5452 		.ascii	"INTR_SPI_EC\000"
 7368      5F535049 
 7368      5F454300 
 7369              	.LASF362:
 7370 0657 6D656D63 		.ascii	"memcmp\000"
 7370      6D7000
ARM GAS  C:\Users\ISAKVO~1\AppData\Local\Temp\ccR1W42h.s 			page 170


 7371              	.LASF196:
 7372 065e 63624576 		.ascii	"cbEvents\000"
 7372      656E7473 
 7372      00
 7373              	.LASF232:
 7374 0667 5F696E64 		.ascii	"_ind\000"
 7374      00
 7375              	.LASF286:
 7376 066c 5F617363 		.ascii	"_asctime_buf\000"
 7376      74696D65 
 7376      5F627566 
 7376      00
 7377              	.LASF282:
 7378 0679 5F6D756C 		.ascii	"_mult\000"
 7378      7400
 7379              	.LASF351:
 7380 067f 72657365 		.ascii	"reset_packet\000"
 7380      745F7061 
 7380      636B6574 
 7380      00
 7381              	.LASF343:
 7382 068c 67616D65 		.ascii	"game_running\000"
 7382      5F72756E 
 7382      6E696E67 
 7382      00
 7383              	.LASF182:
 7384 0699 5F426F6F 		.ascii	"_Bool\000"
 7384      6C00
 7385              	.LASF207:
 7386 069f 5F6D6273 		.ascii	"_mbstate_t\000"
 7386      74617465 
 7386      5F7400
 7387              	.LASF50:
 7388 06aa 52585F4D 		.ascii	"RX_MATCH\000"
 7388      41544348 
 7388      00
 7389              	.LASF133:
 7390 06b3 666C6173 		.ascii	"flashCtlMainWs0Freq\000"
 7390      6843746C 
 7390      4D61696E 
 7390      57733046 
 7390      72657100 
 7391              	.LASF212:
 7392 06c7 5F6E6578 		.ascii	"_next\000"
 7392      7400
 7393              	.LASF354:
 7394 06cd 49544D5F 		.ascii	"ITM_RxBuffer\000"
 7394      52784275 
 7394      66666572 
 7394      00
 7395              	.LASF97:
 7396 06da 6770696F 		.ascii	"gpioBase\000"
 7396      42617365 
 7396      00
 7397              	.LASF59:
 7398 06e3 494E5452 		.ascii	"INTR_I2C_EC\000"
 7398      5F493243 
ARM GAS  C:\Users\ISAKVO~1\AppData\Local\Temp\ccR1W42h.s 			page 171


 7398      5F454300 
 7399              	.LASF77:
 7400 06ef 494E5452 		.ascii	"INTR_S_MASKED\000"
 7400      5F535F4D 
 7400      41534B45 
 7400      4400
 7401              	.LASF224:
 7402 06fd 5F5F746D 		.ascii	"__tm_yday\000"
 7402      5F796461 
 7402      7900
 7403              	.LASF323:
 7404 0707 55415254 		.ascii	"UART_PutArrayBlocking\000"
 7404      5F507574 
 7404      41727261 
 7404      79426C6F 
 7404      636B696E 
 7405              	.LASF168:
 7406 071d 63707573 		.ascii	"cpussSysTickCtlOffset\000"
 7406      73537973 
 7406      5469636B 
 7406      43746C4F 
 7406      66667365 
 7407              	.LASF124:
 7408 0733 75646250 		.ascii	"udbPresent\000"
 7408      72657365 
 7408      6E7400
 7409              	.LASF206:
 7410 073e 5F5F7661 		.ascii	"__value\000"
 7410      6C756500 
 7411              	.LASF142:
 7412 0746 64775374 		.ascii	"dwStatusChIdxPos\000"
 7412      61747573 
 7412      43684964 
 7412      78506F73 
 7412      00
 7413              	.LASF110:
 7414 0757 63707573 		.ascii	"cpussIpcNr\000"
 7414      73497063 
 7414      4E7200
 7415              	.LASF267:
 7416 0762 5F703573 		.ascii	"_p5s\000"
 7416      00
 7417              	.LASF301:
 7418 0767 5F776373 		.ascii	"_wcsrtombs_state\000"
 7418      72746F6D 
 7418      62735F73 
 7418      74617465 
 7418      00
 7419              	.LASF291:
 7420 0778 5F6D626C 		.ascii	"_mblen_state\000"
 7420      656E5F73 
 7420      74617465 
 7420      00
 7421              	.LASF92:
 7422 0785 666C6173 		.ascii	"flashcBase\000"
 7422      68634261 
 7422      736500
ARM GAS  C:\Users\ISAKVO~1\AppData\Local\Temp\ccR1W42h.s 			page 172


 7423              	.LASF179:
 7424 0790 63686172 		.ascii	"char\000"
 7424      00
 7425              	.LASF220:
 7426 0795 5F5F746D 		.ascii	"__tm_mday\000"
 7426      5F6D6461 
 7426      7900
 7427              	.LASF88:
 7428 079f 43795343 		.ascii	"CySCB_V1_Type\000"
 7428      425F5631 
 7428      5F547970 
 7428      6500
 7429              	.LASF298:
 7430 07ad 5F6D6272 		.ascii	"_mbrtowc_state\000"
 7430      746F7763 
 7430      5F737461 
 7430      746500
 7431              	.LASF189:
 7432 07bc 72785269 		.ascii	"rxRingBufTail\000"
 7432      6E674275 
 7432      66546169 
 7432      6C00
 7433              	.LASF76:
 7434 07ca 494E5452 		.ascii	"INTR_S_MASK\000"
 7434      5F535F4D 
 7434      41534B00 
 7435              	.LASF125:
 7436 07d6 73797350 		.ascii	"sysPmSimoPresent\000"
 7436      6D53696D 
 7436      6F507265 
 7436      73656E74 
 7436      00
 7437              	.LASF62:
 7438 07e7 494E5452 		.ascii	"INTR_I2C_EC_MASKED\000"
 7438      5F493243 
 7438      5F45435F 
 7438      4D41534B 
 7438      454400
 7439              	.LASF248:
 7440 07fa 5F626C6B 		.ascii	"_blksize\000"
 7440      73697A65 
 7440      00
 7441              	.LASF266:
 7442 0803 5F726573 		.ascii	"_result_k\000"
 7442      756C745F 
 7442      6B00
 7443              	.LASF192:
 7444 080d 72784275 		.ascii	"rxBufIdx\000"
 7444      66496478 
 7444      00
 7445              	.LASF197:
 7446 0816 696E6974 		.ascii	"initKey\000"
 7446      4B657900 
 7447              	.LASF203:
 7448 081e 5F5F7763 		.ascii	"__wch\000"
 7448      6800
 7449              	.LASF143:
ARM GAS  C:\Users\ISAKVO~1\AppData\Local\Temp\ccR1W42h.s 			page 173


 7450 0824 64775374 		.ascii	"dwStatusChIdxMsk\000"
 7450      61747573 
 7450      43684964 
 7450      784D736B 
 7450      00
 7451              	.LASF14:
 7452 0835 75696E74 		.ascii	"uint8_t\000"
 7452      385F7400 
 7453              	.LASF346:
 7454 083d 74797065 		.ascii	"type\000"
 7454      00
 7455              	.LASF245:
 7456 0842 5F636C6F 		.ascii	"_close\000"
 7456      736500
 7457              	.LASF148:
 7458 0849 70657269 		.ascii	"periDivCmdDivSelMsk\000"
 7458      44697643 
 7458      6D644469 
 7458      7653656C 
 7458      4D736B00 
 7459              	.LASF273:
 7460 085d 5F736967 		.ascii	"_sig_func\000"
 7460      5F66756E 
 7460      6300
 7461              	.LASF154:
 7462 0867 70657269 		.ascii	"periDiv16_5CtlOffset\000"
 7462      44697631 
 7462      365F3543 
 7462      746C4F66 
 7462      66736574 
 7463              	.LASF364:
 7464 087c 72616E64 		.ascii	"rand\000"
 7464      00
 7465              	.LASF183:
 7466 0881 63795F63 		.ascii	"cy_cb_scb_uart_handle_events_t\000"
 7466      625F7363 
 7466      625F7561 
 7466      72745F68 
 7466      616E646C 
 7467              	.LASF256:
 7468 08a0 5F737464 		.ascii	"_stdin\000"
 7468      696E00
 7469              	.LASF288:
 7470 08a7 5F67616D 		.ascii	"_gamma_signgam\000"
 7470      6D615F73 
 7470      69676E67 
 7470      616D00
 7471              	.LASF172:
 7472 08b6 63707573 		.ascii	"cpussRam0Ctl0\000"
 7472      7352616D 
 7472      3043746C 
 7472      3000
 7473              	.LASF13:
 7474 08c4 6C6F6E67 		.ascii	"long long int\000"
 7474      206C6F6E 
 7474      6720696E 
 7474      7400
ARM GAS  C:\Users\ISAKVO~1\AppData\Local\Temp\ccR1W42h.s 			page 174


 7475              	.LASF99:
 7476 08d2 69706342 		.ascii	"ipcBase\000"
 7476      61736500 
 7477              	.LASF140:
 7478 08da 64774368 		.ascii	"dwChCtlPrioPos\000"
 7478      43746C50 
 7478      72696F50 
 7478      6F7300
 7479              	.LASF100:
 7480 08e9 63727970 		.ascii	"cryptoBase\000"
 7480      746F4261 
 7480      736500
 7481              	.LASF235:
 7482 08f4 5F626173 		.ascii	"_base\000"
 7482      6500
 7483              	.LASF268:
 7484 08fa 5F667265 		.ascii	"_freelist\000"
 7484      656C6973 
 7484      7400
 7485              	.LASF283:
 7486 0904 5F616464 		.ascii	"_add\000"
 7486      00
 7487              	.LASF130:
 7488 0909 666C6173 		.ascii	"flashWriteDelay\000"
 7488      68577269 
 7488      74654465 
 7488      6C617900 
 7489              	.LASF345:
 7490 0919 66696775 		.ascii	"figures\000"
 7490      72657300 
 7491              	.LASF52:
 7492 0921 52585F46 		.ascii	"RX_FIFO_RD\000"
 7492      49464F5F 
 7492      524400
 7493              	.LASF239:
 7494 092c 5F66696C 		.ascii	"_file\000"
 7494      6500
 7495              	.LASF325:
 7496 0932 66696775 		.ascii	"figure_index\000"
 7496      72655F69 
 7496      6E646578 
 7496      00
 7497              	.LASF6:
 7498 093f 5F5F696E 		.ascii	"__int16_t\000"
 7498      7431365F 
 7498      7400
 7499              	.LASF32:
 7500 0949 55415254 		.ascii	"UART_FLOW_CTRL\000"
 7500      5F464C4F 
 7500      575F4354 
 7500      524C00
 7501              	.LASF344:
 7502 0958 6D616E5F 		.ascii	"man_turn\000"
 7502      7475726E 
 7502      00
 7503              	.LASF349:
 7504 0961 6D616E5F 		.ascii	"man_vs_ai_packet\000"
ARM GAS  C:\Users\ISAKVO~1\AppData\Local\Temp\ccR1W42h.s 			page 175


 7504      76735F61 
 7504      695F7061 
 7504      636B6574 
 7504      00
 7505              	.LASF361:
 7506 0972 43795F53 		.ascii	"Cy_SCB_ReadArrayBlocking\000"
 7506      43425F52 
 7506      65616441 
 7506      72726179 
 7506      426C6F63 
 7507              	.LASF96:
 7508 098b 6873696F 		.ascii	"hsiomBase\000"
 7508      6D426173 
 7508      6500
 7509              	.LASF146:
 7510 0995 70657269 		.ascii	"periTrGrOffset\000"
 7510      54724772 
 7510      4F666673 
 7510      657400
 7511              	.LASF264:
 7512 09a4 5F5F636C 		.ascii	"__cleanup\000"
 7512      65616E75 
 7512      7000
 7513              	.LASF116:
 7514 09ae 63707573 		.ascii	"cpussNotConnectedIrq\000"
 7514      734E6F74 
 7514      436F6E6E 
 7514      65637465 
 7514      64497271 
 7515              	.LASF369:
 7516 09c3 67616D65 		.ascii	"game_run\000"
 7516      5F72756E 
 7516      00
 7517              	.LASF188:
 7518 09cc 72785269 		.ascii	"rxRingBufHead\000"
 7518      6E674275 
 7518      66486561 
 7518      6400
 7519              	.LASF112:
 7520 09da 63707573 		.ascii	"cpussDwChNr\000"
 7520      73447743 
 7520      684E7200 
 7521              	.LASF315:
 7522 09e6 62756666 		.ascii	"buffer\000"
 7522      657200
 7523              	.LASF218:
 7524 09ed 5F5F746D 		.ascii	"__tm_min\000"
 7524      5F6D696E 
 7524      00
 7525              	.LASF316:
 7526 09f6 73697A65 		.ascii	"size\000"
 7526      00
 7527              	.LASF350:
 7528 09fb 61695F76 		.ascii	"ai_vs_ai_packet\000"
 7528      735F6169 
 7528      5F706163 
 7528      6B657400 
ARM GAS  C:\Users\ISAKVO~1\AppData\Local\Temp\ccR1W42h.s 			page 176


 7529              	.LASF194:
 7530 0a0b 74784275 		.ascii	"txBufSize\000"
 7530      6653697A 
 7530      6500
 7531              	.LASF225:
 7532 0a15 5F5F746D 		.ascii	"__tm_isdst\000"
 7532      5F697364 
 7532      737400
 7533              	.LASF163:
 7534 0a20 63707573 		.ascii	"cpussCm4StatusOffset\000"
 7534      73436D34 
 7534      53746174 
 7534      75734F66 
 7534      66736574 
 7535              	.LASF308:
 7536 0a35 5F5F6669 		.ascii	"__figure_type\000"
 7536      67757265 
 7536      5F747970 
 7536      6500
 7537              	.LASF122:
 7538 0a43 70617373 		.ascii	"passSarChannels\000"
 7538      53617243 
 7538      68616E6E 
 7538      656C7300 
 7539              	.LASF174:
 7540 0a53 63707573 		.ascii	"cpussRam2Ctl0\000"
 7540      7352616D 
 7540      3243746C 
 7540      3000
 7541              	.LASF259:
 7542 0a61 5F696E63 		.ascii	"_inc\000"
 7542      00
 7543              	.LASF302:
 7544 0a66 5F685F65 		.ascii	"_h_errno\000"
 7544      72726E6F 
 7544      00
 7545              	.LASF84:
 7546 0a6f 494E5452 		.ascii	"INTR_RX\000"
 7546      5F525800 
 7547              	.LASF193:
 7548 0a77 74784275 		.ascii	"txBuf\000"
 7548      6600
 7549              	.LASF153:
 7550 0a7d 70657269 		.ascii	"periDiv16CtlOffset\000"
 7550      44697631 
 7550      3643746C 
 7550      4F666673 
 7550      657400
 7551              	.LASF331:
 7552 0a90 72656365 		.ascii	"receive_message\000"
 7552      6976655F 
 7552      6D657373 
 7552      61676500 
 7553              	.LASF221:
 7554 0aa0 5F5F746D 		.ascii	"__tm_mon\000"
 7554      5F6D6F6E 
 7554      00
ARM GAS  C:\Users\ISAKVO~1\AppData\Local\Temp\ccR1W42h.s 			page 177


 7555              	.LASF8:
 7556 0aa9 73686F72 		.ascii	"short unsigned int\000"
 7556      7420756E 
 7556      7369676E 
 7556      65642069 
 7556      6E7400
 7557              	.LASF186:
 7558 0abc 72785269 		.ascii	"rxRingBuf\000"
 7558      6E674275 
 7558      6600
 7559              	.LASF90:
 7560 0ac6 6C6F6E67 		.ascii	"long double\000"
 7560      20646F75 
 7560      626C6500 
 7561              	.LASF16:
 7562 0ad2 75696E74 		.ascii	"uint16_t\000"
 7562      31365F74 
 7562      00
 7563              	.LASF61:
 7564 0adb 494E5452 		.ascii	"INTR_I2C_EC_MASK\000"
 7564      5F493243 
 7564      5F45435F 
 7564      4D41534B 
 7564      00
 7565              	.LASF95:
 7566 0aec 70726F74 		.ascii	"protBase\000"
 7566      42617365 
 7566      00
 7567              	.LASF145:
 7568 0af5 70657269 		.ascii	"periTrCmdGrSelMsk\000"
 7568      5472436D 
 7568      64477253 
 7568      656C4D73 
 7568      6B00
 7569              	.LASF272:
 7570 0b07 5F617465 		.ascii	"_atexit0\000"
 7570      78697430 
 7570      00
 7571              	.LASF119:
 7572 0b10 73727373 		.ascii	"srssNumHfroot\000"
 7572      4E756D48 
 7572      66726F6F 
 7572      7400
 7573              	.LASF103:
 7574 0b1e 64775665 		.ascii	"dwVersion\000"
 7574      7273696F 
 7574      6E00
 7575              	.LASF66:
 7576 0b28 494E5452 		.ascii	"INTR_SPI_EC_MASK\000"
 7576      5F535049 
 7576      5F45435F 
 7576      4D41534B 
 7576      00
 7577              	.LASF144:
 7578 0b39 70657269 		.ascii	"periTrCmdOffset\000"
 7578      5472436D 
 7578      644F6666 
ARM GAS  C:\Users\ISAKVO~1\AppData\Local\Temp\ccR1W42h.s 			page 178


 7578      73657400 
 7579              	.LASF231:
 7580 0b49 5F617465 		.ascii	"_atexit\000"
 7580      78697400 
 7581              	.LASF252:
 7582 0b51 5F6D6273 		.ascii	"_mbstate\000"
 7582      74617465 
 7582      00
 7583              	.LASF254:
 7584 0b5a 5F726565 		.ascii	"_reent\000"
 7584      6E7400
 7585              	.LASF19:
 7586 0b61 73697A65 		.ascii	"sizetype\000"
 7586      74797065 
 7586      00
 7587              	.LASF307:
 7588 0b6a 454D5054 		.ascii	"EMPTY\000"
 7588      5900
 7589              	.LASF37:
 7590 0b70 4932435F 		.ascii	"I2C_S_CMD\000"
 7590      535F434D 
 7590      4400
 7591              	.LASF170:
 7592 0b7a 63707573 		.ascii	"cpussCm4NmiCtlOffset\000"
 7592      73436D34 
 7592      4E6D6943 
 7592      746C4F66 
 7592      66736574 
 7593              	.LASF165:
 7594 0b8f 63707573 		.ascii	"cpussCm4PwrCtlOffset\000"
 7594      73436D34 
 7594      50777243 
 7594      746C4F66 
 7594      66736574 
 7595              	.LASF152:
 7596 0ba4 70657269 		.ascii	"periDiv8CtlOffset\000"
 7596      44697638 
 7596      43746C4F 
 7596      66667365 
 7596      7400
 7597              	.LASF33:
 7598 0bb6 52455345 		.ascii	"RESERVED2\000"
 7598      52564544 
 7598      3200
 7599              	.LASF39:
 7600 0bc0 52455345 		.ascii	"RESERVED3\000"
 7600      52564544 
 7600      3300
 7601              	.LASF43:
 7602 0bca 52455345 		.ascii	"RESERVED4\000"
 7602      52564544 
 7602      3400
 7603              	.LASF45:
 7604 0bd4 52455345 		.ascii	"RESERVED5\000"
 7604      52564544 
 7604      3500
 7605              	.LASF49:
ARM GAS  C:\Users\ISAKVO~1\AppData\Local\Temp\ccR1W42h.s 			page 179


 7606 0bde 52455345 		.ascii	"RESERVED6\000"
 7606      52564544 
 7606      3600
 7607              	.LASF51:
 7608 0be8 52455345 		.ascii	"RESERVED7\000"
 7608      52564544 
 7608      3700
 7609              	.LASF54:
 7610 0bf2 52455345 		.ascii	"RESERVED8\000"
 7610      52564544 
 7610      3800
 7611              	.LASF56:
 7612 0bfc 52455345 		.ascii	"RESERVED9\000"
 7612      52564544 
 7612      3900
 7613              	.LASF312:
 7614 0c06 4D414E5F 		.ascii	"MAN_VS_AI\000"
 7614      56535F41 
 7614      4900
 7615              	.LASF10:
 7616 0c10 6C6F6E67 		.ascii	"long int\000"
 7616      20696E74 
 7616      00
 7617              	.LASF101:
 7618 0c19 63707573 		.ascii	"cpussVersion\000"
 7618      73566572 
 7618      73696F6E 
 7618      00
 7619              	.LASF35:
 7620 0c26 4932435F 		.ascii	"I2C_STATUS\000"
 7620      53544154 
 7620      555300
 7621              	.LASF105:
 7622 0c31 6770696F 		.ascii	"gpioVersion\000"
 7622      56657273 
 7622      696F6E00 
 7623              	.LASF332:
 7624 0c3d 6C656E67 		.ascii	"length\000"
 7624      746800
 7625              	.LASF82:
 7626 0c44 494E5452 		.ascii	"INTR_TX_MASKED\000"
 7626      5F54585F 
 7626      4D41534B 
 7626      454400
 7627              	.LASF104:
 7628 0c53 666C6173 		.ascii	"flashcVersion\000"
 7628      68635665 
 7628      7273696F 
 7628      6E00
 7629              	.LASF126:
 7630 0c61 70726F74 		.ascii	"protBusMasterMask\000"
 7630      4275734D 
 7630      61737465 
 7630      724D6173 
 7630      6B00
 7631              	.LASF275:
 7632 0c73 5F5F7366 		.ascii	"__sf\000"
ARM GAS  C:\Users\ISAKVO~1\AppData\Local\Temp\ccR1W42h.s 			page 180


 7632      00
 7633              	.LASF214:
 7634 0c78 5F736967 		.ascii	"_sign\000"
 7634      6E00
 7635              	.LASF262:
 7636 0c7e 5F637572 		.ascii	"_current_locale\000"
 7636      72656E74 
 7636      5F6C6F63 
 7636      616C6500 
 7637              	.LASF178:
 7638 0c8e 63686172 		.ascii	"char_t\000"
 7638      5F7400
 7639              	.LASF250:
 7640 0c95 5F646174 		.ascii	"_data\000"
 7640      6100
 7641              	.LASF204:
 7642 0c9b 5F5F7763 		.ascii	"__wchb\000"
 7642      686200
 7643              	.LASF337:
 7644 0ca2 63686563 		.ascii	"check_events\000"
 7644      6B5F6576 
 7644      656E7473 
 7644      00
 7645              	.LASF79:
 7646 0caf 494E5452 		.ascii	"INTR_TX\000"
 7646      5F545800 
 7647              	.LASF222:
 7648 0cb7 5F5F746D 		.ascii	"__tm_year\000"
 7648      5F796561 
 7648      7200
 7649              	.LASF31:
 7650 0cc1 55415254 		.ascii	"UART_RX_STATUS\000"
 7650      5F52585F 
 7650      53544154 
 7650      555300
 7651              	.LASF339:
 7652 0cd0 73656E64 		.ascii	"send_message\000"
 7652      5F6D6573 
 7652      73616765 
 7652      00
 7653              	.LASF195:
 7654 0cdd 74784C65 		.ascii	"txLeftToTransmit\000"
 7654      6674546F 
 7654      5472616E 
 7654      736D6974 
 7654      00
 7655              	.LASF287:
 7656 0cee 5F6C6F63 		.ascii	"_localtime_buf\000"
 7656      616C7469 
 7656      6D655F62 
 7656      756600
 7657              	.LASF353:
 7658 0cfd 61636B5F 		.ascii	"ack_packet\000"
 7658      7061636B 
 7658      657400
 7659              	.LASF5:
 7660 0d08 5F5F7569 		.ascii	"__uint8_t\000"
ARM GAS  C:\Users\ISAKVO~1\AppData\Local\Temp\ccR1W42h.s 			page 181


 7660      6E74385F 
 7660      7400
 7661              	.LASF271:
 7662 0d12 5F6E6577 		.ascii	"_new\000"
 7662      00
 7663              	.LASF330:
 7664 0d17 72656369 		.ascii	"recieved\000"
 7664      65766564 
 7664      00
 7665              	.LASF46:
 7666 0d20 52585F43 		.ascii	"RX_CTRL\000"
 7666      54524C00 
 7667              	.LASF269:
 7668 0d28 5F637674 		.ascii	"_cvtlen\000"
 7668      6C656E00 
 7669              	.LASF213:
 7670 0d30 5F6D6178 		.ascii	"_maxwds\000"
 7670      77647300 
 7671              	.LASF294:
 7672 0d38 5F6C3634 		.ascii	"_l64a_buf\000"
 7672      615F6275 
 7672      6600
 7673              	.LASF36:
 7674 0d42 4932435F 		.ascii	"I2C_M_CMD\000"
 7674      4D5F434D 
 7674      4400
 7675              	.LASF67:
 7676 0d4c 494E5452 		.ascii	"INTR_SPI_EC_MASKED\000"
 7676      5F535049 
 7676      5F45435F 
 7676      4D41534B 
 7676      454400
 7677              	.LASF156:
 7678 0d5f 6770696F 		.ascii	"gpioPrtIntrCfgOffset\000"
 7678      50727449 
 7678      6E747243 
 7678      66674F66 
 7678      66736574 
 7679              	.LASF25:
 7680 0d74 5350495F 		.ascii	"SPI_CTRL\000"
 7680      4354524C 
 7680      00
 7681              	.LASF251:
 7682 0d7d 5F6C6F63 		.ascii	"_lock\000"
 7682      6B00
 7683              	.LASF169:
 7684 0d83 63707573 		.ascii	"cpussCm0NmiCtlOffset\000"
 7684      73436D30 
 7684      4E6D6943 
 7684      746C4F66 
 7684      66736574 
 7685              	.LASF162:
 7686 0d98 63707573 		.ascii	"cpussCm4ClockCtlOffset\000"
 7686      73436D34 
 7686      436C6F63 
 7686      6B43746C 
 7686      4F666673 
ARM GAS  C:\Users\ISAKVO~1\AppData\Local\Temp\ccR1W42h.s 			page 182


 7687              	.LASF209:
 7688 0daf 5F5F554C 		.ascii	"__ULong\000"
 7688      6F6E6700 
 7689              	.LASF263:
 7690 0db7 5F5F7364 		.ascii	"__sdidinit\000"
 7690      6964696E 
 7690      697400
 7691              	.LASF167:
 7692 0dc2 63707573 		.ascii	"cpussTrimRomCtlOffset\000"
 7692      73547269 
 7692      6D526F6D 
 7692      43746C4F 
 7692      66667365 
 7693              	.LASF216:
 7694 0dd8 5F5F746D 		.ascii	"__tm\000"
 7694      00
 7695              	.LASF113:
 7696 0ddd 63707573 		.ascii	"cpussFlashPaSize\000"
 7696      73466C61 
 7696      73685061 
 7696      53697A65 
 7696      00
 7697              	.LASF306:
 7698 0dee 43524F53 		.ascii	"CROSS\000"
 7698      5300
 7699              	.LASF370:
 7700 0df4 6D61696E 		.ascii	"main\000"
 7700      00
 7701              	.LASF34:
 7702 0df9 4932435F 		.ascii	"I2C_CTRL\000"
 7702      4354524C 
 7702      00
 7703              	.LASF106:
 7704 0e02 6873696F 		.ascii	"hsiomVersion\000"
 7704      6D566572 
 7704      73696F6E 
 7704      00
 7705              	.LASF12:
 7706 0e0f 6C6F6E67 		.ascii	"long unsigned int\000"
 7706      20756E73 
 7706      69676E65 
 7706      6420696E 
 7706      7400
 7707              	.LASF69:
 7708 0e21 494E5452 		.ascii	"INTR_M\000"
 7708      5F4D00
 7709              	.LASF320:
 7710 0e28 696E6974 		.ascii	"init_packets\000"
 7710      5F706163 
 7710      6B657473 
 7710      00
 7711              	.LASF278:
 7712 0e35 5F6E696F 		.ascii	"_niobs\000"
 7712      627300
 7713              	.LASF261:
 7714 0e3c 5F637572 		.ascii	"_current_category\000"
 7714      72656E74 
ARM GAS  C:\Users\ISAKVO~1\AppData\Local\Temp\ccR1W42h.s 			page 183


 7714      5F636174 
 7714      65676F72 
 7714      7900
 7715              	.LASF180:
 7716 0e4e 666C6F61 		.ascii	"float\000"
 7716      7400
 7717              	.LASF74:
 7718 0e54 494E5452 		.ascii	"INTR_S\000"
 7718      5F5300
 7719              	.LASF17:
 7720 0e5b 696E7433 		.ascii	"int32_t\000"
 7720      325F7400 
 7721              	.LASF352:
 7722 0e63 77696E5F 		.ascii	"win_packet\000"
 7722      7061636B 
 7722      657400
 7723              	.LASF319:
 7724 0e6e 7061636B 		.ascii	"packet\000"
 7724      657400
 7725              	.LASF71:
 7726 0e75 494E5452 		.ascii	"INTR_M_MASK\000"
 7726      5F4D5F4D 
 7726      41534B00 
 7727              	.LASF228:
 7728 0e81 5F64736F 		.ascii	"_dso_handle\000"
 7728      5F68616E 
 7728      646C6500 
 7729              	.LASF217:
 7730 0e8d 5F5F746D 		.ascii	"__tm_sec\000"
 7730      5F736563 
 7730      00
 7731              	.LASF164:
 7732 0e96 63707573 		.ascii	"cpussCm0StatusOffset\000"
 7732      73436D30 
 7732      53746174 
 7732      75734F66 
 7732      66736574 
 7733              	.LASF26:
 7734 0eab 5350495F 		.ascii	"SPI_STATUS\000"
 7734      53544154 
 7734      555300
 7735              	.LASF129:
 7736 0eb6 666C6173 		.ascii	"flashPipeRequired\000"
 7736      68506970 
 7736      65526571 
 7736      75697265 
 7736      6400
 7737              	.LASF270:
 7738 0ec8 5F637674 		.ascii	"_cvtbuf\000"
 7738      62756600 
 7739              	.LASF4:
 7740 0ed0 756E7369 		.ascii	"unsigned char\000"
 7740      676E6564 
 7740      20636861 
 7740      7200
 7741              	.LASF11:
 7742 0ede 5F5F7569 		.ascii	"__uint32_t\000"
ARM GAS  C:\Users\ISAKVO~1\AppData\Local\Temp\ccR1W42h.s 			page 184


 7742      6E743332 
 7742      5F7400
 7743              	.LASF176:
 7744 0ee9 6970634C 		.ascii	"ipcLockStatusOffset\000"
 7744      6F636B53 
 7744      74617475 
 7744      734F6666 
 7744      73657400 
 7745              	.LASF358:
 7746 0efd 77696E5F 		.ascii	"win_masks\000"
 7746      6D61736B 
 7746      7300
 7747              	.LASF333:
 7748 0f07 43795F53 		.ascii	"Cy_SCB_UART_GetArrayBlocking\000"
 7748      43425F55 
 7748      4152545F 
 7748      47657441 
 7748      72726179 
 7749              	.LASF157:
 7750 0f24 6770696F 		.ascii	"gpioPrtCfgOffset\000"
 7750      50727443 
 7750      66674F66 
 7750      66736574 
 7750      00
 7751              	.LASF296:
 7752 0f35 5F676574 		.ascii	"_getdate_err\000"
 7752      64617465 
 7752      5F657272 
 7752      00
 7753              	.LASF338:
 7754 0f42 67616D65 		.ascii	"game_reset\000"
 7754      5F726573 
 7754      657400
 7755              	.LASF198:
 7756 0f4d 63795F73 		.ascii	"cy_stc_scb_uart_context_t\000"
 7756      74635F73 
 7756      63625F75 
 7756      6172745F 
 7756      636F6E74 
 7757              	.LASF58:
 7758 0f67 52455345 		.ascii	"RESERVED10\000"
 7758      52564544 
 7758      313000
 7759              	.LASF60:
 7760 0f72 52455345 		.ascii	"RESERVED11\000"
 7760      52564544 
 7760      313100
 7761              	.LASF63:
 7762 0f7d 52455345 		.ascii	"RESERVED12\000"
 7762      52564544 
 7762      313200
 7763              	.LASF65:
 7764 0f88 52455345 		.ascii	"RESERVED13\000"
 7764      52564544 
 7764      313300
 7765              	.LASF68:
 7766 0f93 52455345 		.ascii	"RESERVED14\000"
ARM GAS  C:\Users\ISAKVO~1\AppData\Local\Temp\ccR1W42h.s 			page 185


 7766      52564544 
 7766      313400
 7767              	.LASF73:
 7768 0f9e 52455345 		.ascii	"RESERVED15\000"
 7768      52564544 
 7768      313500
 7769              	.LASF78:
 7770 0fa9 52455345 		.ascii	"RESERVED16\000"
 7770      52564544 
 7770      313600
 7771              	.LASF83:
 7772 0fb4 52455345 		.ascii	"RESERVED17\000"
 7772      52564544 
 7772      313700
 7773              	.LASF48:
 7774 0fbf 52585F46 		.ascii	"RX_FIFO_STATUS\000"
 7774      49464F5F 
 7774      53544154 
 7774      555300
 7775              	.LASF234:
 7776 0fce 5F5F7362 		.ascii	"__sbuf\000"
 7776      756600
 7777              	.LASF44:
 7778 0fd5 54585F46 		.ascii	"TX_FIFO_WR\000"
 7778      49464F5F 
 7778      575200
 7779              	.LASF41:
 7780 0fe0 54585F46 		.ascii	"TX_FIFO_CTRL\000"
 7780      49464F5F 
 7780      4354524C 
 7780      00
 7781              	.LASF277:
 7782 0fed 5F676C75 		.ascii	"_glue\000"
 7782      6500
 7783              	.LASF274:
 7784 0ff3 5F5F7367 		.ascii	"__sglue\000"
 7784      6C756500 
 7785              	.LASF128:
 7786 0ffb 666C6173 		.ascii	"flashRwwRequired\000"
 7786      68527777 
 7786      52657175 
 7786      69726564 
 7786      00
 7787              	.LASF285:
 7788 100c 5F737472 		.ascii	"_strtok_last\000"
 7788      746F6B5F 
 7788      6C617374 
 7788      00
 7789              	.LASF292:
 7790 1019 5F6D6274 		.ascii	"_mbtowc_state\000"
 7790      6F77635F 
 7790      73746174 
 7790      6500
 7791              	.LASF40:
 7792 1027 54585F43 		.ascii	"TX_CTRL\000"
 7792      54524C00 
 7793              	.LASF123:
ARM GAS  C:\Users\ISAKVO~1\AppData\Local\Temp\ccR1W42h.s 			page 186


 7794 102f 65704D6F 		.ascii	"epMonitorNr\000"
 7794      6E69746F 
 7794      724E7200 
 7795              	.LASF356:
 7796 103b 55415254 		.ascii	"UART_context\000"
 7796      5F636F6E 
 7796      74657874 
 7796      00
 7797              	.LASF322:
 7798 1048 636C6561 		.ascii	"clear_board\000"
 7798      725F626F 
 7798      61726400 
 7799              	.LASF227:
 7800 1054 5F666E61 		.ascii	"_fnargs\000"
 7800      72677300 
 7801              	.LASF114:
 7802 105c 63707573 		.ascii	"cpussIpc0Irq\000"
 7802      73497063 
 7802      30497271 
 7802      00
 7803              	.LASF3:
 7804 1069 7369676E 		.ascii	"signed char\000"
 7804      65642063 
 7804      68617200 
 7805              	.LASF138:
 7806 1075 64774368 		.ascii	"dwChOffset\000"
 7806      4F666673 
 7806      657400
 7807              	.LASF28:
 7808 1080 55415254 		.ascii	"UART_CTRL\000"
 7808      5F435452 
 7808      4C00
 7809              	.LASF111:
 7810 108a 63707573 		.ascii	"cpussIpcIrqNr\000"
 7810      73497063 
 7810      4972714E 
 7810      7200
 7811              	.LASF86:
 7812 1098 494E5452 		.ascii	"INTR_RX_MASK\000"
 7812      5F52585F 
 7812      4D41534B 
 7812      00
 7813              	.LASF141:
 7814 10a5 64774368 		.ascii	"dwChCtlPreemptablePos\000"
 7814      43746C50 
 7814      7265656D 
 7814      70746162 
 7814      6C65506F 
 7815              	.LASF363:
 7816 10bb 43795F53 		.ascii	"Cy_SCB_WriteArrayBlocking\000"
 7816      43425F57 
 7816      72697465 
 7816      41727261 
 7816      79426C6F 
 7817              	.LASF309:
 7818 10d5 5F5F6761 		.ascii	"__game_type\000"
 7818      6D655F74 
ARM GAS  C:\Users\ISAKVO~1\AppData\Local\Temp\ccR1W42h.s 			page 187


 7818      79706500 
 7819              	.LASF22:
 7820 10e1 434D445F 		.ascii	"CMD_RESP_CTRL\000"
 7820      52455350 
 7820      5F435452 
 7820      4C00
 7821              	.LASF177:
 7822 10ef 63795F73 		.ascii	"cy_stc_device_t\000"
 7822      74635F64 
 7822      65766963 
 7822      655F7400 
 7823              	.LASF326:
 7824 10ff 5F5F656E 		.ascii	"__enable_irq\000"
 7824      61626C65 
 7824      5F697271 
 7824      00
 7825              	.LASF329:
 7826 110c 72656369 		.ascii	"recieve_game_type\000"
 7826      6576655F 
 7826      67616D65 
 7826      5F747970 
 7826      6500
 7827              	.LASF229:
 7828 111e 5F666E74 		.ascii	"_fntypes\000"
 7828      79706573 
 7828      00
 7829              	.LASF108:
 7830 1127 70657269 		.ascii	"periVersion\000"
 7830      56657273 
 7830      696F6E00 
 7831              	.LASF236:
 7832 1133 5F73697A 		.ascii	"_size\000"
 7832      6500
 7833              	.LASF181:
 7834 1139 646F7562 		.ascii	"double\000"
 7834      6C6500
 7835              	.LASF98:
 7836 1140 70617373 		.ascii	"passBase\000"
 7836      42617365 
 7836      00
 7837              	.LASF365:
 7838 1149 43795F53 		.ascii	"Cy_SysLib_Delay\000"
 7838      79734C69 
 7838      625F4465 
 7838      6C617900 
 7839              	.LASF314:
 7840 1159 67616D65 		.ascii	"game_type\000"
 7840      5F747970 
 7840      6500
 7841              	.LASF85:
 7842 1163 494E5452 		.ascii	"INTR_RX_SET\000"
 7842      5F52585F 
 7842      53455400 
 7843              	.LASF27:
 7844 116f 52455345 		.ascii	"RESERVED1\000"
 7844      52564544 
 7844      3100
ARM GAS  C:\Users\ISAKVO~1\AppData\Local\Temp\ccR1W42h.s 			page 188


 7845              	.LASF117:
 7846 1179 73727373 		.ascii	"srssNumClkpath\000"
 7846      4E756D43 
 7846      6C6B7061 
 7846      746800
 7847              	.LASF21:
 7848 1188 53544154 		.ascii	"STATUS\000"
 7848      555300
 7849              	.LASF247:
 7850 118f 5F6E6275 		.ascii	"_nbuf\000"
 7850      6600
 7851              	.LASF284:
 7852 1195 5F756E75 		.ascii	"_unused_rand\000"
 7852      7365645F 
 7852      72616E64 
 7852      00
 7853              	.LASF137:
 7854 11a2 666C6173 		.ascii	"flashCtlMainWs4Freq\000"
 7854      6843746C 
 7854      4D61696E 
 7854      57733446 
 7854      72657100 
 7855              	.LASF342:
 7856 11b6 636F6D6D 		.ascii	"communication_send_buffer\000"
 7856      756E6963 
 7856      6174696F 
 7856      6E5F7365 
 7856      6E645F62 
 7857              	.LASF253:
 7858 11d0 5F666C61 		.ascii	"_flags2\000"
 7858      67733200 
 7859              	.LASF230:
 7860 11d8 5F69735F 		.ascii	"_is_cxa\000"
 7860      63786100 
 7861              	.LASF310:
 7862 11e0 554E4B4E 		.ascii	"UNKNOWN\000"
 7862      4F574E00 
 7863              	.LASF190:
 7864 11e8 72784275 		.ascii	"rxBuf\000"
 7864      6600
 7865              	.LASF281:
 7866 11ee 5F736565 		.ascii	"_seed\000"
 7866      6400
 7867              	.LASF289:
 7868 11f4 5F72616E 		.ascii	"_rand_next\000"
 7868      645F6E65 
 7868      787400
 7869              	.LASF55:
 7870 11ff 455A5F44 		.ascii	"EZ_DATA\000"
 7870      41544100 
 7871              	.LASF244:
 7872 1207 5F736565 		.ascii	"_seek\000"
 7872      6B00
 7873              	.LASF107:
 7874 120d 69706356 		.ascii	"ipcVersion\000"
 7874      65727369 
 7874      6F6E00
ARM GAS  C:\Users\ISAKVO~1\AppData\Local\Temp\ccR1W42h.s 			page 189


 7875              	.LASF258:
 7876 1218 5F737464 		.ascii	"_stderr\000"
 7876      65727200 
 7877              	.LASF304:
 7878 1220 5F6E6D61 		.ascii	"_nmalloc\000"
 7878      6C6C6F63 
 7878      00
 7879              	.LASF279:
 7880 1229 5F696F62 		.ascii	"_iobs\000"
 7880      7300
 7881              	.LASF191:
 7882 122f 72784275 		.ascii	"rxBufSize\000"
 7882      6653697A 
 7882      6500
 7883              	.LASF20:
 7884 1239 4354524C 		.ascii	"CTRL\000"
 7884      00
 7885              		.ident	"GCC: (GNU Tools for ARM Embedded Processors) 5.4.1 20160609 (release) [ARM/embedded-5-bran
